

Microchip MPLAB XC8 Assembler V2.36 build 20220127204148 
                                                                                               Tue Mar 05 21:27:22 2024

Microchip MPLAB XC8 C Compiler v2.36 (Free license) build 20220127204148 Og1 
     1                           	processor	18F4620
     2                           	fnconf	rparam,??,?,0
     3                           	pagewidth 120
     4                           	opt	flic
     5                           	psect	idataCOMRAM,global,class=CODE,delta=1,noexec
     6                           	psect	idataBANK0,global,class=CODE,delta=1,noexec
     7                           	psect	idataBANK1,global,class=CODE,delta=1,noexec
     8                           	psect	smallconst,global,reloc=2,class=SMALLCONST,delta=1,noexec
     9                           	psect	cinit,global,reloc=2,class=CODE,delta=1
    10                           	psect	bssCOMRAM,global,class=COMRAM,space=1,delta=1,lowdata,noexec
    11                           	psect	dataCOMRAM,global,class=COMRAM,space=1,delta=1,lowdata,noexec
    12                           	psect	bssBANK0,global,class=BANK0,space=1,delta=1,lowdata,noexec
    13                           	psect	dataBANK0,global,class=BANK0,space=1,delta=1,lowdata,noexec
    14                           	psect	bssBANK1,global,class=BANK1,space=1,delta=1,lowdata,noexec
    15                           	psect	dataBANK1,global,class=BANK1,space=1,delta=1,lowdata,noexec
    16                           	psect	cstackBANK1,global,class=BANK1,space=1,delta=1,lowdata,noexec
    17                           	psect	cstackBANK0,global,class=BANK0,space=1,delta=1,lowdata,noexec
    18                           	psect	cstackCOMRAM,global,class=COMRAM,space=1,delta=1,lowdata,noexec
    19                           	psect	text0,global,reloc=2,class=CODE,delta=1
    20                           	psect	text1,global,reloc=2,class=CODE,delta=1
    21                           	psect	text2,global,reloc=2,class=CODE,delta=1
    22                           	psect	text3,global,reloc=2,class=CODE,delta=1
    23                           	psect	text4,global,reloc=2,class=CODE,delta=1
    24                           	psect	text5,global,reloc=2,class=CODE,delta=1
    25                           	psect	text6,global,reloc=2,class=CODE,delta=1
    26                           	psect	text7,global,reloc=2,class=CODE,delta=1
    27                           	psect	text8,global,reloc=2,class=CODE,delta=1
    28                           	psect	text9,global,reloc=2,class=CODE,delta=1
    29                           	psect	text10,global,reloc=2,class=CODE,delta=1
    30                           	psect	text11,global,reloc=2,class=CODE,delta=1
    31                           	psect	text12,global,reloc=2,class=CODE,delta=1
    32                           	psect	text13,global,reloc=2,class=CODE,delta=1
    33                           	psect	text14,global,reloc=2,class=CODE,delta=1
    34                           	psect	text15,global,reloc=2,class=CODE,delta=1
    35                           	psect	text16,global,reloc=2,class=CODE,delta=1
    36                           	psect	text17,global,reloc=2,class=CODE,delta=1
    37                           	psect	text18,global,reloc=2,class=CODE,delta=1
    38                           	psect	text19,global,reloc=2,class=CODE,delta=1
    39                           	psect	text20,global,reloc=2,class=CODE,delta=1
    40                           	psect	text21,global,reloc=2,class=CODE,delta=1
    41                           	psect	text22,global,reloc=2,class=CODE,delta=1
    42                           	psect	text23,global,reloc=2,class=CODE,delta=1
    43                           	psect	text24,global,reloc=2,class=CODE,delta=1
    44                           	psect	text25,global,reloc=2,class=CODE,delta=1,inline
    45                           	psect	text26,global,reloc=2,class=CODE,delta=1,inline
    46                           	psect	text27,global,reloc=2,class=CODE,delta=1
    47                           	psect	text28,global,reloc=2,class=CODE,delta=1
    48                           	psect	text29,global,reloc=2,class=CODE,delta=1
    49                           	psect	text30,global,reloc=2,class=CODE,delta=1
    50                           	psect	text31,global,reloc=2,class=CODE,delta=1,inline
    51                           	psect	text32,global,reloc=2,class=CODE,delta=1,inline
    52                           	psect	text33,global,reloc=2,class=CODE,delta=1
    53                           	psect	text34,global,reloc=2,class=CODE,delta=1
    54                           	psect	text35,global,reloc=2,class=CODE,delta=1,group=1
    55                           	psect	text36,global,reloc=2,class=CODE,delta=1,group=1
    56                           	psect	text37,global,reloc=2,class=CODE,delta=1,group=1
    57                           	psect	text38,global,reloc=2,class=CODE,delta=1,group=1
    58                           	psect	text39,global,reloc=2,class=CODE,delta=1,group=1
    59                           	psect	intcode,global,reloc=2,class=CODE,delta=1
    60                           	psect	intcode_body,global,reloc=2,class=CODE,delta=1
    61                           	psect	text41,global,reloc=2,class=CODE,delta=1
    62                           	psect	text42,global,reloc=2,class=CODE,delta=1
    63                           	psect	text43,global,reloc=2,class=CODE,delta=1
    64                           	psect	text44,global,reloc=2,class=CODE,delta=1
    65                           	psect	text45,global,reloc=2,class=CODE,delta=1
    66                           	psect	text46,global,reloc=2,class=CODE,delta=1
    67                           	psect	text47,global,reloc=2,class=CODE,delta=1
    68                           	psect	text48,global,reloc=2,class=CODE,delta=1
    69                           	psect	text49,global,reloc=2,class=CODE,delta=1
    70                           	psect	text50,global,reloc=2,class=CODE,delta=1
    71                           	psect	text51,global,reloc=2,class=CODE,delta=1,inline
    72                           	psect	text52,global,reloc=2,class=CODE,delta=1,inline
    73                           	psect	text53,global,reloc=2,class=CODE,delta=1
    74                           	psect	text54,global,reloc=2,class=CODE,delta=1
    75                           	psect	text55,global,reloc=2,class=CODE,delta=1
    76                           	psect	text56,global,reloc=2,class=CODE,delta=1
    77                           	psect	text57,global,reloc=2,class=CODE,delta=1
    78                           	psect	text58,global,reloc=2,class=CODE,delta=1
    79                           	psect	text59,global,reloc=2,class=CODE,delta=1,group=1
    80                           	psect	text60,global,reloc=2,class=CODE,delta=1,group=1
    81                           	psect	text61,global,reloc=2,class=CODE,delta=1,inline
    82                           	psect	text62,global,reloc=2,class=CODE,delta=1,inline
    83                           	psect	text63,global,reloc=2,class=CODE,delta=1,inline
    84                           	psect	text64,global,reloc=2,class=CODE,delta=1,inline
    85                           	psect	text65,global,reloc=2,class=CODE,delta=1,inline
    86                           	psect	text66,global,reloc=2,class=CODE,delta=1
    87                           	psect	text67,global,reloc=2,class=CODE,delta=1
    88                           	psect	text68,global,reloc=2,class=CODE,delta=1,inline
    89                           	psect	text69,global,reloc=2,class=CODE,delta=1
    90                           	psect	intsave_regs,global,class=BIGRAM,space=1,delta=1,noexec
    91                           	psect	text70,global,reloc=2,class=CODE,delta=1
    92                           	psect	rparam,global,class=COMRAM,space=1,delta=1,noexec
    93                           	psect	temp,global,ovrld,common,class=COMRAM,space=1,delta=1
    94                           	psect	config,global,abs,ovrld,class=CONFIG,space=4,delta=1,noexec
    95  0000                     
    96                           ; Generated 23/03/2023 GMT
    97                           ; 
    98                           ; Copyright © 2023, Microchip Technology Inc. and its subsidiaries ("Microchip")
    99                           ; All rights reserved.
   100                           ; 
   101                           ; This software is developed by Microchip Technology Inc. and its subsidiaries ("Microch
      +                          ip").
   102                           ; 
   103                           ; Redistribution and use in source and binary forms, with or without modification, are
   104                           ; permitted provided that the following conditions are met:
   105                           ; 
   106                           ;     1. Redistributions of source code must retain the above copyright notice, this lis
      +                          t of
   107                           ;        conditions and the following disclaimer.
   108                           ; 
   109                           ;     2. Redistributions in binary form must reproduce the above copyright notice, this 
      +                          list
   110                           ;        of conditions and the following disclaimer in the documentation and/or other
   111                           ;        materials provided with the distribution. Publication is not required when
   112                           ;        this file is used in an embedded application.
   113                           ; 
   114                           ;     3. Microchip's name may not be used to endorse or promote products derived from th
      +                          is
   115                           ;        software without specific prior written permission.
   116                           ; 
   117                           ; THIS SOFTWARE IS PROVIDED BY MICROCHIP "AS IS" AND ANY EXPRESS OR IMPLIED WARRANTIES,
   118                           ; INCLUDING, BUT NOT LIMITED TO, THE IMPLIED WARRANTIES OF MERCHANTABILITY AND FITNESS F
      +                          OR
   119                           ; PURPOSE ARE DISCLAIMED.  IN NO EVENT SHALL MICROCHIP BE LIABLE FOR ANY DIRECT, INDIREC
      +                          T,
   120                           ; INCIDENTAL, SPECIAL, EXEMPLARY, OR CONSEQUENTIAL DAMAGES (INCLUDING BUT NOT LIMITED TO
   121                           ; PROCUREMENT OF SUBSTITUTE GOODS OR SERVICES; LOSS OF USE, DATA OR PROFITS; OR BUSINESS
   122                           ; INTERRUPTION) HOWSOEVER CAUSED AND ON ANY THEORY OF LIABILITY, WHETHER IN CONTRACT, ST
      +                          RICT
   123                           ; LIABILITY, OR TORT (INCLUDING NEGLIGENCE OR OTHERWISE) ARISING IN ANY WAY OUT OF THE U
      +                          SE OF
   124                           ; THIS SOFTWARE, EVEN IF ADVISED OF THE POSSIBILITY OF SUCH DAMAGE.
   125                           ; 
   126                           ; 
   127                           ; Code-generator required, PIC18F4620 Definitions
   128                           ; 
   129                           ; SFR Addresses
   130  0000                     
   131 ;; Function _I2C_SlaveDefWrColInterruptHandler is unused but had its address taken
   132  0000                     
   133 ;; Function _I2C_SlaveDefBusColInterruptHandler is unused but had its address taken
   134  0000                     
   135                           	psect	idataCOMRAM
   136  003978                     __pidataCOMRAM:
   137                           	callstack 0
   138                           
   139                           ;initializer for _RB7_Flag
   140  003978  01                 	db	1
   141                           
   142                           ;initializer for _RB6_Flag
   143  003979  01                 	db	1
   144                           
   145                           ;initializer for _RB5_Flag
   146  00397A  01                 	db	1
   147                           
   148                           ;initializer for _RB4_Flag
   149  00397B  01                 	db	1
   150                           
   151                           ;initializer for SPI_Slave_Mode_GPIO_PIN_Configurations@F3115
   152  00397C  28                 	db	40
   153                           
   154                           ;initializer for SPI_Slave_Mode_GPIO_PIN_Configurations@F3113
   155  00397D  2A                 	db	42
   156                           
   157                           ;initializer for SPI_Slave_Mode_GPIO_PIN_Configurations@F3111
   158  00397E  22                 	db	34
   159                           
   160                           ;initializer for SPI_Slave_Mode_GPIO_PIN_Configurations@F3109
   161  00397F  1A                 	db	26
   162                           
   163                           ;initializer for SPI_Master_Mode_GPIO_PIN_Configurations@F3105
   164  003980  2A                 	db	42
   165                           
   166                           ;initializer for SPI_Master_Mode_GPIO_PIN_Configurations@F3103
   167  003981  22                 	db	34
   168                           
   169                           ;initializer for SPI_Master_Mode_GPIO_PIN_Configurations@F3101
   170  003982  1A                 	db	26
   171                           
   172                           ;initializer for _n
   173  003983  04                 	db	4
   174                           
   175                           	psect	idataBANK0
   176  003880                     __pidataBANK0:
   177                           	callstack 0
   178                           
   179                           ;initializer for _latx
   180  003880  89                 	db	137
   181  003881  0F                 	db	15
   182  003882  8A                 	db	138
   183  003883  0F                 	db	15
   184  003884  8B                 	db	139
   185  003885  0F                 	db	15
   186  003886  8C                 	db	140
   187  003887  0F                 	db	15
   188  003888  8D                 	db	141
   189  003889  0F                 	db	15
   190                           
   191                           ;initializer for _trisx
   192  00388A  92                 	db	146
   193  00388B  0F                 	db	15
   194  00388C  93                 	db	147
   195  00388D  0F                 	db	15
   196  00388E  94                 	db	148
   197  00388F  0F                 	db	15
   198  003890  95                 	db	149
   199  003891  0F                 	db	15
   200  003892  96                 	db	150
   201  003893  0F                 	db	15
   202                           
   203                           ;initializer for _motor2
   204  003894  13                 	db	19
   205  003895  1B                 	db	27
   206  003896  00                 	db	0
   207                           
   208                           ;initializer for _motor1
   209  003897  03                 	db	3
   210  003898  0B                 	db	11
   211  003899  00                 	db	0
   212                           
   213                           ;initializer for _led_blue
   214  00389A  2B                 	db	43
   215  00389B  00                 	db	0
   216                           
   217                           ;initializer for _led_red
   218  00389C  23                 	db	35
   219  00389D  00                 	db	0
   220                           
   221                           	psect	idataBANK1
   222  003778                     __pidataBANK1:
   223                           	callstack 0
   224                           
   225                           ;initializer for _keypad_btns
   226  003778  37                 	db	55
   227  003779  38                 	db	56
   228  00377A  39                 	db	57
   229  00377B  2F                 	db	47
   230  00377C  34                 	db	52
   231  00377D  35                 	db	53
   232  00377E  36                 	db	54
   233  00377F  2A                 	db	42
   234  003780  31                 	db	49
   235  003781  32                 	db	50
   236  003782  33                 	db	51
   237  003783  2D                 	db	45
   238  003784  23                 	db	35
   239  003785  30                 	db	48
   240  003786  3D                 	db	61
   241  003787  2B                 	db	43
   242                           
   243                           ;initializer for _portx
   244  003788  80                 	db	128
   245  003789  0F                 	db	15
   246  00378A  81                 	db	129
   247  00378B  0F                 	db	15
   248  00378C  82                 	db	130
   249  00378D  0F                 	db	15
   250  00378E  83                 	db	131
   251  00378F  0F                 	db	15
   252  003790  84                 	db	132
   253  003791  0F                 	db	15
   254                           
   255                           ;initializer for _ccp1
   256  003792  00                 	db	0
   257  003793  02                 	db	2
   258  003794  00                 	db	0
   259  003795  12                 	db	18
   260  003796  00                 	db	0
   261  003797  2710               	dw	10000
   262  003799  01                 	db	1
   263  00379A  01                 	db	1
   264  00379B  00                 	db	0
   265  00379C  00                 	db	0
   266  00379D  00                 	db	0
   267  00379E  00                 	db	0
   268  00379F  00                 	db	0
   269  0037A0  00                 	db	0
   270                           
   271                           ;initializer for _seg_2
   272  0037A1  21                 	db	33
   273  0037A2  29                 	db	41
   274  0037A3  31                 	db	49
   275  0037A4  39                 	db	57
   276  0037A5  00                 	db	0
   277                           
   278                           ;initializer for _seg_1
   279  0037A6  01                 	db	1
   280  0037A7  09                 	db	9
   281  0037A8  11                 	db	17
   282  0037A9  19                 	db	25
   283  0037AA  00                 	db	0
   284  0000                     _SSPADD	set	4040
   285  0000                     _SSPCON2	set	4037
   286  0000                     _SPBRGH	set	4016
   287  0000                     _SPBRG	set	4015
   288  0000                     _RCREG	set	4014
   289  0000                     _TXREG	set	4013
   290  0000                     _TXSTAbits	set	4012
   291  0000                     _RCSTAbits	set	4011
   292  0000                     _TMR3L	set	4018
   293  0000                     _TMR3H	set	4019
   294  0000                     _TMR2	set	4044
   295  0000                     _T2CONbits	set	4042
   296  0000                     _TMR1L	set	4046
   297  0000                     _TMR1H	set	4047
   298  0000                     _T1CONbits	set	4045
   299  0000                     _TMR0L	set	4054
   300  0000                     _TMR0H	set	4055
   301  0000                     _T0CONbits	set	4053
   302  0000                     _SSPBUF	set	4041
   303  0000                     _SSPSTATbits	set	4039
   304  0000                     _SSPCON1bits	set	4038
   305  0000                     _INTCON2bits	set	4081
   306  0000                     _INTCON3bits	set	4080
   307  0000                     _EECON2	set	4007
   308  0000                     _ADCON1bits	set	4033
   309  0000                     _ADRESH	set	4036
   310  0000                     _ADRESL	set	4035
   311  0000                     _INTCONbits	set	4082
   312  0000                     _TRISD	set	3989
   313  0000                     _TRISC	set	3988
   314  0000                     _PR2	set	4043
   315  0000                     _TRISB	set	3987
   316  0000                     _TRISE	set	3990
   317  0000                     _SSPCON2bits	set	4037
   318  0000                     _SSPCON1	set	4038
   319  0000                     _SSPSTAT	set	4039
   320  0000                     _PORTBbits	set	3969
   321  0000                     _TRISCbits	set	3988
   322  0000                     _PIE1bits	set	3997
   323  0000                     _PIR1bits	set	3998
   324  0000                     _ADCON2bits	set	4032
   325  0000                     _ADCON0bits	set	4034
   326  0000                     _PORTE	set	3972
   327  0000                     _PORTD	set	3971
   328  0000                     _PORTC	set	3970
   329  0000                     _PORTB	set	3969
   330  0000                     _PORTA	set	3968
   331  0000                     _LATA	set	3977
   332  0000                     _TRISA	set	3986
   333  0000                     _PIE2bits	set	4000
   334  0000                     _CCP2CONbits	set	4026
   335  0000                     _CCP1CONbits	set	4029
   336  0000                     _CCPR1L	set	4030
   337  0000                     _CCPR2L	set	4027
   338  0000                     _EECON1bits	set	4006
   339  0000                     _EEDATA	set	4008
   340  0000                     _EEADR	set	4009
   341  0000                     _EEADRH	set	4010
   342  0000                     _T3CONbits	set	4017
   343  0000                     _PIR2bits	set	4001
   344  0000                     _LATE	set	3981
   345  0000                     _LATD	set	3980
   346  0000                     _LATC	set	3979
   347  0000                     _LATB	set	3978
   348  0000                     _RCONbits	set	4048
   349  0000                     _BAUDCONbits	set	4024
   350                           
   351                           	psect	smallconst
   352  001000                     __psmallconst:
   353                           	callstack 0
   354  001000  00                 	db	0
   355  001001                     STR_1:
   356  001001  25                 	db	37
   357  001002  69                 	db	105	;'i'
   358  001003  00                 	db	0
   359  001004  00                 	db	0	; dummy byte at the end
   360  0000                     
   361                           ; #config settings
   362                           
   363                           	psect	cinit
   364  00312E                     __pcinit:
   365                           	callstack 0
   366  00312E                     start_initialization:
   367                           	callstack 0
   368  00312E                     __initialization:
   369                           	callstack 0
   370                           
   371                           ; Initialize objects allocated to BANK1 (51 bytes)
   372                           ; load TBLPTR registers with __pidataBANK1
   373  00312E  0E78               	movlw	low __pidataBANK1
   374  003130  6EF6               	movwf	tblptrl,c
   375  003132  0E37               	movlw	high __pidataBANK1
   376  003134  6EF7               	movwf	tblptrh,c
   377  003136  0E00               	movlw	low (__pidataBANK1 shr (0+16))
   378  003138  6EF8               	movwf	tblptru,c
   379  00313A  EE01  F000         	lfsr	0,__pdataBANK1
   380  00313E  EE10 F033          	lfsr	1,51
   381  003142                     copy_data0:
   382  003142  0009               	tblrd		*+
   383  003144  CFF5 FFEE          	movff	tablat,postinc0
   384  003148  50E5               	movf	postdec1,w,c
   385  00314A  50E1               	movf	fsr1l,w,c
   386  00314C  E1FA               	bnz	copy_data0
   387                           
   388                           ; Initialize objects allocated to BANK0 (30 bytes)
   389                           ; load TBLPTR registers with __pidataBANK0
   390  00314E  0E80               	movlw	low __pidataBANK0
   391  003150  6EF6               	movwf	tblptrl,c
   392  003152  0E38               	movlw	high __pidataBANK0
   393  003154  6EF7               	movwf	tblptrh,c
   394  003156  0E00               	movlw	low (__pidataBANK0 shr (0+16))
   395  003158  6EF8               	movwf	tblptru,c
   396  00315A  EE00  F0E2         	lfsr	0,__pdataBANK0
   397  00315E  EE10 F01E          	lfsr	1,30
   398  003162                     copy_data1:
   399  003162  0009               	tblrd		*+
   400  003164  CFF5 FFEE          	movff	tablat,postinc0
   401  003168  50E5               	movf	postdec1,w,c
   402  00316A  50E1               	movf	fsr1l,w,c
   403  00316C  E1FA               	bnz	copy_data1
   404                           
   405                           ; Initialize objects allocated to COMRAM (12 bytes)
   406                           ; load TBLPTR registers with __pidataCOMRAM
   407  00316E  0E78               	movlw	low __pidataCOMRAM
   408  003170  6EF6               	movwf	tblptrl,c
   409  003172  0E39               	movlw	high __pidataCOMRAM
   410  003174  6EF7               	movwf	tblptrh,c
   411  003176  0E00               	movlw	low (__pidataCOMRAM shr (0+16))
   412  003178  6EF8               	movwf	tblptru,c
   413  00317A  EE00  F05A         	lfsr	0,__pdataCOMRAM
   414  00317E  EE10 F00C          	lfsr	1,12
   415  003182                     copy_data2:
   416  003182  0009               	tblrd		*+
   417  003184  CFF5 FFEE          	movff	tablat,postinc0
   418  003188  50E5               	movf	postdec1,w,c
   419  00318A  50E1               	movf	fsr1l,w,c
   420  00318C  E1FA               	bnz	copy_data2
   421                           
   422                           ; Clear objects allocated to BANK1 (13 bytes)
   423  00318E  EE01  F04A         	lfsr	0,__pbssBANK1
   424  003192  0E0D               	movlw	13
   425  003194                     clear_0:
   426  003194  6AEE               	clrf	postinc0,c
   427  003196  06E8               	decf	wreg,f,c
   428  003198  E1FD               	bnz	clear_0
   429                           
   430                           ; Clear objects allocated to BANK0 (66 bytes)
   431  00319A  EE00  F080         	lfsr	0,__pbssBANK0
   432  00319E  0E42               	movlw	66
   433  0031A0                     clear_1:
   434  0031A0  6AEE               	clrf	postinc0,c
   435  0031A2  06E8               	decf	wreg,f,c
   436  0031A4  E1FD               	bnz	clear_1
   437                           
   438                           ; Clear objects allocated to COMRAM (13 bytes)
   439  0031A6  EE00  F04D         	lfsr	0,__pbssCOMRAM
   440  0031AA  0E0D               	movlw	13
   441  0031AC                     clear_2:
   442  0031AC  6AEE               	clrf	postinc0,c
   443  0031AE  06E8               	decf	wreg,f,c
   444  0031B0  E1FD               	bnz	clear_2
   445  0031B2                     end_of_initialization:
   446                           	callstack 0
   447  0031B2                     __end_of__initialization:
   448                           	callstack 0
   449  0031B2  9066               	bcf	int$flags,0,c	;clear compiler interrupt flag (level 1)
   450  0031B4  9266               	bcf	int$flags,1,c	;clear compiler interrupt flag (level 2)
   451  0031B6  0100               	movlb	0
   452  0031B8  EF4A  F014         	goto	_main	;jump to C main() function
   453                           
   454                           	psect	bssCOMRAM
   455  00004D                     __pbssCOMRAM:
   456                           	callstack 0
   457  00004D                     _var_slave:
   458                           	callstack 0
   459  00004D                     	ds	1
   460  00004E                     _i2cSlaveState:
   461                           	callstack 0
   462  00004E                     	ds	1
   463  00004F                     _i2cWrData:
   464                           	callstack 0
   465  00004F                     	ds	1
   466  000050                     _timer2_preload:
   467                           	callstack 0
   468  000050                     	ds	1
   469  000051                     	ds	1
   470  000052                     	ds	1
   471  000053                     	ds	1
   472  000054                     	ds	1
   473  000055                     lcd_send_custom_char@counter:
   474                           	callstack 0
   475  000055                     	ds	1
   476  000056                     seven_segment_write@counter:
   477                           	callstack 0
   478  000056                     	ds	1
   479  000057                     seven_segment_init@counter:
   480                           	callstack 0
   481  000057                     	ds	1
   482  000058                     lcd_send_number_pos@number:
   483                           	callstack 0
   484  000058                     	ds	1
   485  000059                     lcd_send_number@number:
   486                           	callstack 0
   487  000059                     	ds	1
   488                           
   489                           	psect	dataCOMRAM
   490  00005A                     __pdataCOMRAM:
   491                           	callstack 0
   492  00005A                     _RB7_Flag:
   493                           	callstack 0
   494  00005A                     	ds	1
   495  00005B                     _RB6_Flag:
   496                           	callstack 0
   497  00005B                     	ds	1
   498  00005C                     _RB5_Flag:
   499                           	callstack 0
   500  00005C                     	ds	1
   501  00005D                     _RB4_Flag:
   502                           	callstack 0
   503  00005D                     	ds	1
   504  00005E                     SPI_Slave_Mode_GPIO_PIN_Configurations@F3115:
   505                           	callstack 0
   506  00005E                     	ds	1
   507  00005F                     SPI_Slave_Mode_GPIO_PIN_Configurations@F3113:
   508                           	callstack 0
   509  00005F                     	ds	1
   510  000060                     SPI_Slave_Mode_GPIO_PIN_Configurations@F3111:
   511                           	callstack 0
   512  000060                     	ds	1
   513  000061                     SPI_Slave_Mode_GPIO_PIN_Configurations@F3109:
   514                           	callstack 0
   515  000061                     	ds	1
   516  000062                     SPI_Master_Mode_GPIO_PIN_Configurations@F3105:
   517                           	callstack 0
   518  000062                     	ds	1
   519  000063                     SPI_Master_Mode_GPIO_PIN_Configurations@F3103:
   520                           	callstack 0
   521  000063                     	ds	1
   522  000064                     SPI_Master_Mode_GPIO_PIN_Configurations@F3101:
   523                           	callstack 0
   524  000064                     	ds	1
   525  000065                     _n:
   526                           	callstack 0
   527  000065                     	ds	1
   528                           
   529                           	psect	bssBANK0
   530  000080                     __pbssBANK0:
   531                           	callstack 0
   532  000080                     _I2C_SlaveWrColInterruptHandler:
   533                           	callstack 0
   534  000080                     	ds	2
   535  000082                     _I2C_SlaveBusColInterruptHandler:
   536                           	callstack 0
   537  000082                     	ds	2
   538  000084                     _I2C_SlaveAddrInterruptHandler:
   539                           	callstack 0
   540  000084                     	ds	2
   541  000086                     _I2C_SlaveWrInterruptHandler:
   542                           	callstack 0
   543  000086                     	ds	2
   544  000088                     _I2C_SlaveRdInterruptHandler:
   545                           	callstack 0
   546  000088                     	ds	2
   547  00008A                     _MSSP_InterruptHandler:
   548                           	callstack 0
   549  00008A                     	ds	2
   550  00008C                     	ds	2
   551  00008E                     	ds	2
   552  000090                     	ds	2
   553  000092                     _EUSART_TxInterruptHandler:
   554                           	callstack 0
   555  000092                     	ds	2
   556  000094                     _timer3_preload:
   557                           	callstack 0
   558  000094                     	ds	2
   559  000096                     _TMR3_InterruptHandler:
   560                           	callstack 0
   561  000096                     	ds	2
   562  000098                     _TMR2_InterruptHandler:
   563                           	callstack 0
   564  000098                     	ds	2
   565  00009A                     _timer1_preload:
   566                           	callstack 0
   567  00009A                     	ds	2
   568  00009C                     _TMR1_InterruptHandler:
   569                           	callstack 0
   570  00009C                     	ds	2
   571  00009E                     _timer0_preload:
   572                           	callstack 0
   573  00009E                     	ds	2
   574  0000A0                     _TMR0_InterruptHandler:
   575                           	callstack 0
   576  0000A0                     	ds	2
   577  0000A2                     _SPI_InterruptHandler:
   578                           	callstack 0
   579  0000A2                     	ds	2
   580  0000A4                     _RB7_InterruptHandler_low:
   581                           	callstack 0
   582  0000A4                     	ds	2
   583  0000A6                     _RB7_InterruptHandler_high:
   584                           	callstack 0
   585  0000A6                     	ds	2
   586  0000A8                     _RB6_InterruptHandler_low:
   587                           	callstack 0
   588  0000A8                     	ds	2
   589  0000AA                     _RB6_InterruptHandler_high:
   590                           	callstack 0
   591  0000AA                     	ds	2
   592  0000AC                     _RB5_InterruptHandler_low:
   593                           	callstack 0
   594  0000AC                     	ds	2
   595  0000AE                     _RB5_InterruptHandler_high:
   596                           	callstack 0
   597  0000AE                     	ds	2
   598  0000B0                     _RB4_InterruptHandler_low:
   599                           	callstack 0
   600  0000B0                     	ds	2
   601  0000B2                     _RB4_InterruptHandler_high:
   602                           	callstack 0
   603  0000B2                     	ds	2
   604  0000B4                     _INT2_InterruptHandler:
   605                           	callstack 0
   606  0000B4                     	ds	2
   607  0000B6                     _INT1_InterruptHandler:
   608                           	callstack 0
   609  0000B6                     	ds	2
   610  0000B8                     _INT0_InterruptHandler:
   611                           	callstack 0
   612  0000B8                     	ds	2
   613  0000BA                     _CCP2_InterruptHandler:
   614                           	callstack 0
   615  0000BA                     	ds	2
   616  0000BC                     _CCP1_InterruptHandler:
   617                           	callstack 0
   618  0000BC                     	ds	2
   619  0000BE                     _ADC_InterruptHandler:
   620                           	callstack 0
   621  0000BE                     	ds	2
   622  0000C0                     _i2cSlaveAddr:
   623                           	callstack 0
   624  0000C0                     	ds	1
   625  0000C1                     _i2cRdData:
   626                           	callstack 0
   627  0000C1                     	ds	1
   628                           
   629                           	psect	dataBANK0
   630  0000E2                     __pdataBANK0:
   631                           	callstack 0
   632  0000E2                     _latx:
   633                           	callstack 0
   634  0000E2                     	ds	10
   635  0000EC                     _trisx:
   636                           	callstack 0
   637  0000EC                     	ds	10
   638  0000F6                     _motor2:
   639                           	callstack 0
   640  0000F6                     	ds	3
   641  0000F9                     _motor1:
   642                           	callstack 0
   643  0000F9                     	ds	3
   644  0000FC                     _led_blue:
   645                           	callstack 0
   646  0000FC                     	ds	2
   647  0000FE                     _led_red:
   648                           	callstack 0
   649  0000FE                     	ds	2
   650                           
   651                           	psect	bssBANK1
   652  00014A                     __pbssBANK1:
   653                           	callstack 0
   654  00014A                     	ds	6
   655  000150                     _timer2:
   656                           	callstack 0
   657  000150                     	ds	7
   658                           
   659                           	psect	dataBANK1
   660  000100                     __pdataBANK1:
   661                           	callstack 0
   662  000100                     _keypad_btns:
   663                           	callstack 0
   664  000100                     	ds	16
   665  000110                     _portx:
   666                           	callstack 0
   667  000110                     	ds	10
   668  00011A                     _ccp1:
   669                           	callstack 0
   670  00011A                     	ds	15
   671  000129                     _seg_2:
   672                           	callstack 0
   673  000129                     	ds	5
   674  00012E                     _seg_1:
   675                           	callstack 0
   676  00012E                     	ds	5
   677                           
   678                           	psect	cstackBANK1
   679  000133                     __pcstackBANK1:
   680                           	callstack 0
   681  000133                     ?___fltol:
   682                           	callstack 0
   683  000133                     ___fltol@f1:
   684                           	callstack 0
   685                           
   686                           ; 4 bytes @ 0x0
   687  000133                     	ds	4
   688  000137                     ??___fltol:
   689                           
   690                           ; 1 bytes @ 0x4
   691  000137                     	ds	4
   692  00013B                     CCP_PWM_Set_Duty@_ccp_obj:
   693                           	callstack 0
   694  00013B                     CCP_PWM_Mode_Config@_ccp_obj:
   695                           	callstack 0
   696                           
   697                           ; 2 bytes @ 0x8
   698  00013B                     	ds	2
   699  00013D                     ??_CCP_PWM_Mode_Config:
   700  00013D                     CCP_PWM_Set_Duty@_duty:
   701                           	callstack 0
   702                           
   703                           ; 1 bytes @ 0xA
   704  00013D                     	ds	1
   705  00013E                     ??_CCP_PWM_Set_Duty:
   706                           
   707                           ; 1 bytes @ 0xB
   708  00013E                     	ds	1
   709  00013F                     _CCP_PWM_Mode_Config$5874:
   710                           	callstack 0
   711                           
   712                           ; 4 bytes @ 0xC
   713  00013F                     	ds	1
   714  000140                     _CCP_PWM_Set_Duty$5873:
   715                           	callstack 0
   716                           
   717                           ; 4 bytes @ 0xD
   718  000140                     	ds	3
   719  000143                     _CCP_PWM_Mode_Config$5875:
   720                           	callstack 0
   721                           
   722                           ; 4 bytes @ 0x10
   723  000143                     	ds	1
   724  000144                     CCP_PWM_Set_Duty@l_duty_temp:
   725                           	callstack 0
   726                           
   727                           ; 2 bytes @ 0x11
   728  000144                     	ds	3
   729  000147                     CCP_Init@_ccp_obj:
   730                           	callstack 0
   731                           
   732                           ; 2 bytes @ 0x14
   733  000147                     	ds	2
   734  000149                     _main$5877:
   735                           	callstack 0
   736                           
   737                           ; 1 bytes @ 0x16
   738  000149                     	ds	1
   739                           
   740                           	psect	cstackBANK0
   741  0000C2                     __pcstackBANK0:
   742                           	callstack 0
   743  0000C2                     ___fldiv@rem:
   744                           	callstack 0
   745                           
   746                           ; 4 bytes @ 0x0
   747  0000C2                     	ds	4
   748  0000C6                     ___fldiv@sign:
   749                           	callstack 0
   750                           
   751                           ; 1 bytes @ 0x4
   752  0000C6                     	ds	1
   753  0000C7                     ___fldiv@new_exp:
   754                           	callstack 0
   755                           
   756                           ; 2 bytes @ 0x5
   757  0000C7                     	ds	2
   758  0000C9                     ___fldiv@grs:
   759                           	callstack 0
   760                           
   761                           ; 4 bytes @ 0x7
   762  0000C9                     	ds	4
   763  0000CD                     ___fldiv@bexp:
   764                           	callstack 0
   765                           
   766                           ; 1 bytes @ 0xB
   767  0000CD                     	ds	1
   768  0000CE                     ___fldiv@aexp:
   769                           	callstack 0
   770                           
   771                           ; 1 bytes @ 0xC
   772  0000CE                     	ds	1
   773  0000CF                     ?___fladd:
   774                           	callstack 0
   775  0000CF                     ___fladd@b:
   776                           	callstack 0
   777                           
   778                           ; 4 bytes @ 0xD
   779  0000CF                     	ds	4
   780  0000D3                     ___fladd@a:
   781                           	callstack 0
   782                           
   783                           ; 4 bytes @ 0x11
   784  0000D3                     	ds	4
   785  0000D7                     ??___fladd:
   786                           
   787                           ; 1 bytes @ 0x15
   788  0000D7                     	ds	4
   789  0000DB                     ___fladd@signs:
   790                           	callstack 0
   791                           
   792                           ; 1 bytes @ 0x19
   793  0000DB                     	ds	1
   794  0000DC                     ___fladd@aexp:
   795                           	callstack 0
   796                           
   797                           ; 1 bytes @ 0x1A
   798  0000DC                     	ds	1
   799  0000DD                     ___fladd@bexp:
   800                           	callstack 0
   801                           
   802                           ; 1 bytes @ 0x1B
   803  0000DD                     	ds	1
   804  0000DE                     ___fladd@grs:
   805                           	callstack 0
   806                           
   807                           ; 1 bytes @ 0x1C
   808  0000DE                     	ds	1
   809  0000DF                     ___fltol@sign1:
   810                           	callstack 0
   811                           
   812                           ; 1 bytes @ 0x1D
   813  0000DF                     	ds	1
   814  0000E0                     ___fltol@exp1:
   815                           	callstack 0
   816                           
   817                           ; 1 bytes @ 0x1E
   818  0000E0                     	ds	1
   819  0000E1                     
   820                           ; 1 bytes @ 0x1F
   821  0000E1                     	ds	1
   822                           
   823                           	psect	cstackCOMRAM
   824  000001                     __pcstackCOMRAM:
   825                           	callstack 0
   826  000001                     ?___awdiv:
   827                           	callstack 0
   828  000001                     ?___awmod:
   829                           	callstack 0
   830  000001                     RB4_ISR@RB4_Source:
   831                           	callstack 0
   832  000001                     RB5_ISR@RB5_Source:
   833                           	callstack 0
   834  000001                     RB6_ISR@RB6_Source:
   835                           	callstack 0
   836  000001                     I2C_SlaveSendTxData@data:
   837                           	callstack 0
   838  000001                     ___awdiv@dividend:
   839                           	callstack 0
   840  000001                     ___awmod@dividend:
   841                           	callstack 0
   842  000001                     i2gpio_pin_logic_write@pin:
   843                           	callstack 0
   844                           
   845                           ; 2 bytes @ 0x0
   846  000001                     	ds	1
   847  000002                     
   848                           ; 1 bytes @ 0x1
   849  000002                     	ds	1
   850  000003                     i2gpio_pin_logic_write@pin_logic:
   851                           	callstack 0
   852  000003                     ___awdiv@divisor:
   853                           	callstack 0
   854  000003                     ___awmod@divisor:
   855                           	callstack 0
   856                           
   857                           ; 2 bytes @ 0x2
   858  000003                     	ds	1
   859  000004                     ??i2_gpio_pin_logic_write:
   860                           
   861                           ; 1 bytes @ 0x3
   862  000004                     	ds	1
   863  000005                     ___awdiv@counter:
   864                           	callstack 0
   865  000005                     ___awmod@counter:
   866                           	callstack 0
   867                           
   868                           ; 1 bytes @ 0x4
   869  000005                     	ds	1
   870  000006                     ___awdiv@sign:
   871                           	callstack 0
   872  000006                     ___awmod@sign:
   873                           	callstack 0
   874                           
   875                           ; 1 bytes @ 0x5
   876  000006                     	ds	1
   877  000007                     ___awdiv@quotient:
   878                           	callstack 0
   879                           
   880                           ; 2 bytes @ 0x6
   881  000007                     	ds	3
   882  00000A                     seven_segment_write@seg:
   883                           	callstack 0
   884                           
   885                           ; 2 bytes @ 0x9
   886  00000A                     	ds	2
   887  00000C                     seven_segment_write@num:
   888                           	callstack 0
   889                           
   890                           ; 1 bytes @ 0xB
   891  00000C                     	ds	1
   892  00000D                     ??_seven_segment_write:
   893                           
   894                           ; 1 bytes @ 0xC
   895  00000D                     	ds	2
   896  00000F                     seven_segment_write@gpio_ret:
   897                           	callstack 0
   898                           
   899                           ; 1 bytes @ 0xE
   900  00000F                     	ds	1
   901  000010                     print_num_7seg@num:
   902                           	callstack 0
   903                           
   904                           ; 1 bytes @ 0xF
   905  000010                     	ds	1
   906  000011                     MY_I2C_slave_ISR@temp_var:
   907                           	callstack 0
   908                           
   909                           ; 1 bytes @ 0x10
   910  000011                     	ds	1
   911  000012                     ??_I2C_Isr:
   912  000012                     
   913                           ; 1 bytes @ 0x11
   914  000012                     	ds	2
   915  000014                     ??_INTERRUPT_InterruptManager:
   916                           
   917                           ; 1 bytes @ 0x13
   918  000014                     	ds	6
   919  00001A                     ?___xxtofl:
   920                           	callstack 0
   921  00001A                     I2C_SlaveSetSlaveAddr@slaveAddr:
   922                           	callstack 0
   923  00001A                     CCP_PWM_Start@_ccp_obj:
   924                           	callstack 0
   925  00001A                     CCP_Interrupt_Config@_ccp_obj:
   926                           	callstack 0
   927  00001A                     CCP_Mode_Timer_Select@_ccp_obj:
   928                           	callstack 0
   929  00001A                     gpio_pin_direction_init@pin:
   930                           	callstack 0
   931  00001A                     gpio_pin_logic_write@pin:
   932                           	callstack 0
   933  00001A                     Timer2_Init@_timer:
   934                           	callstack 0
   935  00001A                     I2C_SlaveSetIsrHandler@handler:
   936                           	callstack 0
   937  00001A                     I2C_SlaveSetReadIntHandler@handler:
   938                           	callstack 0
   939  00001A                     I2C_SlaveSetWriteIntHandler@handler:
   940                           	callstack 0
   941  00001A                     I2C_SlaveSetAddrIntHandler@handler:
   942                           	callstack 0
   943  00001A                     I2C_SlaveSetWrColIntHandler@handler:
   944                           	callstack 0
   945  00001A                     I2C_SlaveSetBusColIntHandler@handler:
   946                           	callstack 0
   947  00001A                     ___xxtofl@val:
   948                           	callstack 0
   949                           
   950                           ; 4 bytes @ 0x19
   951  00001A                     	ds	2
   952  00001C                     ??_Timer2_Init:
   953  00001C                     gpio_pin_direction_init@pin_direction:
   954                           	callstack 0
   955  00001C                     gpio_pin_logic_write@pin_logic:
   956                           	callstack 0
   957                           
   958                           ; 1 bytes @ 0x1B
   959  00001C                     	ds	1
   960  00001D                     ??_gpio_pin_logic_write:
   961  00001D                     ??_gpio_pin_direction_init:
   962  00001D                     CCP_Capture_Mode_Config@_ccp_obj:
   963                           	callstack 0
   964  00001D                     CCP_Compare_Mode_Config@_ccp_obj:
   965                           	callstack 0
   966                           
   967                           ; 2 bytes @ 0x1C
   968  00001D                     	ds	1
   969  00001E                     ??___xxtofl:
   970                           
   971                           ; 1 bytes @ 0x1D
   972  00001E                     	ds	1
   973  00001F                     ??_CCP_Capture_Mode_Config:
   974  00001F                     ??_CCP_Compare_Mode_Config:
   975                           
   976                           ; 1 bytes @ 0x1E
   977  00001F                     	ds	2
   978  000021                     CCP_Capture_Mode_Config@ret:
   979                           	callstack 0
   980  000021                     CCP_Compare_Mode_Config@ret:
   981                           	callstack 0
   982                           
   983                           ; 1 bytes @ 0x20
   984  000021                     	ds	1
   985  000022                     ___xxtofl@sign:
   986                           	callstack 0
   987                           
   988                           ; 1 bytes @ 0x21
   989  000022                     	ds	1
   990  000023                     gpio_pin_direction_init@ret:
   991                           	callstack 0
   992  000023                     gpio_pin_logic_write@ret:
   993                           	callstack 0
   994  000023                     ___xxtofl@exp:
   995                           	callstack 0
   996                           
   997                           ; 1 bytes @ 0x22
   998  000023                     	ds	1
   999  000024                     dc_motor_move_right@dc_motor:
  1000                           	callstack 0
  1001  000024                     dc_motor_stop@dc_motor:
  1002                           	callstack 0
  1003  000024                     led_on@led:
  1004                           	callstack 0
  1005  000024                     led_off@led:
  1006                           	callstack 0
  1007  000024                     gpio_pin_output_low_init@pin:
  1008                           	callstack 0
  1009  000024                     ___xxtofl@arg:
  1010                           	callstack 0
  1011                           
  1012                           ; 4 bytes @ 0x23
  1013  000024                     	ds	2
  1014  000026                     ??_gpio_pin_output_low_init:
  1015  000026                     dc_motor_move_right@gpio_ret:
  1016                           	callstack 0
  1017  000026                     dc_motor_stop@gpio_ret:
  1018                           	callstack 0
  1019  000026                     led_on@gpio_ret:
  1020                           	callstack 0
  1021  000026                     led_off@gpio_ret:
  1022                           	callstack 0
  1023                           
  1024                           ; 1 bytes @ 0x25
  1025  000026                     	ds	1
  1026  000027                     gpio_pin_output_low_init@gpio_ret:
  1027                           	callstack 0
  1028                           
  1029                           ; 1 bytes @ 0x26
  1030  000027                     	ds	1
  1031  000028                     ?___flmul:
  1032                           	callstack 0
  1033  000028                     gpio_pin_output_low_init@ret:
  1034                           	callstack 0
  1035  000028                     ___flmul@b:
  1036                           	callstack 0
  1037                           
  1038                           ; 4 bytes @ 0x27
  1039  000028                     	ds	1
  1040  000029                     seven_segment_init@seg:
  1041                           	callstack 0
  1042  000029                     dc_motor_init@dc_motor:
  1043                           	callstack 0
  1044  000029                     led_init@led:
  1045                           	callstack 0
  1046                           
  1047                           ; 2 bytes @ 0x28
  1048  000029                     	ds	2
  1049  00002B                     seven_segment_init@gpio_ret:
  1050                           	callstack 0
  1051  00002B                     dc_motor_init@gpio_ret:
  1052                           	callstack 0
  1053  00002B                     led_init@gpio_ret:
  1054                           	callstack 0
  1055                           
  1056                           ; 1 bytes @ 0x2A
  1057  00002B                     	ds	1
  1058  00002C                     ___flmul@a:
  1059                           	callstack 0
  1060                           
  1061                           ; 4 bytes @ 0x2B
  1062  00002C                     	ds	4
  1063  000030                     ??___flmul:
  1064                           
  1065                           ; 1 bytes @ 0x2F
  1066  000030                     	ds	4
  1067  000034                     ___flmul@sign:
  1068                           	callstack 0
  1069                           
  1070                           ; 1 bytes @ 0x33
  1071  000034                     	ds	1
  1072  000035                     ___flmul@aexp:
  1073                           	callstack 0
  1074                           
  1075                           ; 1 bytes @ 0x34
  1076  000035                     	ds	1
  1077  000036                     ___flmul@grs:
  1078                           	callstack 0
  1079                           
  1080                           ; 4 bytes @ 0x35
  1081  000036                     	ds	4
  1082  00003A                     ___flmul@bexp:
  1083                           	callstack 0
  1084                           
  1085                           ; 1 bytes @ 0x39
  1086  00003A                     	ds	1
  1087  00003B                     ___flmul@prod:
  1088                           	callstack 0
  1089                           
  1090                           ; 4 bytes @ 0x3A
  1091  00003B                     	ds	4
  1092  00003F                     ___flmul@temp:
  1093                           	callstack 0
  1094                           
  1095                           ; 2 bytes @ 0x3E
  1096  00003F                     	ds	2
  1097  000041                     ?___fldiv:
  1098                           	callstack 0
  1099  000041                     ___fldiv@b:
  1100                           	callstack 0
  1101                           
  1102                           ; 4 bytes @ 0x40
  1103  000041                     	ds	4
  1104  000045                     ___fldiv@a:
  1105                           	callstack 0
  1106                           
  1107                           ; 4 bytes @ 0x44
  1108  000045                     	ds	4
  1109  000049                     ??___fldiv:
  1110                           
  1111                           ; 1 bytes @ 0x48
  1112  000049                     	ds	4
  1113  00004D                     
  1114                           ; 1 bytes @ 0x4C
  1115 ;;
  1116 ;;Main: autosize = 0, tempsize = 0, incstack = 0, save=0
  1117 ;;
  1118 ;; *************** function _main *****************
  1119 ;; Defined at:
  1120 ;;		line 24 in file "app.c"
  1121 ;; Parameters:    Size  Location     Type
  1122 ;;		None
  1123 ;; Auto vars:     Size  Location     Type
  1124 ;;		None
  1125 ;; Return value:  Size  Location     Type
  1126 ;;                  1    wreg      void 
  1127 ;; Registers used:
  1128 ;;		wreg, fsr1l, fsr1h, fsr2l, fsr2h, status,2, status,0, prodl, prodh, cstack
  1129 ;; Tracked objects:
  1130 ;;		On entry : 0/0
  1131 ;;		On exit  : 0/0
  1132 ;;		Unchanged: 0/0
  1133 ;; Data sizes:     COMRAM   BANK0   BANK1   BANK2   BANK3   BANK4   BANK5   BANK6   BANK7   BANK8   BANK9  BANK10  BANK1
      +1  BANK12  BANK13  BANK14  BANK15
  1134 ;;      Params:         0       0       0       0       0       0       0       0       0       0       0       0       
      +0       0       0       0       0
  1135 ;;      Locals:         0       0       1       0       0       0       0       0       0       0       0       0       
      +0       0       0       0       0
  1136 ;;      Temps:          0       0       0       0       0       0       0       0       0       0       0       0       
      +0       0       0       0       0
  1137 ;;      Totals:         0       0       1       0       0       0       0       0       0       0       0       0       
      +0       0       0       0       0
  1138 ;;Total ram usage:        1 bytes
  1139 ;; Hardware stack levels required when called: 11
  1140 ;; This function calls:
  1141 ;;		_CCP_PWM_Set_Duty
  1142 ;;		_CCP_PWM_Start
  1143 ;;		_I2C_Open
  1144 ;;		_I2C_SlaveSetReadIntHandler
  1145 ;;		_Initialize
  1146 ;;		___flmul
  1147 ;;		___fltol
  1148 ;;		___xxtofl
  1149 ;;		_dc_motor_move_right
  1150 ;;		_dc_motor_stop
  1151 ;;		_led_off
  1152 ;;		_led_on
  1153 ;; This function is called by:
  1154 ;;		Startup code after reset
  1155 ;; This function uses a non-reentrant model
  1156 ;;
  1157                           
  1158                           	psect	text0
  1159  002894                     __ptext0:
  1160                           	callstack 0
  1161  002894                     _main:
  1162                           	callstack 20
  1163  002894                     
  1164                           ;app.c: 28:     (INTCONbits.GIE=1);
  1165  002894  8EF2               	bsf	242,7,c	;volatile
  1166                           
  1167                           ;app.c: 30:     (INTCONbits.PEIE=1);
  1168  002896  8CF2               	bsf	242,6,c	;volatile
  1169  002898                     
  1170                           ;app.c: 32:     Initialize();
  1171  002898  EC61  F019         	call	_Initialize	;wreg free
  1172  00289C                     
  1173                           ;app.c: 33:     I2C_Open();
  1174  00289C  EC07  F01A         	call	_I2C_Open	;wreg free
  1175  0028A0                     
  1176                           ;app.c: 34:     I2C_SlaveSetReadIntHandler(MY_I2C_slave_ISR);
  1177  0028A0  0E36               	movlw	low _MY_I2C_slave_ISR
  1178  0028A2  6E1A               	movwf	I2C_SlaveSetReadIntHandler@handler^0,c
  1179  0028A4  0E38               	movlw	high _MY_I2C_slave_ISR
  1180  0028A6  6E1B               	movwf	(I2C_SlaveSetReadIntHandler@handler+1)^0,c
  1181  0028A8  ECCC  F01C         	call	_I2C_SlaveSetReadIntHandler	;wreg free
  1182  0028AC                     l10595:
  1183                           
  1184                           ;app.c: 38:     {;app.c: 39:         if(var_slave>=30){
  1185  0028AC  0E1D               	movlw	29
  1186  0028AE  644D               	cpfsgt	_var_slave^0,c	;volatile
  1187  0028B0  EF5C  F014         	goto	u10281
  1188  0028B4  EF5E  F014         	goto	u10280
  1189  0028B8                     u10281:
  1190  0028B8  EFA7  F014         	goto	l10607
  1191  0028BC                     u10280:
  1192  0028BC                     
  1193                           ;app.c: 40:             dc_motor_move_right(&motor1);
  1194  0028BC  0EF9               	movlw	low _motor1
  1195  0028BE  6E24               	movwf	dc_motor_move_right@dc_motor^0,c
  1196  0028C0  0E00               	movlw	high _motor1
  1197  0028C2  6E25               	movwf	(dc_motor_move_right@dc_motor+1)^0,c
  1198  0028C4  ECE2  F01A         	call	_dc_motor_move_right	;wreg free
  1199                           
  1200                           ;app.c: 41:             dc_motor_stop(&motor2);
  1201  0028C8  0EF6               	movlw	low _motor2
  1202  0028CA  6E24               	movwf	dc_motor_stop@dc_motor^0,c
  1203  0028CC  0E00               	movlw	high _motor2
  1204  0028CE  6E25               	movwf	(dc_motor_stop@dc_motor+1)^0,c
  1205  0028D0  ECB8  F01A         	call	_dc_motor_stop	;wreg free
  1206  0028D4                     
  1207                           ;app.c: 42:             led_on(&led_blue);
  1208  0028D4  0EFC               	movlw	low _led_blue
  1209  0028D6  6E24               	movwf	led_on@led^0,c
  1210  0028D8  0E00               	movlw	high _led_blue
  1211  0028DA  6E25               	movwf	(led_on@led+1)^0,c
  1212  0028DC  EC64  F01A         	call	_led_on	;wreg free
  1213  0028E0                     
  1214                           ;app.c: 43:             CCP_PWM_Set_Duty(&ccp1,var_slave*2.5);
  1215  0028E0  0E00               	movlw	0
  1216  0028E2  6E2C               	movwf	___flmul@a^0,c
  1217  0028E4  0E00               	movlw	0
  1218  0028E6  6E2D               	movwf	(___flmul@a+1)^0,c
  1219  0028E8  0E20               	movlw	32
  1220  0028EA  6E2E               	movwf	(___flmul@a+2)^0,c
  1221  0028EC  0E40               	movlw	64
  1222  0028EE  6E2F               	movwf	(___flmul@a+3)^0,c
  1223  0028F0  504D               	movf	_var_slave^0,w,c	;volatile
  1224  0028F2  6E1A               	movwf	___xxtofl@val^0,c
  1225  0028F4  6A1B               	clrf	(___xxtofl@val+1)^0,c
  1226  0028F6  6A1C               	clrf	(___xxtofl@val+2)^0,c
  1227  0028F8  6A1D               	clrf	(___xxtofl@val+3)^0,c
  1228  0028FA  0E01               	movlw	1
  1229  0028FC  ECA1  F010         	call	___xxtofl
  1230  002900  C01A  F028         	movff	?___xxtofl,___flmul@b
  1231  002904  C01B  F029         	movff	?___xxtofl+1,___flmul@b+1
  1232  002908  C01C  F02A         	movff	?___xxtofl+2,___flmul@b+2
  1233  00290C  C01D  F02B         	movff	?___xxtofl+3,___flmul@b+3
  1234  002910  EC64  F00A         	call	___flmul	;wreg free
  1235  002914  C028  F133         	movff	?___flmul,___fltol@f1
  1236  002918  C029  F134         	movff	?___flmul+1,___fltol@f1+1
  1237  00291C  C02A  F135         	movff	?___flmul+2,___fltol@f1+2
  1238  002920  C02B  F136         	movff	?___flmul+3,___fltol@f1+3
  1239  002924  ECD0  F016         	call	___fltol	;wreg free
  1240  002928  0101               	movlb	1	; () banked
  1241  00292A  5133               	movf	?___fltol& (0+255),w,b
  1242  00292C  6F49               	movwf	_main$5877& (0+255),b
  1243  00292E                     
  1244                           ; BSR set to: 1
  1245                           ;app.c: 43:             CCP_PWM_Set_Duty(&ccp1,var_slave*2.5);
  1246  00292E  0E1A               	movlw	low _ccp1
  1247  002930  6F3B               	movwf	CCP_PWM_Set_Duty@_ccp_obj& (0+255),b
  1248  002932  0E01               	movlw	high _ccp1
  1249  002934  6F3C               	movwf	(CCP_PWM_Set_Duty@_ccp_obj+1)& (0+255),b
  1250  002936  C149  F13D         	movff	_main$5877,CCP_PWM_Set_Duty@_duty
  1251  00293A  EC7B  F011         	call	_CCP_PWM_Set_Duty	;wreg free
  1252  00293E                     
  1253                           ;app.c: 44:             CCP_PWM_Start(&ccp1);
  1254  00293E  0E1A               	movlw	low _ccp1
  1255  002940  6E1A               	movwf	CCP_PWM_Start@_ccp_obj^0,c
  1256  002942  0E01               	movlw	high _ccp1
  1257  002944  6E1B               	movwf	(CCP_PWM_Start@_ccp_obj+1)^0,c
  1258  002946  EC36  F01A         	call	_CCP_PWM_Start	;wreg free
  1259                           
  1260                           ;app.c: 45:         }
  1261  00294A  EF56  F014         	goto	l10595
  1262  00294E                     l10607:
  1263  00294E  0E1E               	movlw	30
  1264  002950  604D               	cpfslt	_var_slave^0,c	;volatile
  1265  002952  EFAD  F014         	goto	u10291
  1266  002956  EFAF  F014         	goto	u10290
  1267  00295A                     u10291:
  1268  00295A  EFD1  F014         	goto	l10617
  1269  00295E                     u10290:
  1270  00295E  0E19               	movlw	25
  1271  002960  644D               	cpfsgt	_var_slave^0,c	;volatile
  1272  002962  EFB5  F014         	goto	u10301
  1273  002966  EFB7  F014         	goto	u10300
  1274  00296A                     u10301:
  1275  00296A  EFD1  F014         	goto	l10617
  1276  00296E                     u10300:
  1277  00296E                     
  1278                           ;app.c: 47:             dc_motor_stop(&motor1);
  1279  00296E  0EF9               	movlw	low _motor1
  1280  002970  6E24               	movwf	dc_motor_stop@dc_motor^0,c
  1281  002972  0E00               	movlw	high _motor1
  1282  002974  6E25               	movwf	(dc_motor_stop@dc_motor+1)^0,c
  1283  002976  ECB8  F01A         	call	_dc_motor_stop	;wreg free
  1284                           
  1285                           ;app.c: 48:             dc_motor_stop(&motor2);
  1286  00297A  0EF6               	movlw	low _motor2
  1287  00297C  6E24               	movwf	dc_motor_stop@dc_motor^0,c
  1288  00297E  0E00               	movlw	high _motor2
  1289  002980  6E25               	movwf	(dc_motor_stop@dc_motor+1)^0,c
  1290  002982  ECB8  F01A         	call	_dc_motor_stop	;wreg free
  1291  002986                     
  1292                           ;app.c: 49:             led_off(&led_blue);
  1293  002986  0EFC               	movlw	low _led_blue
  1294  002988  6E24               	movwf	led_off@led^0,c
  1295  00298A  0E00               	movlw	high _led_blue
  1296  00298C  6E25               	movwf	(led_off@led+1)^0,c
  1297  00298E  EC8E  F01A         	call	_led_off	;wreg free
  1298  002992                     
  1299                           ;app.c: 50:             led_off(&led_red);
  1300  002992  0EFE               	movlw	low _led_red
  1301  002994  6E24               	movwf	led_off@led^0,c
  1302  002996  0E00               	movlw	high _led_red
  1303  002998  6E25               	movwf	(led_off@led+1)^0,c
  1304  00299A  EC8E  F01A         	call	_led_off	;wreg free
  1305                           
  1306                           ;app.c: 52:         }
  1307  00299E  EF56  F014         	goto	l10595
  1308  0029A2                     l10617:
  1309  0029A2  0E1A               	movlw	26
  1310  0029A4  604D               	cpfslt	_var_slave^0,c	;volatile
  1311  0029A6  EFD7  F014         	goto	u10311
  1312  0029AA  EFD9  F014         	goto	u10310
  1313  0029AE                     u10311:
  1314  0029AE  EFED  F014         	goto	l1907
  1315  0029B2                     u10310:
  1316  0029B2                     
  1317                           ;app.c: 54:             dc_motor_move_right(&motor2);
  1318  0029B2  0EF6               	movlw	low _motor2
  1319  0029B4  6E24               	movwf	dc_motor_move_right@dc_motor^0,c
  1320  0029B6  0E00               	movlw	high _motor2
  1321  0029B8  6E25               	movwf	(dc_motor_move_right@dc_motor+1)^0,c
  1322  0029BA  ECE2  F01A         	call	_dc_motor_move_right	;wreg free
  1323                           
  1324                           ;app.c: 55:             dc_motor_stop(&motor1);
  1325  0029BE  0EF9               	movlw	low _motor1
  1326  0029C0  6E24               	movwf	dc_motor_stop@dc_motor^0,c
  1327  0029C2  0E00               	movlw	high _motor1
  1328  0029C4  6E25               	movwf	(dc_motor_stop@dc_motor+1)^0,c
  1329  0029C6  ECB8  F01A         	call	_dc_motor_stop	;wreg free
  1330  0029CA                     
  1331                           ;app.c: 56:             led_on(&led_red);
  1332  0029CA  0EFE               	movlw	low _led_red
  1333  0029CC  6E24               	movwf	led_on@led^0,c
  1334  0029CE  0E00               	movlw	high _led_red
  1335  0029D0  6E25               	movwf	(led_on@led+1)^0,c
  1336  0029D2  EC64  F01A         	call	_led_on	;wreg free
  1337  0029D6  EF56  F014         	goto	l10595
  1338  0029DA                     l1907:
  1339  0029DA  EF56  F014         	goto	l10595
  1340  0029DE  EF07  F000         	goto	start
  1341  0029E2                     __end_of_main:
  1342                           	callstack 0
  1343                           
  1344 ;; *************** function _led_on *****************
  1345 ;; Defined at:
  1346 ;;		line 41 in file "ECUAL/LED/led.c"
  1347 ;; Parameters:    Size  Location     Type
  1348 ;;  led             2   35[COMRAM] PTR struct .
  1349 ;;		 -> led_blue(2), led_red(2), 
  1350 ;; Auto vars:     Size  Location     Type
  1351 ;;  ret             1    0        unsigned char 
  1352 ;;  gpio_ret        1   37[COMRAM] unsigned char 
  1353 ;; Return value:  Size  Location     Type
  1354 ;;                  1    wreg      unsigned char 
  1355 ;; Registers used:
  1356 ;;		wreg, fsr1l, fsr1h, fsr2l, fsr2h, status,2, status,0, prodl, prodh, cstack
  1357 ;; Tracked objects:
  1358 ;;		On entry : 0/0
  1359 ;;		On exit  : 0/0
  1360 ;;		Unchanged: 0/0
  1361 ;; Data sizes:     COMRAM   BANK0   BANK1   BANK2   BANK3   BANK4   BANK5   BANK6   BANK7   BANK8   BANK9  BANK10  BANK1
      +1  BANK12  BANK13  BANK14  BANK15
  1362 ;;      Params:         2       0       0       0       0       0       0       0       0       0       0       0       
      +0       0       0       0       0
  1363 ;;      Locals:         1       0       0       0       0       0       0       0       0       0       0       0       
      +0       0       0       0       0
  1364 ;;      Temps:          0       0       0       0       0       0       0       0       0       0       0       0       
      +0       0       0       0       0
  1365 ;;      Totals:         3       0       0       0       0       0       0       0       0       0       0       0       
      +0       0       0       0       0
  1366 ;;Total ram usage:        3 bytes
  1367 ;; Hardware stack levels used: 1
  1368 ;; Hardware stack levels required when called: 8
  1369 ;; This function calls:
  1370 ;;		_gpio_pin_logic_write
  1371 ;; This function is called by:
  1372 ;;		_main
  1373 ;; This function uses a non-reentrant model
  1374 ;;
  1375                           
  1376                           	psect	text1
  1377  0034C8                     __ptext1:
  1378                           	callstack 0
  1379  0034C8                     _led_on:
  1380                           	callstack 22
  1381  0034C8                     
  1382                           ;ECUAL/LED/led.c: 44:     Std_ReturnType gpio_ret=(Std_ReturnType)0x00;
  1383  0034C8  0E00               	movlw	0
  1384  0034CA  6E26               	movwf	led_on@gpio_ret^0,c
  1385  0034CC                     
  1386                           ;ECUAL/LED/led.c: 45:     if(((void*)0)==led){
  1387  0034CC  5024               	movf	led_on@led^0,w,c
  1388  0034CE  1025               	iorwf	(led_on@led+1)^0,w,c
  1389  0034D0  A4D8               	btfss	status,2,c
  1390  0034D2  EF6D  F01A         	goto	u9791
  1391  0034D6  EF6F  F01A         	goto	u9790
  1392  0034DA                     u9791:
  1393  0034DA  EF71  F01A         	goto	l10065
  1394  0034DE                     u9790:
  1395  0034DE                     
  1396                           ;ECUAL/LED/led.c: 47:     }
  1397  0034DE  EF8D  F01A         	goto	l257
  1398  0034E2                     l10065:
  1399  0034E2  C024  F01A         	movff	led_on@led,gpio_pin_logic_write@pin
  1400  0034E6  C025  F01B         	movff	led_on@led+1,gpio_pin_logic_write@pin+1
  1401  0034EA  0E01               	movlw	1
  1402  0034EC  6E1C               	movwf	gpio_pin_logic_write@pin_logic^0,c
  1403  0034EE  ECF8  F012         	call	_gpio_pin_logic_write	;wreg free
  1404  0034F2                     
  1405                           ;ECUAL/LED/led.c: 50:         led->led_state=led->led_pin.logic;
  1406  0034F2  EE20 F001          	lfsr	2,1
  1407  0034F6  5024               	movf	led_on@led^0,w,c
  1408  0034F8  26D9               	addwf	fsr2l,f,c
  1409  0034FA  5025               	movf	(led_on@led+1)^0,w,c
  1410  0034FC  22DA               	addwfc	fsr2h,f,c
  1411  0034FE  C024  FFE1         	movff	led_on@led,fsr1l
  1412  003502  C025  FFE2         	movff	led_on@led+1,fsr1h
  1413  003506  BEE7               	btfsc	indf1,7,c
  1414  003508  EF88  F01A         	goto	u9801
  1415  00350C  EF8B  F01A         	goto	u9800
  1416  003510                     u9801:
  1417  003510  0E01               	movlw	1
  1418  003512  EF8C  F01A         	goto	u9806
  1419  003516                     u9800:
  1420  003516  0E00               	movlw	0
  1421  003518                     u9806:
  1422  003518  6EDF               	movwf	indf2,c
  1423  00351A                     l257:
  1424  00351A  0012               	return		;funcret
  1425  00351C                     __end_of_led_on:
  1426                           	callstack 0
  1427                           
  1428 ;; *************** function _led_off *****************
  1429 ;; Defined at:
  1430 ;;		line 65 in file "ECUAL/LED/led.c"
  1431 ;; Parameters:    Size  Location     Type
  1432 ;;  led             2   35[COMRAM] PTR struct .
  1433 ;;		 -> led_blue(2), led_red(2), 
  1434 ;; Auto vars:     Size  Location     Type
  1435 ;;  ret             1    0        unsigned char 
  1436 ;;  gpio_ret        1   37[COMRAM] unsigned char 
  1437 ;; Return value:  Size  Location     Type
  1438 ;;                  1    wreg      unsigned char 
  1439 ;; Registers used:
  1440 ;;		wreg, fsr1l, fsr1h, fsr2l, fsr2h, status,2, status,0, prodl, prodh, cstack
  1441 ;; Tracked objects:
  1442 ;;		On entry : 0/0
  1443 ;;		On exit  : 0/0
  1444 ;;		Unchanged: 0/0
  1445 ;; Data sizes:     COMRAM   BANK0   BANK1   BANK2   BANK3   BANK4   BANK5   BANK6   BANK7   BANK8   BANK9  BANK10  BANK1
      +1  BANK12  BANK13  BANK14  BANK15
  1446 ;;      Params:         2       0       0       0       0       0       0       0       0       0       0       0       
      +0       0       0       0       0
  1447 ;;      Locals:         1       0       0       0       0       0       0       0       0       0       0       0       
      +0       0       0       0       0
  1448 ;;      Temps:          0       0       0       0       0       0       0       0       0       0       0       0       
      +0       0       0       0       0
  1449 ;;      Totals:         3       0       0       0       0       0       0       0       0       0       0       0       
      +0       0       0       0       0
  1450 ;;Total ram usage:        3 bytes
  1451 ;; Hardware stack levels used: 1
  1452 ;; Hardware stack levels required when called: 8
  1453 ;; This function calls:
  1454 ;;		_gpio_pin_logic_write
  1455 ;; This function is called by:
  1456 ;;		_main
  1457 ;; This function uses a non-reentrant model
  1458 ;;
  1459                           
  1460                           	psect	text2
  1461  00351C                     __ptext2:
  1462                           	callstack 0
  1463  00351C                     _led_off:
  1464                           	callstack 22
  1465  00351C                     
  1466                           ;ECUAL/LED/led.c: 68:     Std_ReturnType gpio_ret=(Std_ReturnType)0x00;
  1467  00351C  0E00               	movlw	0
  1468  00351E  6E26               	movwf	led_off@gpio_ret^0,c
  1469  003520                     
  1470                           ;ECUAL/LED/led.c: 69:     if(((void*)0)==led){
  1471  003520  5024               	movf	led_off@led^0,w,c
  1472  003522  1025               	iorwf	(led_off@led+1)^0,w,c
  1473  003524  A4D8               	btfss	status,2,c
  1474  003526  EF97  F01A         	goto	u9811
  1475  00352A  EF99  F01A         	goto	u9810
  1476  00352E                     u9811:
  1477  00352E  EF9B  F01A         	goto	l10079
  1478  003532                     u9810:
  1479  003532                     
  1480                           ;ECUAL/LED/led.c: 71:     }
  1481  003532  EFB7  F01A         	goto	l262
  1482  003536                     l10079:
  1483  003536  C024  F01A         	movff	led_off@led,gpio_pin_logic_write@pin
  1484  00353A  C025  F01B         	movff	led_off@led+1,gpio_pin_logic_write@pin+1
  1485  00353E  0E00               	movlw	0
  1486  003540  6E1C               	movwf	gpio_pin_logic_write@pin_logic^0,c
  1487  003542  ECF8  F012         	call	_gpio_pin_logic_write	;wreg free
  1488  003546                     
  1489                           ;ECUAL/LED/led.c: 74:         led->led_state=led->led_pin.logic;
  1490  003546  EE20 F001          	lfsr	2,1
  1491  00354A  5024               	movf	led_off@led^0,w,c
  1492  00354C  26D9               	addwf	fsr2l,f,c
  1493  00354E  5025               	movf	(led_off@led+1)^0,w,c
  1494  003550  22DA               	addwfc	fsr2h,f,c
  1495  003552  C024  FFE1         	movff	led_off@led,fsr1l
  1496  003556  C025  FFE2         	movff	led_off@led+1,fsr1h
  1497  00355A  BEE7               	btfsc	indf1,7,c
  1498  00355C  EFB2  F01A         	goto	u9821
  1499  003560  EFB5  F01A         	goto	u9820
  1500  003564                     u9821:
  1501  003564  0E01               	movlw	1
  1502  003566  EFB6  F01A         	goto	u9826
  1503  00356A                     u9820:
  1504  00356A  0E00               	movlw	0
  1505  00356C                     u9826:
  1506  00356C  6EDF               	movwf	indf2,c
  1507  00356E                     l262:
  1508  00356E  0012               	return		;funcret
  1509  003570                     __end_of_led_off:
  1510                           	callstack 0
  1511                           
  1512 ;; *************** function _dc_motor_stop *****************
  1513 ;; Defined at:
  1514 ;;		line 91 in file "ECUAL/DC_MOTOR/dc_motor.c"
  1515 ;; Parameters:    Size  Location     Type
  1516 ;;  dc_motor        2   35[COMRAM] PTR struct .
  1517 ;;		 -> motor2(3), motor1(3), 
  1518 ;; Auto vars:     Size  Location     Type
  1519 ;;  ret             1    0        unsigned char 
  1520 ;;  gpio_ret        1   37[COMRAM] unsigned char 
  1521 ;; Return value:  Size  Location     Type
  1522 ;;                  1    wreg      unsigned char 
  1523 ;; Registers used:
  1524 ;;		wreg, fsr2l, fsr2h, status,2, status,0, prodl, prodh, cstack
  1525 ;; Tracked objects:
  1526 ;;		On entry : 0/0
  1527 ;;		On exit  : 0/0
  1528 ;;		Unchanged: 0/0
  1529 ;; Data sizes:     COMRAM   BANK0   BANK1   BANK2   BANK3   BANK4   BANK5   BANK6   BANK7   BANK8   BANK9  BANK10  BANK1
      +1  BANK12  BANK13  BANK14  BANK15
  1530 ;;      Params:         2       0       0       0       0       0       0       0       0       0       0       0       
      +0       0       0       0       0
  1531 ;;      Locals:         1       0       0       0       0       0       0       0       0       0       0       0       
      +0       0       0       0       0
  1532 ;;      Temps:          0       0       0       0       0       0       0       0       0       0       0       0       
      +0       0       0       0       0
  1533 ;;      Totals:         3       0       0       0       0       0       0       0       0       0       0       0       
      +0       0       0       0       0
  1534 ;;Total ram usage:        3 bytes
  1535 ;; Hardware stack levels used: 1
  1536 ;; Hardware stack levels required when called: 8
  1537 ;; This function calls:
  1538 ;;		_gpio_pin_logic_write
  1539 ;; This function is called by:
  1540 ;;		_main
  1541 ;; This function uses a non-reentrant model
  1542 ;;
  1543                           
  1544                           	psect	text3
  1545  003570                     __ptext3:
  1546                           	callstack 0
  1547  003570                     _dc_motor_stop:
  1548                           	callstack 22
  1549  003570                     
  1550                           ;ECUAL/DC_MOTOR/dc_motor.c: 94:     Std_ReturnType gpio_ret=(Std_ReturnType)0x00;
  1551  003570  0E00               	movlw	0
  1552  003572  6E26               	movwf	dc_motor_stop@gpio_ret^0,c
  1553  003574                     
  1554                           ;ECUAL/DC_MOTOR/dc_motor.c: 95:     if(((void*)0)==dc_motor){
  1555  003574  5024               	movf	dc_motor_stop@dc_motor^0,w,c
  1556  003576  1025               	iorwf	(dc_motor_stop@dc_motor+1)^0,w,c
  1557  003578  A4D8               	btfss	status,2,c
  1558  00357A  EFC1  F01A         	goto	u9701
  1559  00357E  EFC3  F01A         	goto	u9700
  1560  003582                     u9701:
  1561  003582  EFC5  F01A         	goto	l10001
  1562  003586                     u9700:
  1563  003586                     
  1564                           ;ECUAL/DC_MOTOR/dc_motor.c: 97:     }
  1565  003586  EFE1  F01A         	goto	l71
  1566  00358A                     l10001:
  1567                           
  1568                           ;ECUAL/DC_MOTOR/dc_motor.c: 99:         gpio_ret =gpio_pin_logic_write(&(dc_motor->dc_mo
      +                          tor_pin0),LOW);
  1569  00358A  C024  F01A         	movff	dc_motor_stop@dc_motor,gpio_pin_logic_write@pin
  1570  00358E  C025  F01B         	movff	dc_motor_stop@dc_motor+1,gpio_pin_logic_write@pin+1
  1571  003592  0E00               	movlw	0
  1572  003594  6E1C               	movwf	gpio_pin_logic_write@pin_logic^0,c
  1573  003596  ECF8  F012         	call	_gpio_pin_logic_write	;wreg free
  1574  00359A  6E26               	movwf	dc_motor_stop@gpio_ret^0,c
  1575                           
  1576                           ;ECUAL/DC_MOTOR/dc_motor.c: 100:         gpio_ret =gpio_pin_logic_write(&(dc_motor->dc_m
      +                          otor_pin1),LOW);
  1577  00359C  0E01               	movlw	1
  1578  00359E  2424               	addwf	dc_motor_stop@dc_motor^0,w,c
  1579  0035A0  6E1A               	movwf	gpio_pin_logic_write@pin^0,c
  1580  0035A2  0E00               	movlw	0
  1581  0035A4  2025               	addwfc	(dc_motor_stop@dc_motor+1)^0,w,c
  1582  0035A6  6E1B               	movwf	(gpio_pin_logic_write@pin+1)^0,c
  1583  0035A8  0E00               	movlw	0
  1584  0035AA  6E1C               	movwf	gpio_pin_logic_write@pin_logic^0,c
  1585  0035AC  ECF8  F012         	call	_gpio_pin_logic_write	;wreg free
  1586  0035B0  6E26               	movwf	dc_motor_stop@gpio_ret^0,c
  1587  0035B2                     
  1588                           ;ECUAL/DC_MOTOR/dc_motor.c: 101:         dc_motor->dc_motor_state=DC_MOTOR_OFF;
  1589  0035B2  EE20 F002          	lfsr	2,2
  1590  0035B6  5024               	movf	dc_motor_stop@dc_motor^0,w,c
  1591  0035B8  26D9               	addwf	fsr2l,f,c
  1592  0035BA  5025               	movf	(dc_motor_stop@dc_motor+1)^0,w,c
  1593  0035BC  22DA               	addwfc	fsr2h,f,c
  1594  0035BE  0E00               	movlw	0
  1595  0035C0  6EDF               	movwf	indf2,c
  1596  0035C2                     l71:
  1597  0035C2  0012               	return		;funcret
  1598  0035C4                     __end_of_dc_motor_stop:
  1599                           	callstack 0
  1600                           
  1601 ;; *************** function _dc_motor_move_right *****************
  1602 ;; Defined at:
  1603 ;;		line 41 in file "ECUAL/DC_MOTOR/dc_motor.c"
  1604 ;; Parameters:    Size  Location     Type
  1605 ;;  dc_motor        2   35[COMRAM] PTR struct .
  1606 ;;		 -> motor2(3), motor1(3), 
  1607 ;; Auto vars:     Size  Location     Type
  1608 ;;  ret             1    0        unsigned char 
  1609 ;;  gpio_ret        1   37[COMRAM] unsigned char 
  1610 ;; Return value:  Size  Location     Type
  1611 ;;                  1    wreg      unsigned char 
  1612 ;; Registers used:
  1613 ;;		wreg, fsr2l, fsr2h, status,2, status,0, prodl, prodh, cstack
  1614 ;; Tracked objects:
  1615 ;;		On entry : 0/0
  1616 ;;		On exit  : 0/0
  1617 ;;		Unchanged: 0/0
  1618 ;; Data sizes:     COMRAM   BANK0   BANK1   BANK2   BANK3   BANK4   BANK5   BANK6   BANK7   BANK8   BANK9  BANK10  BANK1
      +1  BANK12  BANK13  BANK14  BANK15
  1619 ;;      Params:         2       0       0       0       0       0       0       0       0       0       0       0       
      +0       0       0       0       0
  1620 ;;      Locals:         1       0       0       0       0       0       0       0       0       0       0       0       
      +0       0       0       0       0
  1621 ;;      Temps:          0       0       0       0       0       0       0       0       0       0       0       0       
      +0       0       0       0       0
  1622 ;;      Totals:         3       0       0       0       0       0       0       0       0       0       0       0       
      +0       0       0       0       0
  1623 ;;Total ram usage:        3 bytes
  1624 ;; Hardware stack levels used: 1
  1625 ;; Hardware stack levels required when called: 8
  1626 ;; This function calls:
  1627 ;;		_gpio_pin_logic_write
  1628 ;; This function is called by:
  1629 ;;		_main
  1630 ;; This function uses a non-reentrant model
  1631 ;;
  1632                           
  1633                           	psect	text4
  1634  0035C4                     __ptext4:
  1635                           	callstack 0
  1636  0035C4                     _dc_motor_move_right:
  1637                           	callstack 22
  1638  0035C4                     
  1639                           ;ECUAL/DC_MOTOR/dc_motor.c: 44:     Std_ReturnType gpio_ret=(Std_ReturnType)0x00;
  1640  0035C4  0E00               	movlw	0
  1641  0035C6  6E26               	movwf	dc_motor_move_right@gpio_ret^0,c
  1642  0035C8                     
  1643                           ;ECUAL/DC_MOTOR/dc_motor.c: 45:     if(((void*)0)==dc_motor){
  1644  0035C8  5024               	movf	dc_motor_move_right@dc_motor^0,w,c
  1645  0035CA  1025               	iorwf	(dc_motor_move_right@dc_motor+1)^0,w,c
  1646  0035CC  A4D8               	btfss	status,2,c
  1647  0035CE  EFEB  F01A         	goto	u9691
  1648  0035D2  EFED  F01A         	goto	u9690
  1649  0035D6                     u9691:
  1650  0035D6  EFEF  F01A         	goto	l9987
  1651  0035DA                     u9690:
  1652  0035DA                     
  1653                           ;ECUAL/DC_MOTOR/dc_motor.c: 47:     }
  1654  0035DA  EF0B  F01B         	goto	l61
  1655  0035DE                     l9987:
  1656                           
  1657                           ;ECUAL/DC_MOTOR/dc_motor.c: 49:         gpio_ret =gpio_pin_logic_write(&(dc_motor->dc_mo
      +                          tor_pin0),HIGH);
  1658  0035DE  C024  F01A         	movff	dc_motor_move_right@dc_motor,gpio_pin_logic_write@pin
  1659  0035E2  C025  F01B         	movff	dc_motor_move_right@dc_motor+1,gpio_pin_logic_write@pin+1
  1660  0035E6  0E01               	movlw	1
  1661  0035E8  6E1C               	movwf	gpio_pin_logic_write@pin_logic^0,c
  1662  0035EA  ECF8  F012         	call	_gpio_pin_logic_write	;wreg free
  1663  0035EE  6E26               	movwf	dc_motor_move_right@gpio_ret^0,c
  1664                           
  1665                           ;ECUAL/DC_MOTOR/dc_motor.c: 50:         gpio_ret =gpio_pin_logic_write(&(dc_motor->dc_mo
      +                          tor_pin1),LOW);
  1666  0035F0  0E01               	movlw	1
  1667  0035F2  2424               	addwf	dc_motor_move_right@dc_motor^0,w,c
  1668  0035F4  6E1A               	movwf	gpio_pin_logic_write@pin^0,c
  1669  0035F6  0E00               	movlw	0
  1670  0035F8  2025               	addwfc	(dc_motor_move_right@dc_motor+1)^0,w,c
  1671  0035FA  6E1B               	movwf	(gpio_pin_logic_write@pin+1)^0,c
  1672  0035FC  0E00               	movlw	0
  1673  0035FE  6E1C               	movwf	gpio_pin_logic_write@pin_logic^0,c
  1674  003600  ECF8  F012         	call	_gpio_pin_logic_write	;wreg free
  1675  003604  6E26               	movwf	dc_motor_move_right@gpio_ret^0,c
  1676  003606                     
  1677                           ;ECUAL/DC_MOTOR/dc_motor.c: 51:         dc_motor->dc_motor_state=DC_MOTOR_ON;
  1678  003606  EE20 F002          	lfsr	2,2
  1679  00360A  5024               	movf	dc_motor_move_right@dc_motor^0,w,c
  1680  00360C  26D9               	addwf	fsr2l,f,c
  1681  00360E  5025               	movf	(dc_motor_move_right@dc_motor+1)^0,w,c
  1682  003610  22DA               	addwfc	fsr2h,f,c
  1683  003612  0E01               	movlw	1
  1684  003614  6EDF               	movwf	indf2,c
  1685  003616                     l61:
  1686  003616  0012               	return		;funcret
  1687  003618                     __end_of_dc_motor_move_right:
  1688                           	callstack 0
  1689                           
  1690 ;; *************** function _Initialize *****************
  1691 ;; Defined at:
  1692 ;;		line 46 in file "mcc_generated_files/init.c"
  1693 ;; Parameters:    Size  Location     Type
  1694 ;;		None
  1695 ;; Auto vars:     Size  Location     Type
  1696 ;;		None
  1697 ;; Return value:  Size  Location     Type
  1698 ;;                  1    wreg      void 
  1699 ;; Registers used:
  1700 ;;		wreg, fsr1l, fsr1h, fsr2l, fsr2h, status,2, status,0, prodl, prodh, cstack
  1701 ;; Tracked objects:
  1702 ;;		On entry : 0/0
  1703 ;;		On exit  : 0/0
  1704 ;;		Unchanged: 0/0
  1705 ;; Data sizes:     COMRAM   BANK0   BANK1   BANK2   BANK3   BANK4   BANK5   BANK6   BANK7   BANK8   BANK9  BANK10  BANK1
      +1  BANK12  BANK13  BANK14  BANK15
  1706 ;;      Params:         0       0       0       0       0       0       0       0       0       0       0       0       
      +0       0       0       0       0
  1707 ;;      Locals:         0       0       0       0       0       0       0       0       0       0       0       0       
      +0       0       0       0       0
  1708 ;;      Temps:          0       0       0       0       0       0       0       0       0       0       0       0       
      +0       0       0       0       0
  1709 ;;      Totals:         0       0       0       0       0       0       0       0       0       0       0       0       
      +0       0       0       0       0
  1710 ;;Total ram usage:        0 bytes
  1711 ;; Hardware stack levels used: 1
  1712 ;; Hardware stack levels required when called: 10
  1713 ;; This function calls:
  1714 ;;		_CCP_Init
  1715 ;;		_I2C_Initialize
  1716 ;;		_INTERRUPT_Initialize
  1717 ;;		_PIN_MANAGER_Initialize
  1718 ;;		_Timer2_Init
  1719 ;;		_dc_motor_init
  1720 ;;		_led_init
  1721 ;;		_seven_segment_init
  1722 ;; This function is called by:
  1723 ;;		_main
  1724 ;; This function uses a non-reentrant model
  1725 ;;
  1726                           
  1727                           	psect	text5
  1728  0032C2                     __ptext5:
  1729                           	callstack 0
  1730  0032C2                     _Initialize:
  1731                           	callstack 20
  1732  0032C2                     
  1733                           ;mcc_generated_files/init.c: 48:     INTERRUPT_Initialize();
  1734  0032C2  ECF6  F01C         	call	_INTERRUPT_Initialize	;wreg free
  1735  0032C6                     
  1736                           ;mcc_generated_files/init.c: 49:     I2C_Initialize();
  1737  0032C6  ECAD  F01C         	call	_I2C_Initialize	;wreg free
  1738  0032CA                     
  1739                           ;mcc_generated_files/init.c: 50:     PIN_MANAGER_Initialize();
  1740  0032CA  EC2E  F01C         	call	_PIN_MANAGER_Initialize	;wreg free
  1741  0032CE                     
  1742                           ;mcc_generated_files/init.c: 51:     led_init(&led_red);
  1743  0032CE  0EFE               	movlw	low _led_red
  1744  0032D0  6E29               	movwf	led_init@led^0,c
  1745  0032D2  0E00               	movlw	high _led_red
  1746  0032D4  6E2A               	movwf	(led_init@led+1)^0,c
  1747  0032D6  EC0C  F01B         	call	_led_init	;wreg free
  1748  0032DA                     
  1749                           ;mcc_generated_files/init.c: 52:     led_init(&led_blue);
  1750  0032DA  0EFC               	movlw	low _led_blue
  1751  0032DC  6E29               	movwf	led_init@led^0,c
  1752  0032DE  0E00               	movlw	high _led_blue
  1753  0032E0  6E2A               	movwf	(led_init@led+1)^0,c
  1754  0032E2  EC0C  F01B         	call	_led_init	;wreg free
  1755  0032E6                     
  1756                           ;mcc_generated_files/init.c: 53:     dc_motor_init(&motor1);
  1757  0032E6  0EF9               	movlw	low _motor1
  1758  0032E8  6E29               	movwf	dc_motor_init@dc_motor^0,c
  1759  0032EA  0E00               	movlw	high _motor1
  1760  0032EC  6E2A               	movwf	(dc_motor_init@dc_motor+1)^0,c
  1761  0032EE  EC34  F01B         	call	_dc_motor_init	;wreg free
  1762  0032F2                     
  1763                           ;mcc_generated_files/init.c: 54:     dc_motor_init(&motor2);
  1764  0032F2  0EF6               	movlw	low _motor2
  1765  0032F4  6E29               	movwf	dc_motor_init@dc_motor^0,c
  1766  0032F6  0E00               	movlw	high _motor2
  1767  0032F8  6E2A               	movwf	(dc_motor_init@dc_motor+1)^0,c
  1768  0032FA  EC34  F01B         	call	_dc_motor_init	;wreg free
  1769  0032FE                     
  1770                           ;mcc_generated_files/init.c: 55:     seven_segment_init(&seg_1);
  1771  0032FE  0E2E               	movlw	low _seg_1
  1772  003300  6E29               	movwf	seven_segment_init@seg^0,c
  1773  003302  0E01               	movlw	high _seg_1
  1774  003304  6E2A               	movwf	(seven_segment_init@seg+1)^0,c
  1775  003306  EC7E  F01B         	call	_seven_segment_init	;wreg free
  1776  00330A                     
  1777                           ;mcc_generated_files/init.c: 56:     seven_segment_init(&seg_2);
  1778  00330A  0E29               	movlw	low _seg_2
  1779  00330C  6E29               	movwf	seven_segment_init@seg^0,c
  1780  00330E  0E01               	movlw	high _seg_2
  1781  003310  6E2A               	movwf	(seven_segment_init@seg+1)^0,c
  1782  003312  EC7E  F01B         	call	_seven_segment_init	;wreg free
  1783  003316                     
  1784                           ;mcc_generated_files/init.c: 57:     CCP_Init(&ccp1);
  1785  003316  0E1A               	movlw	low _ccp1
  1786  003318  0101               	movlb	1	; () banked
  1787  00331A  6F47               	movwf	CCP_Init@_ccp_obj& (0+255),b
  1788  00331C  0E01               	movlw	high _ccp1
  1789  00331E  6F48               	movwf	(CCP_Init@_ccp_obj+1)& (0+255),b
  1790  003320  EC35  F016         	call	_CCP_Init	;wreg free
  1791  003324                     
  1792                           ;mcc_generated_files/init.c: 58:     Timer2_Init(&timer2);
  1793  003324  0E50               	movlw	low _timer2
  1794  003326  6E1A               	movwf	Timer2_Init@_timer^0,c
  1795  003328  0E01               	movlw	high _timer2
  1796  00332A  6E1B               	movwf	(Timer2_Init@_timer+1)^0,c
  1797  00332C  ECDE  F018         	call	_Timer2_Init	;wreg free
  1798  003330  0012               	return		;funcret
  1799  003332                     __end_of_Initialize:
  1800                           	callstack 0
  1801                           
  1802 ;; *************** function _seven_segment_init *****************
  1803 ;; Defined at:
  1804 ;;		line 16 in file "ECUAL/7_SEGMENT/seven_segment.c"
  1805 ;; Parameters:    Size  Location     Type
  1806 ;;  seg             2   40[COMRAM] PTR struct .
  1807 ;;		 -> seg_2(5), seg_1(5), 
  1808 ;; Auto vars:     Size  Location     Type
  1809 ;;  ret             1    0        unsigned char 
  1810 ;;  gpio_ret        1   42[COMRAM] unsigned char 
  1811 ;; Return value:  Size  Location     Type
  1812 ;;                  1    wreg      unsigned char 
  1813 ;; Registers used:
  1814 ;;		wreg, fsr2l, fsr2h, status,2, status,0, prodl, prodh, cstack
  1815 ;; Tracked objects:
  1816 ;;		On entry : 0/0
  1817 ;;		On exit  : 0/0
  1818 ;;		Unchanged: 0/0
  1819 ;; Data sizes:     COMRAM   BANK0   BANK1   BANK2   BANK3   BANK4   BANK5   BANK6   BANK7   BANK8   BANK9  BANK10  BANK1
      +1  BANK12  BANK13  BANK14  BANK15
  1820 ;;      Params:         2       0       0       0       0       0       0       0       0       0       0       0       
      +0       0       0       0       0
  1821 ;;      Locals:         1       0       0       0       0       0       0       0       0       0       0       0       
      +0       0       0       0       0
  1822 ;;      Temps:          0       0       0       0       0       0       0       0       0       0       0       0       
      +0       0       0       0       0
  1823 ;;      Totals:         3       0       0       0       0       0       0       0       0       0       0       0       
      +0       0       0       0       0
  1824 ;;Total ram usage:        3 bytes
  1825 ;; Hardware stack levels used: 1
  1826 ;; Hardware stack levels required when called: 9
  1827 ;; This function calls:
  1828 ;;		_gpio_pin_output_low_init
  1829 ;; This function is called by:
  1830 ;;		_Initialize
  1831 ;; This function uses a non-reentrant model
  1832 ;;
  1833                           
  1834                           	psect	text6
  1835  0036FC                     __ptext6:
  1836                           	callstack 0
  1837  0036FC                     _seven_segment_init:
  1838                           	callstack 20
  1839  0036FC                     
  1840                           ;ECUAL/7_SEGMENT/seven_segment.c: 20:     Std_ReturnType gpio_ret=(Std_ReturnType)0x00;
  1841  0036FC  0E00               	movlw	0
  1842  0036FE  6E2B               	movwf	seven_segment_init@gpio_ret^0,c
  1843  003700                     
  1844                           ;ECUAL/7_SEGMENT/seven_segment.c: 21:     if(((void*)0)==seg){
  1845  003700  5029               	movf	seven_segment_init@seg^0,w,c
  1846  003702  102A               	iorwf	(seven_segment_init@seg+1)^0,w,c
  1847  003704  A4D8               	btfss	status,2,c
  1848  003706  EF87  F01B         	goto	u9471
  1849  00370A  EF89  F01B         	goto	u9470
  1850  00370E                     u9471:
  1851  00370E  EF8B  F01B         	goto	l9763
  1852  003712                     u9470:
  1853  003712                     
  1854                           ;ECUAL/7_SEGMENT/seven_segment.c: 23:     }
  1855  003712  EF9E  F01B         	goto	l13
  1856  003716                     l9763:
  1857                           
  1858                           ;ECUAL/7_SEGMENT/seven_segment.c: 25:         for(counter=0;counter<8;counter++){
  1859  003716  0E00               	movlw	0
  1860  003718  6E57               	movwf	seven_segment_init@counter^0,c
  1861  00371A                     l9769:
  1862  00371A  5057               	movf	seven_segment_init@counter^0,w,c
  1863  00371C  2429               	addwf	seven_segment_init@seg^0,w,c
  1864  00371E  6E24               	movwf	gpio_pin_output_low_init@pin^0,c
  1865  003720  0E00               	movlw	0
  1866  003722  202A               	addwfc	(seven_segment_init@seg+1)^0,w,c
  1867  003724  6E25               	movwf	(gpio_pin_output_low_init@pin+1)^0,c
  1868  003726  ECD1  F019         	call	_gpio_pin_output_low_init	;wreg free
  1869  00372A                     
  1870                           ;ECUAL/7_SEGMENT/seven_segment.c: 27:         }
  1871  00372A  2A57               	incf	seven_segment_init@counter^0,f,c
  1872  00372C  0E07               	movlw	7
  1873  00372E  6457               	cpfsgt	seven_segment_init@counter^0,c
  1874  003730  EF9C  F01B         	goto	u9481
  1875  003734  EF9E  F01B         	goto	u9480
  1876  003738                     u9481:
  1877  003738  EF8D  F01B         	goto	l9769
  1878  00373C                     u9480:
  1879  00373C                     l13:
  1880  00373C  0012               	return		;funcret
  1881  00373E                     __end_of_seven_segment_init:
  1882                           	callstack 0
  1883                           
  1884 ;; *************** function _led_init *****************
  1885 ;; Defined at:
  1886 ;;		line 17 in file "ECUAL/LED/led.c"
  1887 ;; Parameters:    Size  Location     Type
  1888 ;;  led             2   40[COMRAM] PTR struct .
  1889 ;;		 -> led_blue(2), led_red(2), 
  1890 ;; Auto vars:     Size  Location     Type
  1891 ;;  ret             1    0        unsigned char 
  1892 ;;  gpio_ret        1   42[COMRAM] unsigned char 
  1893 ;; Return value:  Size  Location     Type
  1894 ;;                  1    wreg      unsigned char 
  1895 ;; Registers used:
  1896 ;;		wreg, fsr1l, fsr1h, fsr2l, fsr2h, status,2, status,0, prodl, prodh, cstack
  1897 ;; Tracked objects:
  1898 ;;		On entry : 0/0
  1899 ;;		On exit  : 0/0
  1900 ;;		Unchanged: 0/0
  1901 ;; Data sizes:     COMRAM   BANK0   BANK1   BANK2   BANK3   BANK4   BANK5   BANK6   BANK7   BANK8   BANK9  BANK10  BANK1
      +1  BANK12  BANK13  BANK14  BANK15
  1902 ;;      Params:         2       0       0       0       0       0       0       0       0       0       0       0       
      +0       0       0       0       0
  1903 ;;      Locals:         1       0       0       0       0       0       0       0       0       0       0       0       
      +0       0       0       0       0
  1904 ;;      Temps:          0       0       0       0       0       0       0       0       0       0       0       0       
      +0       0       0       0       0
  1905 ;;      Totals:         3       0       0       0       0       0       0       0       0       0       0       0       
      +0       0       0       0       0
  1906 ;;Total ram usage:        3 bytes
  1907 ;; Hardware stack levels used: 1
  1908 ;; Hardware stack levels required when called: 9
  1909 ;; This function calls:
  1910 ;;		_gpio_pin_output_low_init
  1911 ;; This function is called by:
  1912 ;;		_Initialize
  1913 ;; This function uses a non-reentrant model
  1914 ;;
  1915                           
  1916                           	psect	text7
  1917  003618                     __ptext7:
  1918                           	callstack 0
  1919  003618                     _led_init:
  1920                           	callstack 20
  1921  003618                     
  1922                           ;ECUAL/LED/led.c: 20:     Std_ReturnType gpio_ret=(Std_ReturnType)0x00;
  1923  003618  0E00               	movlw	0
  1924  00361A  6E2B               	movwf	led_init@gpio_ret^0,c
  1925  00361C                     
  1926                           ;ECUAL/LED/led.c: 21:     if(((void*)0)==led){
  1927  00361C  5029               	movf	led_init@led^0,w,c
  1928  00361E  102A               	iorwf	(led_init@led+1)^0,w,c
  1929  003620  A4D8               	btfss	status,2,c
  1930  003622  EF15  F01B         	goto	u9551
  1931  003626  EF17  F01B         	goto	u9550
  1932  00362A                     u9551:
  1933  00362A  EF19  F01B         	goto	l9841
  1934  00362E                     u9550:
  1935  00362E                     
  1936                           ;ECUAL/LED/led.c: 23:     }
  1937  00362E  EF33  F01B         	goto	l252
  1938  003632                     l9841:
  1939  003632  C029  F024         	movff	led_init@led,gpio_pin_output_low_init@pin
  1940  003636  C02A  F025         	movff	led_init@led+1,gpio_pin_output_low_init@pin+1
  1941  00363A  ECD1  F019         	call	_gpio_pin_output_low_init	;wreg free
  1942  00363E                     
  1943                           ;ECUAL/LED/led.c: 26:         led->led_state=led->led_pin.logic;
  1944  00363E  EE20 F001          	lfsr	2,1
  1945  003642  5029               	movf	led_init@led^0,w,c
  1946  003644  26D9               	addwf	fsr2l,f,c
  1947  003646  502A               	movf	(led_init@led+1)^0,w,c
  1948  003648  22DA               	addwfc	fsr2h,f,c
  1949  00364A  C029  FFE1         	movff	led_init@led,fsr1l
  1950  00364E  C02A  FFE2         	movff	led_init@led+1,fsr1h
  1951  003652  BEE7               	btfsc	indf1,7,c
  1952  003654  EF2E  F01B         	goto	u9561
  1953  003658  EF31  F01B         	goto	u9560
  1954  00365C                     u9561:
  1955  00365C  0E01               	movlw	1
  1956  00365E  EF32  F01B         	goto	u9566
  1957  003662                     u9560:
  1958  003662  0E00               	movlw	0
  1959  003664                     u9566:
  1960  003664  6EDF               	movwf	indf2,c
  1961  003666                     l252:
  1962  003666  0012               	return		;funcret
  1963  003668                     __end_of_led_init:
  1964                           	callstack 0
  1965                           
  1966 ;; *************** function _dc_motor_init *****************
  1967 ;; Defined at:
  1968 ;;		line 16 in file "ECUAL/DC_MOTOR/dc_motor.c"
  1969 ;; Parameters:    Size  Location     Type
  1970 ;;  dc_motor        2   40[COMRAM] PTR struct .
  1971 ;;		 -> motor2(3), motor1(3), 
  1972 ;; Auto vars:     Size  Location     Type
  1973 ;;  ret             1    0        unsigned char 
  1974 ;;  gpio_ret        1   42[COMRAM] unsigned char 
  1975 ;; Return value:  Size  Location     Type
  1976 ;;                  1    wreg      unsigned char 
  1977 ;; Registers used:
  1978 ;;		wreg, fsr2l, fsr2h, status,2, status,0, prodl, prodh, cstack
  1979 ;; Tracked objects:
  1980 ;;		On entry : 0/0
  1981 ;;		On exit  : 0/0
  1982 ;;		Unchanged: 0/0
  1983 ;; Data sizes:     COMRAM   BANK0   BANK1   BANK2   BANK3   BANK4   BANK5   BANK6   BANK7   BANK8   BANK9  BANK10  BANK1
      +1  BANK12  BANK13  BANK14  BANK15
  1984 ;;      Params:         2       0       0       0       0       0       0       0       0       0       0       0       
      +0       0       0       0       0
  1985 ;;      Locals:         1       0       0       0       0       0       0       0       0       0       0       0       
      +0       0       0       0       0
  1986 ;;      Temps:          0       0       0       0       0       0       0       0       0       0       0       0       
      +0       0       0       0       0
  1987 ;;      Totals:         3       0       0       0       0       0       0       0       0       0       0       0       
      +0       0       0       0       0
  1988 ;;Total ram usage:        3 bytes
  1989 ;; Hardware stack levels used: 1
  1990 ;; Hardware stack levels required when called: 9
  1991 ;; This function calls:
  1992 ;;		_gpio_pin_output_low_init
  1993 ;; This function is called by:
  1994 ;;		_Initialize
  1995 ;; This function uses a non-reentrant model
  1996 ;;
  1997                           
  1998                           	psect	text8
  1999  003668                     __ptext8:
  2000                           	callstack 0
  2001  003668                     _dc_motor_init:
  2002                           	callstack 20
  2003  003668                     
  2004                           ;ECUAL/DC_MOTOR/dc_motor.c: 19:     Std_ReturnType gpio_ret=(Std_ReturnType)0x00;
  2005  003668  0E00               	movlw	0
  2006  00366A  6E2B               	movwf	dc_motor_init@gpio_ret^0,c
  2007  00366C                     
  2008                           ;ECUAL/DC_MOTOR/dc_motor.c: 20:     if(((void*)0)==dc_motor){
  2009  00366C  5029               	movf	dc_motor_init@dc_motor^0,w,c
  2010  00366E  102A               	iorwf	(dc_motor_init@dc_motor+1)^0,w,c
  2011  003670  A4D8               	btfss	status,2,c
  2012  003672  EF3D  F01B         	goto	u9491
  2013  003676  EF3F  F01B         	goto	u9490
  2014  00367A                     u9491:
  2015  00367A  EF41  F01B         	goto	l9785
  2016  00367E                     u9490:
  2017  00367E                     
  2018                           ;ECUAL/DC_MOTOR/dc_motor.c: 22:     }
  2019  00367E  EF59  F01B         	goto	l56
  2020  003682                     l9785:
  2021                           
  2022                           ;ECUAL/DC_MOTOR/dc_motor.c: 24:         gpio_ret=gpio_pin_output_low_init(&(dc_motor->dc
      +                          _motor_pin0));
  2023  003682  C029  F024         	movff	dc_motor_init@dc_motor,gpio_pin_output_low_init@pin
  2024  003686  C02A  F025         	movff	dc_motor_init@dc_motor+1,gpio_pin_output_low_init@pin+1
  2025  00368A  ECD1  F019         	call	_gpio_pin_output_low_init	;wreg free
  2026  00368E  6E2B               	movwf	dc_motor_init@gpio_ret^0,c
  2027                           
  2028                           ;ECUAL/DC_MOTOR/dc_motor.c: 25:         gpio_ret=gpio_pin_output_low_init(&(dc_motor->dc
      +                          _motor_pin1));
  2029  003690  0E01               	movlw	1
  2030  003692  2429               	addwf	dc_motor_init@dc_motor^0,w,c
  2031  003694  6E24               	movwf	gpio_pin_output_low_init@pin^0,c
  2032  003696  0E00               	movlw	0
  2033  003698  202A               	addwfc	(dc_motor_init@dc_motor+1)^0,w,c
  2034  00369A  6E25               	movwf	(gpio_pin_output_low_init@pin+1)^0,c
  2035  00369C  ECD1  F019         	call	_gpio_pin_output_low_init	;wreg free
  2036  0036A0  6E2B               	movwf	dc_motor_init@gpio_ret^0,c
  2037  0036A2                     
  2038                           ;ECUAL/DC_MOTOR/dc_motor.c: 26:         dc_motor->dc_motor_state=DC_MOTOR_OFF;
  2039  0036A2  EE20 F002          	lfsr	2,2
  2040  0036A6  5029               	movf	dc_motor_init@dc_motor^0,w,c
  2041  0036A8  26D9               	addwf	fsr2l,f,c
  2042  0036AA  502A               	movf	(dc_motor_init@dc_motor+1)^0,w,c
  2043  0036AC  22DA               	addwfc	fsr2h,f,c
  2044  0036AE  0E00               	movlw	0
  2045  0036B0  6EDF               	movwf	indf2,c
  2046  0036B2                     l56:
  2047  0036B2  0012               	return		;funcret
  2048  0036B4                     __end_of_dc_motor_init:
  2049                           	callstack 0
  2050                           
  2051 ;; *************** function _Timer2_Init *****************
  2052 ;; Defined at:
  2053 ;;		line 27 in file "MCAL/TIMER2/timer2.c"
  2054 ;; Parameters:    Size  Location     Type
  2055 ;;  _timer          2   25[COMRAM] PTR const struct .
  2056 ;;		 -> timer2(7), 
  2057 ;; Auto vars:     Size  Location     Type
  2058 ;;  ret             1    0        unsigned char 
  2059 ;; Return value:  Size  Location     Type
  2060 ;;                  1    wreg      unsigned char 
  2061 ;; Registers used:
  2062 ;;		wreg, fsr2l, fsr2h, status,2, status,0
  2063 ;; Tracked objects:
  2064 ;;		On entry : 0/0
  2065 ;;		On exit  : 0/0
  2066 ;;		Unchanged: 0/0
  2067 ;; Data sizes:     COMRAM   BANK0   BANK1   BANK2   BANK3   BANK4   BANK5   BANK6   BANK7   BANK8   BANK9  BANK10  BANK1
      +1  BANK12  BANK13  BANK14  BANK15
  2068 ;;      Params:         2       0       0       0       0       0       0       0       0       0       0       0       
      +0       0       0       0       0
  2069 ;;      Locals:         0       0       0       0       0       0       0       0       0       0       0       0       
      +0       0       0       0       0
  2070 ;;      Temps:          1       0       0       0       0       0       0       0       0       0       0       0       
      +0       0       0       0       0
  2071 ;;      Totals:         3       0       0       0       0       0       0       0       0       0       0       0       
      +0       0       0       0       0
  2072 ;;Total ram usage:        3 bytes
  2073 ;; Hardware stack levels used: 1
  2074 ;; Hardware stack levels required when called: 7
  2075 ;; This function calls:
  2076 ;;		Nothing
  2077 ;; This function is called by:
  2078 ;;		_Initialize
  2079 ;; This function uses a non-reentrant model
  2080 ;;
  2081                           
  2082                           	psect	text9
  2083  0031BC                     __ptext9:
  2084                           	callstack 0
  2085  0031BC                     _Timer2_Init:
  2086                           	callstack 22
  2087  0031BC                     
  2088                           ;MCAL/TIMER2/timer2.c: 29:     if(((void*)0) == _timer){
  2089  0031BC  501A               	movf	Timer2_Init@_timer^0,w,c
  2090  0031BE  101B               	iorwf	(Timer2_Init@_timer+1)^0,w,c
  2091  0031C0  A4D8               	btfss	status,2,c
  2092  0031C2  EFE5  F018         	goto	u9651
  2093  0031C6  EFE7  F018         	goto	u9650
  2094  0031CA                     u9651:
  2095  0031CA  EFE9  F018         	goto	l1216
  2096  0031CE                     u9650:
  2097  0031CE                     
  2098                           ;MCAL/TIMER2/timer2.c: 31:     }
  2099  0031CE  EF24  F019         	goto	l1218
  2100  0031D2                     l1216:
  2101                           
  2102                           ;MCAL/TIMER2/timer2.c: 34:         (T2CONbits.TMR2ON = 0);
  2103  0031D2  94CA               	bcf	202,2,c	;volatile
  2104  0031D4                     
  2105                           ;MCAL/TIMER2/timer2.c: 36:         (T2CONbits.T2CKPS = _timer->timer2_prescaler_value);
  2106  0031D4  EE20 F005          	lfsr	2,5
  2107  0031D8  501A               	movf	Timer2_Init@_timer^0,w,c
  2108  0031DA  26D9               	addwf	fsr2l,f,c
  2109  0031DC  501B               	movf	(Timer2_Init@_timer+1)^0,w,c
  2110  0031DE  22DA               	addwfc	fsr2h,f,c
  2111  0031E0  50DF               	movf	indf2,w,c
  2112  0031E2  6E1C               	movwf	??_Timer2_Init^0,c
  2113  0031E4  50CA               	movf	202,w,c	;volatile
  2114  0031E6  181C               	xorwf	??_Timer2_Init^0,w,c
  2115  0031E8  0BFC               	andlw	-4
  2116  0031EA  181C               	xorwf	??_Timer2_Init^0,w,c
  2117  0031EC  6ECA               	movwf	202,c	;volatile
  2118                           
  2119                           ;MCAL/TIMER2/timer2.c: 38:         (T2CONbits.TOUTPS = _timer->timer2_postscaler_value);
  2120  0031EE  EE20 F004          	lfsr	2,4
  2121  0031F2  501A               	movf	Timer2_Init@_timer^0,w,c
  2122  0031F4  26D9               	addwf	fsr2l,f,c
  2123  0031F6  501B               	movf	(Timer2_Init@_timer+1)^0,w,c
  2124  0031F8  22DA               	addwfc	fsr2h,f,c
  2125  0031FA  50DF               	movf	indf2,w,c
  2126  0031FC  6E1C               	movwf	??_Timer2_Init^0,c
  2127  0031FE  461C               	rlncf	??_Timer2_Init^0,f,c
  2128  003200  461C               	rlncf	??_Timer2_Init^0,f,c
  2129  003202  461C               	rlncf	??_Timer2_Init^0,f,c
  2130  003204  50CA               	movf	202,w,c	;volatile
  2131  003206  181C               	xorwf	??_Timer2_Init^0,w,c
  2132  003208  0B87               	andlw	-121
  2133  00320A  181C               	xorwf	??_Timer2_Init^0,w,c
  2134  00320C  6ECA               	movwf	202,c	;volatile
  2135                           
  2136                           ;MCAL/TIMER2/timer2.c: 40:         TMR2 = _timer->timer2_preload_value;
  2137  00320E  EE20 F003          	lfsr	2,3
  2138  003212  501A               	movf	Timer2_Init@_timer^0,w,c
  2139  003214  26D9               	addwf	fsr2l,f,c
  2140  003216  501B               	movf	(Timer2_Init@_timer+1)^0,w,c
  2141  003218  22DA               	addwfc	fsr2h,f,c
  2142  00321A  50DF               	movf	indf2,w,c
  2143  00321C  6ECC               	movwf	204,c	;volatile
  2144                           
  2145                           ;MCAL/TIMER2/timer2.c: 41:         timer2_preload = _timer->timer2_preload_value;
  2146  00321E  EE20 F003          	lfsr	2,3
  2147  003222  501A               	movf	Timer2_Init@_timer^0,w,c
  2148  003224  26D9               	addwf	fsr2l,f,c
  2149  003226  501B               	movf	(Timer2_Init@_timer+1)^0,w,c
  2150  003228  22DA               	addwfc	fsr2h,f,c
  2151  00322A  50DF               	movf	indf2,w,c
  2152  00322C  6E50               	movwf	_timer2_preload^0,c
  2153  00322E                     
  2154                           ;MCAL/TIMER2/timer2.c: 44:         (PIR1bits.TMR2IF = 0);
  2155  00322E  929E               	bcf	158,1,c	;volatile
  2156  003230                     
  2157                           ;MCAL/TIMER2/timer2.c: 58:         (INTCONbits.GIE=1);
  2158  003230  8EF2               	bsf	242,7,c	;volatile
  2159  003232                     
  2160                           ;MCAL/TIMER2/timer2.c: 59:         (INTCONbits.PEIE=1);
  2161  003232  8CF2               	bsf	242,6,c	;volatile
  2162  003234                     
  2163                           ;MCAL/TIMER2/timer2.c: 61:         (PIE1bits.TMR2IE = 1);
  2164  003234  829D               	bsf	157,1,c	;volatile
  2165  003236                     
  2166                           ;MCAL/TIMER2/timer2.c: 62:         TMR2_InterruptHandler=_timer->TMR2_InterruptHandler;
  2167  003236  C01A  FFD9         	movff	Timer2_Init@_timer,fsr2l
  2168  00323A  C01B  FFDA         	movff	Timer2_Init@_timer+1,fsr2h
  2169  00323E  CFDE F098          	movff	postinc2,_TMR2_InterruptHandler
  2170  003242  CFDD F099          	movff	postdec2,_TMR2_InterruptHandler+1
  2171  003246                     
  2172                           ;MCAL/TIMER2/timer2.c: 66:         (T2CONbits.TMR2ON = 1);
  2173  003246  84CA               	bsf	202,2,c	;volatile
  2174  003248                     l1218:
  2175  003248  0012               	return		;funcret
  2176  00324A                     __end_of_Timer2_Init:
  2177                           	callstack 0
  2178                           
  2179 ;; *************** function _PIN_MANAGER_Initialize *****************
  2180 ;; Defined at:
  2181 ;;		line 55 in file "mcc_generated_files/pin_manager.c"
  2182 ;; Parameters:    Size  Location     Type
  2183 ;;		None
  2184 ;; Auto vars:     Size  Location     Type
  2185 ;;		None
  2186 ;; Return value:  Size  Location     Type
  2187 ;;                  1    wreg      void 
  2188 ;; Registers used:
  2189 ;;		wreg, status,2
  2190 ;; Tracked objects:
  2191 ;;		On entry : 0/0
  2192 ;;		On exit  : 0/0
  2193 ;;		Unchanged: 0/0
  2194 ;; Data sizes:     COMRAM   BANK0   BANK1   BANK2   BANK3   BANK4   BANK5   BANK6   BANK7   BANK8   BANK9  BANK10  BANK1
      +1  BANK12  BANK13  BANK14  BANK15
  2195 ;;      Params:         0       0       0       0       0       0       0       0       0       0       0       0       
      +0       0       0       0       0
  2196 ;;      Locals:         0       0       0       0       0       0       0       0       0       0       0       0       
      +0       0       0       0       0
  2197 ;;      Temps:          0       0       0       0       0       0       0       0       0       0       0       0       
      +0       0       0       0       0
  2198 ;;      Totals:         0       0       0       0       0       0       0       0       0       0       0       0       
      +0       0       0       0       0
  2199 ;;Total ram usage:        0 bytes
  2200 ;; Hardware stack levels used: 1
  2201 ;; Hardware stack levels required when called: 7
  2202 ;; This function calls:
  2203 ;;		Nothing
  2204 ;; This function is called by:
  2205 ;;		_Initialize
  2206 ;; This function uses a non-reentrant model
  2207 ;;
  2208                           
  2209                           	psect	text10
  2210  00385C                     __ptext10:
  2211                           	callstack 0
  2212  00385C                     _PIN_MANAGER_Initialize:
  2213                           	callstack 22
  2214  00385C                     
  2215                           ;mcc_generated_files/pin_manager.c: 60:     LATE = 0x00;
  2216  00385C  0E00               	movlw	0
  2217  00385E  6E8D               	movwf	141,c	;volatile
  2218                           
  2219                           ;mcc_generated_files/pin_manager.c: 61:     LATD = 0x00;
  2220  003860  0E00               	movlw	0
  2221  003862  6E8C               	movwf	140,c	;volatile
  2222                           
  2223                           ;mcc_generated_files/pin_manager.c: 62:     LATA = 0x00;
  2224  003864  0E00               	movlw	0
  2225  003866  6E89               	movwf	137,c	;volatile
  2226                           
  2227                           ;mcc_generated_files/pin_manager.c: 63:     LATB = 0x00;
  2228  003868  0E00               	movlw	0
  2229  00386A  6E8A               	movwf	138,c	;volatile
  2230                           
  2231                           ;mcc_generated_files/pin_manager.c: 64:     LATC = 0x00;
  2232  00386C  0E00               	movlw	0
  2233  00386E  6E8B               	movwf	139,c	;volatile
  2234                           
  2235                           ;mcc_generated_files/pin_manager.c: 69:     TRISE = 0x07;
  2236  003870  0E07               	movlw	7
  2237  003872  6E96               	movwf	150,c	;volatile
  2238  003874                     
  2239                           ;mcc_generated_files/pin_manager.c: 70:     TRISA = 0xFF;
  2240  003874  6892               	setf	146,c	;volatile
  2241  003876                     
  2242                           ;mcc_generated_files/pin_manager.c: 71:     TRISB = 0xFF;
  2243  003876  6893               	setf	147,c	;volatile
  2244  003878                     
  2245                           ;mcc_generated_files/pin_manager.c: 72:     TRISC = 0xFF;
  2246  003878  6894               	setf	148,c	;volatile
  2247  00387A                     
  2248                           ;mcc_generated_files/pin_manager.c: 73:     TRISD = 0xFF;
  2249  00387A  6895               	setf	149,c	;volatile
  2250  00387C                     
  2251                           ;mcc_generated_files/pin_manager.c: 74:     INTCON2bits.nRBPU = 1;
  2252  00387C  8EF1               	bsf	241,7,c	;volatile
  2253  00387E  0012               	return		;funcret
  2254  003880                     __end_of_PIN_MANAGER_Initialize:
  2255                           	callstack 0
  2256                           
  2257 ;; *************** function _INTERRUPT_Initialize *****************
  2258 ;; Defined at:
  2259 ;;		line 54 in file "mcc_generated_files/interrupt_manager.c"
  2260 ;; Parameters:    Size  Location     Type
  2261 ;;		None
  2262 ;; Auto vars:     Size  Location     Type
  2263 ;;		None
  2264 ;; Return value:  Size  Location     Type
  2265 ;;                  1    wreg      void 
  2266 ;; Registers used:
  2267 ;;		None
  2268 ;; Tracked objects:
  2269 ;;		On entry : 0/0
  2270 ;;		On exit  : 0/0
  2271 ;;		Unchanged: 0/0
  2272 ;; Data sizes:     COMRAM   BANK0   BANK1   BANK2   BANK3   BANK4   BANK5   BANK6   BANK7   BANK8   BANK9  BANK10  BANK1
      +1  BANK12  BANK13  BANK14  BANK15
  2273 ;;      Params:         0       0       0       0       0       0       0       0       0       0       0       0       
      +0       0       0       0       0
  2274 ;;      Locals:         0       0       0       0       0       0       0       0       0       0       0       0       
      +0       0       0       0       0
  2275 ;;      Temps:          0       0       0       0       0       0       0       0       0       0       0       0       
      +0       0       0       0       0
  2276 ;;      Totals:         0       0       0       0       0       0       0       0       0       0       0       0       
      +0       0       0       0       0
  2277 ;;Total ram usage:        0 bytes
  2278 ;; Hardware stack levels used: 1
  2279 ;; Hardware stack levels required when called: 7
  2280 ;; This function calls:
  2281 ;;		Nothing
  2282 ;; This function is called by:
  2283 ;;		_Initialize
  2284 ;; This function uses a non-reentrant model
  2285 ;;
  2286                           
  2287                           	psect	text11
  2288  0039EC                     __ptext11:
  2289                           	callstack 0
  2290  0039EC                     _INTERRUPT_Initialize:
  2291                           	callstack 22
  2292  0039EC                     
  2293                           ;mcc_generated_files/interrupt_manager.c: 57:     RCONbits.IPEN = 0;
  2294  0039EC  9ED0               	bcf	208,7,c	;volatile
  2295  0039EE  0012               	return		;funcret
  2296  0039F0                     __end_of_INTERRUPT_Initialize:
  2297                           	callstack 0
  2298                           
  2299 ;; *************** function _I2C_Initialize *****************
  2300 ;; Defined at:
  2301 ;;		line 108 in file "mcc_generated_files/i2c_slave.c"
  2302 ;; Parameters:    Size  Location     Type
  2303 ;;		None
  2304 ;; Auto vars:     Size  Location     Type
  2305 ;;		None
  2306 ;; Return value:  Size  Location     Type
  2307 ;;                  1    wreg      void 
  2308 ;; Registers used:
  2309 ;;		wreg, status,2, status,0
  2310 ;; Tracked objects:
  2311 ;;		On entry : 0/0
  2312 ;;		On exit  : 0/0
  2313 ;;		Unchanged: 0/0
  2314 ;; Data sizes:     COMRAM   BANK0   BANK1   BANK2   BANK3   BANK4   BANK5   BANK6   BANK7   BANK8   BANK9  BANK10  BANK1
      +1  BANK12  BANK13  BANK14  BANK15
  2315 ;;      Params:         0       0       0       0       0       0       0       0       0       0       0       0       
      +0       0       0       0       0
  2316 ;;      Locals:         0       0       0       0       0       0       0       0       0       0       0       0       
      +0       0       0       0       0
  2317 ;;      Temps:          0       0       0       0       0       0       0       0       0       0       0       0       
      +0       0       0       0       0
  2318 ;;      Totals:         0       0       0       0       0       0       0       0       0       0       0       0       
      +0       0       0       0       0
  2319 ;;Total ram usage:        0 bytes
  2320 ;; Hardware stack levels used: 1
  2321 ;; Hardware stack levels required when called: 7
  2322 ;; This function calls:
  2323 ;;		Nothing
  2324 ;; This function is called by:
  2325 ;;		_Initialize
  2326 ;;		_I2C_Enable
  2327 ;; This function uses a non-reentrant model
  2328 ;;
  2329                           
  2330                           	psect	text12
  2331  00395A                     __ptext12:
  2332                           	callstack 0
  2333  00395A                     _I2C_Initialize:
  2334                           	callstack 22
  2335  00395A                     
  2336                           ;mcc_generated_files/i2c_slave.c: 110:     SSPSTAT = 0x80;
  2337  00395A  0E80               	movlw	128
  2338  00395C  6EC7               	movwf	199,c	;volatile
  2339  00395E                     
  2340                           ;mcc_generated_files/i2c_slave.c: 111:     SSPCON1 |= 0x06;
  2341  00395E  0E06               	movlw	6
  2342  003960  12C6               	iorwf	198,f,c	;volatile
  2343  003962                     
  2344                           ;mcc_generated_files/i2c_slave.c: 112:     SSPCON2 = 0x00;
  2345  003962  0E00               	movlw	0
  2346  003964  6EC5               	movwf	197,c	;volatile
  2347  003966                     
  2348                           ;mcc_generated_files/i2c_slave.c: 113:     SSPCON1bits.SSPEN = 0;
  2349  003966  9AC6               	bcf	198,5,c	;volatile
  2350  003968  0012               	return		;funcret
  2351  00396A                     __end_of_I2C_Initialize:
  2352                           	callstack 0
  2353                           
  2354 ;; *************** function _CCP_Init *****************
  2355 ;; Defined at:
  2356 ;;		line 25 in file "MCAL/CCP/hal_ccp.c"
  2357 ;; Parameters:    Size  Location     Type
  2358 ;;  _ccp_obj        2   20[BANK1 ] PTR const struct .
  2359 ;;		 -> ccp1(15), 
  2360 ;; Auto vars:     Size  Location     Type
  2361 ;;  ret             1    0        unsigned char 
  2362 ;; Return value:  Size  Location     Type
  2363 ;;                  1    wreg      unsigned char 
  2364 ;; Registers used:
  2365 ;;		wreg, fsr2l, fsr2h, status,2, status,0, prodl, prodh, cstack
  2366 ;; Tracked objects:
  2367 ;;		On entry : 0/0
  2368 ;;		On exit  : 0/0
  2369 ;;		Unchanged: 0/0
  2370 ;; Data sizes:     COMRAM   BANK0   BANK1   BANK2   BANK3   BANK4   BANK5   BANK6   BANK7   BANK8   BANK9  BANK10  BANK1
      +1  BANK12  BANK13  BANK14  BANK15
  2371 ;;      Params:         0       0       2       0       0       0       0       0       0       0       0       0       
      +0       0       0       0       0
  2372 ;;      Locals:         0       0       0       0       0       0       0       0       0       0       0       0       
      +0       0       0       0       0
  2373 ;;      Temps:          0       1       0       0       0       0       0       0       0       0       0       0       
      +0       0       0       0       0
  2374 ;;      Totals:         0       1       2       0       0       0       0       0       0       0       0       0       
      +0       0       0       0       0
  2375 ;;Total ram usage:        3 bytes
  2376 ;; Hardware stack levels used: 1
  2377 ;; Hardware stack levels required when called: 9
  2378 ;; This function calls:
  2379 ;;		_CCP_Capture_Mode_Config
  2380 ;;		_CCP_Compare_Mode_Config
  2381 ;;		_CCP_Interrupt_Config
  2382 ;;		_CCP_PWM_Mode_Config
  2383 ;;		_gpio_pin_output_low_init
  2384 ;; This function is called by:
  2385 ;;		_Initialize
  2386 ;; This function uses a non-reentrant model
  2387 ;;
  2388                           
  2389                           	psect	text13
  2390  002C6A                     __ptext13:
  2391                           	callstack 0
  2392  002C6A                     _CCP_Init:
  2393                           	callstack 20
  2394  002C6A                     
  2395                           ;MCAL/CCP/hal_ccp.c: 27:     if(((void*)0) == _ccp_obj){
  2396  002C6A  0101               	movlb	1	; () banked
  2397  002C6C  5147               	movf	CCP_Init@_ccp_obj& (0+255),w,b
  2398  002C6E  1148               	iorwf	(CCP_Init@_ccp_obj+1)& (0+255),w,b
  2399  002C70  A4D8               	btfss	status,2,c
  2400  002C72  EF3D  F016         	goto	u9571
  2401  002C76  EF3F  F016         	goto	u9570
  2402  002C7A                     u9571:
  2403  002C7A  EF41  F016         	goto	l9855
  2404  002C7E                     u9570:
  2405  002C7E                     
  2406                           ; BSR set to: 1
  2407                           ;MCAL/CCP/hal_ccp.c: 29:     }
  2408  002C7E  EFCF  F016         	goto	l469
  2409  002C82                     l9855:
  2410                           
  2411                           ; BSR set to: 1
  2412                           ;MCAL/CCP/hal_ccp.c: 32:         if(CCP1_INST == _ccp_obj->ccp_inst){
  2413  002C82  C147  FFD9         	movff	CCP_Init@_ccp_obj,fsr2l
  2414  002C86  C148  FFDA         	movff	CCP_Init@_ccp_obj+1,fsr2h
  2415  002C8A  50DF               	movf	indf2,w,c
  2416  002C8C  A4D8               	btfss	status,2,c
  2417  002C8E  EF4B  F016         	goto	u9581
  2418  002C92  EF4D  F016         	goto	u9580
  2419  002C96                     u9581:
  2420  002C96  EF51  F016         	goto	l9859
  2421  002C9A                     u9580:
  2422  002C9A                     
  2423                           ; BSR set to: 1
  2424                           ;MCAL/CCP/hal_ccp.c: 33:             (CCP1CONbits.CCP1M = ((uint8)0x00));
  2425  002C9A  0EF0               	movlw	-16
  2426  002C9C  16BD               	andwf	189,f,c	;volatile
  2427                           
  2428                           ;MCAL/CCP/hal_ccp.c: 34:         }
  2429  002C9E  EF5F  F016         	goto	l9863
  2430  002CA2                     l9859:
  2431                           
  2432                           ; BSR set to: 1
  2433  002CA2  C147  FFD9         	movff	CCP_Init@_ccp_obj,fsr2l
  2434  002CA6  C148  FFDA         	movff	CCP_Init@_ccp_obj+1,fsr2h
  2435  002CAA  04DE               	decf	postinc2,w,c
  2436  002CAC  A4D8               	btfss	status,2,c
  2437  002CAE  EF5B  F016         	goto	u9591
  2438  002CB2  EF5D  F016         	goto	u9590
  2439  002CB6                     u9591:
  2440  002CB6  EF5F  F016         	goto	l9863
  2441  002CBA                     u9590:
  2442  002CBA                     
  2443                           ; BSR set to: 1
  2444                           ;MCAL/CCP/hal_ccp.c: 36:             (CCP2CONbits.CCP2M = ((uint8)0x00));
  2445  002CBA  0EF0               	movlw	-16
  2446  002CBC  16BA               	andwf	186,f,c	;volatile
  2447  002CBE                     l9863:
  2448                           
  2449                           ; BSR set to: 1
  2450                           ;MCAL/CCP/hal_ccp.c: 41:         if(CCP_CAPTURE_MODE_SELECTED == _ccp_obj->ccp_mode){
  2451  002CBE  EE20 F001          	lfsr	2,1
  2452  002CC2  5147               	movf	CCP_Init@_ccp_obj& (0+255),w,b
  2453  002CC4  26D9               	addwf	fsr2l,f,c
  2454  002CC6  5148               	movf	(CCP_Init@_ccp_obj+1)& (0+255),w,b
  2455  002CC8  22DA               	addwfc	fsr2h,f,c
  2456  002CCA  50DF               	movf	indf2,w,c
  2457  002CCC  A4D8               	btfss	status,2,c
  2458  002CCE  EF6B  F016         	goto	u9601
  2459  002CD2  EF6D  F016         	goto	u9600
  2460  002CD6                     u9601:
  2461  002CD6  EF75  F016         	goto	l9867
  2462  002CDA                     u9600:
  2463  002CDA                     
  2464                           ; BSR set to: 1
  2465  002CDA  C147  F01D         	movff	CCP_Init@_ccp_obj,CCP_Capture_Mode_Config@_ccp_obj
  2466  002CDE  C148  F01E         	movff	CCP_Init@_ccp_obj+1,CCP_Capture_Mode_Config@_ccp_obj+1
  2467  002CE2  EC95  F015         	call	_CCP_Capture_Mode_Config	;wreg free
  2468                           
  2469                           ;MCAL/CCP/hal_ccp.c: 43:         }
  2470  002CE6  EFA2  F016         	goto	l9875
  2471  002CEA                     l9867:
  2472                           
  2473                           ; BSR set to: 1
  2474  002CEA  EE20 F001          	lfsr	2,1
  2475  002CEE  5147               	movf	CCP_Init@_ccp_obj& (0+255),w,b
  2476  002CF0  26D9               	addwf	fsr2l,f,c
  2477  002CF2  5148               	movf	(CCP_Init@_ccp_obj+1)& (0+255),w,b
  2478  002CF4  22DA               	addwfc	fsr2h,f,c
  2479  002CF6  04DE               	decf	postinc2,w,c
  2480  002CF8  A4D8               	btfss	status,2,c
  2481  002CFA  EF81  F016         	goto	u9611
  2482  002CFE  EF83  F016         	goto	u9610
  2483  002D02                     u9611:
  2484  002D02  EF8B  F016         	goto	l9871
  2485  002D06                     u9610:
  2486  002D06                     
  2487                           ; BSR set to: 1
  2488  002D06  C147  F01D         	movff	CCP_Init@_ccp_obj,CCP_Compare_Mode_Config@_ccp_obj
  2489  002D0A  C148  F01E         	movff	CCP_Init@_ccp_obj+1,CCP_Compare_Mode_Config@_ccp_obj+1
  2490  002D0E  EC44  F012         	call	_CCP_Compare_Mode_Config	;wreg free
  2491                           
  2492                           ;MCAL/CCP/hal_ccp.c: 47:         }
  2493  002D12  EFA2  F016         	goto	l9875
  2494  002D16                     l9871:
  2495                           
  2496                           ; BSR set to: 1
  2497  002D16  EE20 F001          	lfsr	2,1
  2498  002D1A  5147               	movf	CCP_Init@_ccp_obj& (0+255),w,b
  2499  002D1C  26D9               	addwf	fsr2l,f,c
  2500  002D1E  5148               	movf	(CCP_Init@_ccp_obj+1)& (0+255),w,b
  2501  002D20  22DA               	addwfc	fsr2h,f,c
  2502  002D22  0E02               	movlw	2
  2503  002D24  18DE               	xorwf	postinc2,w,c
  2504  002D26  A4D8               	btfss	status,2,c
  2505  002D28  EF98  F016         	goto	u9621
  2506  002D2C  EF9A  F016         	goto	u9620
  2507  002D30                     u9621:
  2508  002D30  EFA2  F016         	goto	l462
  2509  002D34                     u9620:
  2510  002D34                     
  2511                           ; BSR set to: 1
  2512                           ;MCAL/CCP/hal_ccp.c: 51:             CCP_PWM_Mode_Config(_ccp_obj);
  2513  002D34  C147  F13B         	movff	CCP_Init@_ccp_obj,CCP_PWM_Mode_Config@_ccp_obj
  2514  002D38  C148  F13C         	movff	CCP_Init@_ccp_obj+1,CCP_PWM_Mode_Config@_ccp_obj+1
  2515  002D3C  ECB2  F00F         	call	_CCP_PWM_Mode_Config	;wreg free
  2516                           
  2517                           ;MCAL/CCP/hal_ccp.c: 52:         }
  2518  002D40  EFA2  F016         	goto	l9875
  2519  002D44                     l462:
  2520  002D44                     l9875:
  2521  002D44  0E03               	movlw	3
  2522  002D46  0101               	movlb	1	; () banked
  2523  002D48  2547               	addwf	CCP_Init@_ccp_obj& (0+255),w,b
  2524  002D4A  6E24               	movwf	gpio_pin_output_low_init@pin^0,c
  2525  002D4C  0E00               	movlw	0
  2526  002D4E  2148               	addwfc	(CCP_Init@_ccp_obj+1)& (0+255),w,b
  2527  002D50  6E25               	movwf	(gpio_pin_output_low_init@pin+1)^0,c
  2528  002D52  ECD1  F019         	call	_gpio_pin_output_low_init	;wreg free
  2529  002D56                     
  2530                           ;MCAL/CCP/hal_ccp.c: 59:         CCP_Interrupt_Config(_ccp_obj);
  2531  002D56  C147  F01A         	movff	CCP_Init@_ccp_obj,CCP_Interrupt_Config@_ccp_obj
  2532  002D5A  C148  F01B         	movff	CCP_Init@_ccp_obj+1,CCP_Interrupt_Config@_ccp_obj+1
  2533  002D5E  EC9F  F01B         	call	_CCP_Interrupt_Config	;wreg free
  2534  002D62                     
  2535                           ;MCAL/CCP/hal_ccp.c: 62:         if(CCP1_INST == _ccp_obj->ccp_inst){
  2536  002D62  C147  FFD9         	movff	CCP_Init@_ccp_obj,fsr2l
  2537  002D66  C148  FFDA         	movff	CCP_Init@_ccp_obj+1,fsr2h
  2538  002D6A  50DF               	movf	indf2,w,c
  2539  002D6C  A4D8               	btfss	status,2,c
  2540  002D6E  EFBB  F016         	goto	u9631
  2541  002D72  EFBD  F016         	goto	u9630
  2542  002D76                     u9631:
  2543  002D76  EFC1  F016         	goto	l9883
  2544  002D7A                     u9630:
  2545  002D7A                     
  2546                           ;MCAL/CCP/hal_ccp.c: 63:             (CCP1CONbits.CCP1M = ((uint8)0x00));
  2547  002D7A  0EF0               	movlw	-16
  2548  002D7C  16BD               	andwf	189,f,c	;volatile
  2549                           
  2550                           ;MCAL/CCP/hal_ccp.c: 64:         }
  2551  002D7E  EFCF  F016         	goto	l9887
  2552  002D82                     l9883:
  2553  002D82  C147  FFD9         	movff	CCP_Init@_ccp_obj,fsr2l
  2554  002D86  C148  FFDA         	movff	CCP_Init@_ccp_obj+1,fsr2h
  2555  002D8A  04DE               	decf	postinc2,w,c
  2556  002D8C  A4D8               	btfss	status,2,c
  2557  002D8E  EFCB  F016         	goto	u9641
  2558  002D92  EFCD  F016         	goto	u9640
  2559  002D96                     u9641:
  2560  002D96  EFCF  F016         	goto	l9887
  2561  002D9A                     u9640:
  2562  002D9A                     
  2563                           ;MCAL/CCP/hal_ccp.c: 66:             (CCP2CONbits.CCP2M = ((uint8)0x00));
  2564  002D9A  0EF0               	movlw	-16
  2565  002D9C  16BA               	andwf	186,f,c	;volatile
  2566  002D9E                     l9887:
  2567  002D9E                     l469:
  2568  002D9E  0012               	return		;funcret
  2569  002DA0                     __end_of_CCP_Init:
  2570                           	callstack 0
  2571                           
  2572 ;; *************** function _gpio_pin_output_low_init *****************
  2573 ;; Defined at:
  2574 ;;		line 161 in file "MCAL/GPIO/gpio.c"
  2575 ;; Parameters:    Size  Location     Type
  2576 ;;  pin             2   35[COMRAM] PTR struct .
  2577 ;;		 -> ccp1.ccp_pin(1), ccp1(15), seg_2.seven_segment_pins(4), seg_2(5), 
  2578 ;;		 -> seg_1.seven_segment_pins(4), seg_1(5), motor2(3), motor1(3), 
  2579 ;;		 -> led_blue(2), led_red(2), 
  2580 ;; Auto vars:     Size  Location     Type
  2581 ;;  ret             1   39[COMRAM] unsigned char 
  2582 ;;  gpio_ret        1   38[COMRAM] unsigned char 
  2583 ;; Return value:  Size  Location     Type
  2584 ;;                  1    wreg      unsigned char 
  2585 ;; Registers used:
  2586 ;;		wreg, fsr2l, fsr2h, status,2, status,0, prodl, prodh, cstack
  2587 ;; Tracked objects:
  2588 ;;		On entry : 0/0
  2589 ;;		On exit  : 0/0
  2590 ;;		Unchanged: 0/0
  2591 ;; Data sizes:     COMRAM   BANK0   BANK1   BANK2   BANK3   BANK4   BANK5   BANK6   BANK7   BANK8   BANK9  BANK10  BANK1
      +1  BANK12  BANK13  BANK14  BANK15
  2592 ;;      Params:         2       0       0       0       0       0       0       0       0       0       0       0       
      +0       0       0       0       0
  2593 ;;      Locals:         2       0       0       0       0       0       0       0       0       0       0       0       
      +0       0       0       0       0
  2594 ;;      Temps:          1       0       0       0       0       0       0       0       0       0       0       0       
      +0       0       0       0       0
  2595 ;;      Totals:         5       0       0       0       0       0       0       0       0       0       0       0       
      +0       0       0       0       0
  2596 ;;Total ram usage:        5 bytes
  2597 ;; Hardware stack levels used: 1
  2598 ;; Hardware stack levels required when called: 8
  2599 ;; This function calls:
  2600 ;;		_gpio_pin_direction_init
  2601 ;;		_gpio_pin_logic_write
  2602 ;; This function is called by:
  2603 ;;		_seven_segment_init
  2604 ;;		_dc_motor_init
  2605 ;;		_led_init
  2606 ;;		_CCP_Init
  2607 ;;		_keypad_init
  2608 ;;		_lcd_init
  2609 ;;		_relay_init
  2610 ;; This function uses a non-reentrant model
  2611 ;;
  2612                           
  2613                           	psect	text14
  2614  0033A2                     __ptext14:
  2615                           	callstack 0
  2616  0033A2                     _gpio_pin_output_low_init:
  2617                           	callstack 20
  2618  0033A2                     
  2619                           ;MCAL/GPIO/gpio.c: 164:     Std_ReturnType gpio_ret=(Std_ReturnType)0x00;
  2620  0033A2  0E00               	movlw	0
  2621  0033A4  6E27               	movwf	gpio_pin_output_low_init@gpio_ret^0,c
  2622  0033A6                     
  2623                           ;MCAL/GPIO/gpio.c: 165:     if(((void*)0)==pin || (pin->pin)>7){
  2624  0033A6  5024               	movf	gpio_pin_output_low_init@pin^0,w,c
  2625  0033A8  1025               	iorwf	(gpio_pin_output_low_init@pin+1)^0,w,c
  2626  0033AA  B4D8               	btfsc	status,2,c
  2627  0033AC  EFDA  F019         	goto	u9361
  2628  0033B0  EFDC  F019         	goto	u9360
  2629  0033B4                     u9361:
  2630  0033B4  EFED  F019         	goto	l9603
  2631  0033B8                     u9360:
  2632  0033B8  C024  FFD9         	movff	gpio_pin_output_low_init@pin,fsr2l
  2633  0033BC  C025  FFDA         	movff	gpio_pin_output_low_init@pin+1,fsr2h
  2634  0033C0  30DF               	rrcf	223,w,c
  2635  0033C2  32E8               	rrcf	wreg,f,c
  2636  0033C4  32E8               	rrcf	wreg,f,c
  2637  0033C6  0B07               	andlw	7
  2638  0033C8  6E26               	movwf	??_gpio_pin_output_low_init^0,c
  2639  0033CA  0E07               	movlw	7
  2640  0033CC  6426               	cpfsgt	??_gpio_pin_output_low_init^0,c
  2641  0033CE  EFEB  F019         	goto	u9371
  2642  0033D2  EFED  F019         	goto	u9370
  2643  0033D6                     u9371:
  2644  0033D6  EFF1  F019         	goto	l9605
  2645  0033DA                     u9370:
  2646  0033DA                     l9603:
  2647                           
  2648                           ;MCAL/GPIO/gpio.c: 166:         ret=(Std_ReturnType)0x00;
  2649  0033DA  0E00               	movlw	0
  2650  0033DC  6E28               	movwf	gpio_pin_output_low_init@ret^0,c
  2651                           
  2652                           ;MCAL/GPIO/gpio.c: 167:     }
  2653  0033DE  EF05  F01A         	goto	l9609
  2654  0033E2                     l9605:
  2655                           
  2656                           ;MCAL/GPIO/gpio.c: 169:         gpio_ret=gpio_pin_direction_init(pin,OUTPUT);
  2657  0033E2  C024  F01A         	movff	gpio_pin_output_low_init@pin,gpio_pin_direction_init@pin
  2658  0033E6  C025  F01B         	movff	gpio_pin_output_low_init@pin+1,gpio_pin_direction_init@pin+1
  2659  0033EA  0E00               	movlw	0
  2660  0033EC  6E1C               	movwf	gpio_pin_direction_init@pin_direction^0,c
  2661  0033EE  ECA1  F013         	call	_gpio_pin_direction_init	;wreg free
  2662  0033F2  6E27               	movwf	gpio_pin_output_low_init@gpio_ret^0,c
  2663                           
  2664                           ;MCAL/GPIO/gpio.c: 170:         gpio_ret=gpio_pin_logic_write(pin,LOW);
  2665  0033F4  C024  F01A         	movff	gpio_pin_output_low_init@pin,gpio_pin_logic_write@pin
  2666  0033F8  C025  F01B         	movff	gpio_pin_output_low_init@pin+1,gpio_pin_logic_write@pin+1
  2667  0033FC  0E00               	movlw	0
  2668  0033FE  6E1C               	movwf	gpio_pin_logic_write@pin_logic^0,c
  2669  003400  ECF8  F012         	call	_gpio_pin_logic_write	;wreg free
  2670  003404  6E27               	movwf	gpio_pin_output_low_init@gpio_ret^0,c
  2671  003406                     
  2672                           ;MCAL/GPIO/gpio.c: 171:         ret=(Std_ReturnType)0x01;
  2673  003406  0E01               	movlw	1
  2674  003408  6E28               	movwf	gpio_pin_output_low_init@ret^0,c
  2675  00340A                     l9609:
  2676                           
  2677                           ;MCAL/GPIO/gpio.c: 174:     return ret;
  2678  00340A  5028               	movf	gpio_pin_output_low_init@ret^0,w,c
  2679  00340C  0012               	return		;funcret
  2680  00340E                     __end_of_gpio_pin_output_low_init:
  2681                           	callstack 0
  2682                           
  2683 ;; *************** function _gpio_pin_logic_write *****************
  2684 ;; Defined at:
  2685 ;;		line 81 in file "MCAL/GPIO/gpio.c"
  2686 ;; Parameters:    Size  Location     Type
  2687 ;;  pin             2   25[COMRAM] PTR struct .
  2688 ;;		 -> ccp1.ccp_pin(1), ccp1(15), seg_2.seven_segment_pins(4), seg_2(5), 
  2689 ;;		 -> seg_1.seven_segment_pins(4), seg_1(5), motor2(3), motor1(3), 
  2690 ;;		 -> led_blue(2), led_red(2), 
  2691 ;;  pin_logic       1   27[COMRAM] enum E2965
  2692 ;; Auto vars:     Size  Location     Type
  2693 ;;  ret             1   34[COMRAM] unsigned char 
  2694 ;; Return value:  Size  Location     Type
  2695 ;;                  1    wreg      unsigned char 
  2696 ;; Registers used:
  2697 ;;		wreg, fsr2l, fsr2h, status,2, status,0, prodl, prodh
  2698 ;; Tracked objects:
  2699 ;;		On entry : 0/0
  2700 ;;		On exit  : 0/0
  2701 ;;		Unchanged: 0/0
  2702 ;; Data sizes:     COMRAM   BANK0   BANK1   BANK2   BANK3   BANK4   BANK5   BANK6   BANK7   BANK8   BANK9  BANK10  BANK1
      +1  BANK12  BANK13  BANK14  BANK15
  2703 ;;      Params:         3       0       0       0       0       0       0       0       0       0       0       0       
      +0       0       0       0       0
  2704 ;;      Locals:         1       0       0       0       0       0       0       0       0       0       0       0       
      +0       0       0       0       0
  2705 ;;      Temps:          6       0       0       0       0       0       0       0       0       0       0       0       
      +0       0       0       0       0
  2706 ;;      Totals:        10       0       0       0       0       0       0       0       0       0       0       0       
      +0       0       0       0       0
  2707 ;;Total ram usage:       10 bytes
  2708 ;; Hardware stack levels used: 1
  2709 ;; Hardware stack levels required when called: 7
  2710 ;; This function calls:
  2711 ;;		Nothing
  2712 ;; This function is called by:
  2713 ;;		_dc_motor_move_right
  2714 ;;		_dc_motor_stop
  2715 ;;		_led_on
  2716 ;;		_led_off
  2717 ;;		_gpio_pin_output_low_init
  2718 ;;		_dc_motor_move_left
  2719 ;;		_keypad_read
  2720 ;;		_lcd_send_command
  2721 ;;		_lcd_send_char_data
  2722 ;;		_lcd_send_nbits
  2723 ;;		_lcd_send_enable
  2724 ;;		_relay_on
  2725 ;;		_relay_off
  2726 ;;		_gpio_pin_output_high_init
  2727 ;; This function uses a non-reentrant model
  2728 ;;
  2729                           
  2730                           	psect	text15
  2731  0025F0                     __ptext15:
  2732                           	callstack 0
  2733  0025F0                     _gpio_pin_logic_write:
  2734                           	callstack 22
  2735  0025F0                     
  2736                           ;MCAL/GPIO/gpio.c: 84:     if(((void*)0)==pin ||(pin->pin)>7 || pin_logic>1){
  2737  0025F0  501A               	movf	gpio_pin_logic_write@pin^0,w,c
  2738  0025F2  101B               	iorwf	(gpio_pin_logic_write@pin+1)^0,w,c
  2739  0025F4  B4D8               	btfsc	status,2,c
  2740  0025F6  EFFF  F012         	goto	u8231
  2741  0025FA  EF01  F013         	goto	u8230
  2742  0025FE                     u8231:
  2743  0025FE  EF1A  F013         	goto	l8973
  2744  002602                     u8230:
  2745  002602  C01A  FFD9         	movff	gpio_pin_logic_write@pin,fsr2l
  2746  002606  C01B  FFDA         	movff	gpio_pin_logic_write@pin+1,fsr2h
  2747  00260A  30DF               	rrcf	223,w,c
  2748  00260C  32E8               	rrcf	wreg,f,c
  2749  00260E  32E8               	rrcf	wreg,f,c
  2750  002610  0B07               	andlw	7
  2751  002612  6E1D               	movwf	??_gpio_pin_logic_write^0,c
  2752  002614  0E08               	movlw	8
  2753  002616  601D               	cpfslt	??_gpio_pin_logic_write^0,c
  2754  002618  EF10  F013         	goto	u8241
  2755  00261C  EF12  F013         	goto	u8240
  2756  002620                     u8241:
  2757  002620  EF1A  F013         	goto	l8973
  2758  002624                     u8240:
  2759  002624  0E01               	movlw	1
  2760  002626  641C               	cpfsgt	gpio_pin_logic_write@pin_logic^0,c
  2761  002628  EF18  F013         	goto	u8251
  2762  00262C  EF1A  F013         	goto	u8250
  2763  002630                     u8251:
  2764  002630  EF7F  F013         	goto	l8981
  2765  002634                     u8250:
  2766  002634                     l8973:
  2767                           
  2768                           ;MCAL/GPIO/gpio.c: 85:         ret=(Std_ReturnType)0x00;
  2769  002634  0E00               	movlw	0
  2770  002636  6E23               	movwf	gpio_pin_logic_write@ret^0,c
  2771                           
  2772                           ;MCAL/GPIO/gpio.c: 86:     }
  2773  002638  EF9F  F013         	goto	l8987
  2774  00263C                     l8975:
  2775                           
  2776                           ;MCAL/GPIO/gpio.c: 90:                 (*latx[pin->port] &= ~((uint8)1<<pin->pin));
  2777  00263C  C01A  FFD9         	movff	gpio_pin_logic_write@pin,fsr2l
  2778  002640  C01B  FFDA         	movff	gpio_pin_logic_write@pin+1,fsr2h
  2779  002644  30DF               	rrcf	223,w,c
  2780  002646  32E8               	rrcf	wreg,f,c
  2781  002648  32E8               	rrcf	wreg,f,c
  2782  00264A  0B07               	andlw	7
  2783  00264C  6E1D               	movwf	??_gpio_pin_logic_write^0,c
  2784  00264E  0E01               	movlw	1
  2785  002650  6E1E               	movwf	(??_gpio_pin_logic_write+1)^0,c
  2786  002652  2A1D               	incf	??_gpio_pin_logic_write^0,f,c
  2787  002654  EF2E  F013         	goto	u8264
  2788  002658                     u8265:
  2789  002658  90D8               	bcf	status,0,c
  2790  00265A  361E               	rlcf	(??_gpio_pin_logic_write+1)^0,f,c
  2791  00265C                     u8264:
  2792  00265C  2E1D               	decfsz	??_gpio_pin_logic_write^0,f,c
  2793  00265E  EF2C  F013         	goto	u8265
  2794  002662  501E               	movf	(??_gpio_pin_logic_write+1)^0,w,c
  2795  002664  0AFF               	xorlw	255
  2796  002666  6E1F               	movwf	(??_gpio_pin_logic_write+2)^0,c
  2797  002668  C01A  FFD9         	movff	gpio_pin_logic_write@pin,fsr2l
  2798  00266C  C01B  FFDA         	movff	gpio_pin_logic_write@pin+1,fsr2h
  2799  002670  50DF               	movf	223,w,c
  2800  002672  0B07               	andlw	7
  2801  002674  6E20               	movwf	(??_gpio_pin_logic_write+3)^0,c
  2802  002676  5020               	movf	(??_gpio_pin_logic_write+3)^0,w,c
  2803  002678  0D02               	mullw	2
  2804  00267A  0EE2               	movlw	low _latx
  2805  00267C  24F3               	addwf	243,w,c
  2806  00267E  6ED9               	movwf	fsr2l,c
  2807  002680  0E00               	movlw	high _latx
  2808  002682  20F4               	addwfc	prodh,w,c
  2809  002684  6EDA               	movwf	fsr2h,c
  2810  002686  CFDE F021          	movff	postinc2,??_gpio_pin_logic_write+4
  2811  00268A  CFDD F022          	movff	postdec2,??_gpio_pin_logic_write+5
  2812  00268E  C021  FFD9         	movff	??_gpio_pin_logic_write+4,fsr2l
  2813  002692  C022  FFDA         	movff	??_gpio_pin_logic_write+5,fsr2h
  2814  002696  501F               	movf	(??_gpio_pin_logic_write+2)^0,w,c
  2815  002698  16DF               	andwf	indf2,f,c
  2816                           
  2817                           ;MCAL/GPIO/gpio.c: 91:                 break;
  2818  00269A  EF94  F013         	goto	l8983
  2819  00269E                     l8977:
  2820                           
  2821                           ;MCAL/GPIO/gpio.c: 94:                 (*latx[pin->port] |= ((uint8)1<<pin->pin));
  2822  00269E  C01A  FFD9         	movff	gpio_pin_logic_write@pin,fsr2l
  2823  0026A2  C01B  FFDA         	movff	gpio_pin_logic_write@pin+1,fsr2h
  2824  0026A6  30DF               	rrcf	223,w,c
  2825  0026A8  32E8               	rrcf	wreg,f,c
  2826  0026AA  32E8               	rrcf	wreg,f,c
  2827  0026AC  0B07               	andlw	7
  2828  0026AE  6E1D               	movwf	??_gpio_pin_logic_write^0,c
  2829  0026B0  0E01               	movlw	1
  2830  0026B2  6E1E               	movwf	(??_gpio_pin_logic_write+1)^0,c
  2831  0026B4  2A1D               	incf	??_gpio_pin_logic_write^0,f,c
  2832  0026B6  EF5F  F013         	goto	u8274
  2833  0026BA                     u8275:
  2834  0026BA  90D8               	bcf	status,0,c
  2835  0026BC  361E               	rlcf	(??_gpio_pin_logic_write+1)^0,f,c
  2836  0026BE                     u8274:
  2837  0026BE  2E1D               	decfsz	??_gpio_pin_logic_write^0,f,c
  2838  0026C0  EF5D  F013         	goto	u8275
  2839  0026C4  C01A  FFD9         	movff	gpio_pin_logic_write@pin,fsr2l
  2840  0026C8  C01B  FFDA         	movff	gpio_pin_logic_write@pin+1,fsr2h
  2841  0026CC  50DF               	movf	223,w,c
  2842  0026CE  0B07               	andlw	7
  2843  0026D0  6E1F               	movwf	(??_gpio_pin_logic_write+2)^0,c
  2844  0026D2  501F               	movf	(??_gpio_pin_logic_write+2)^0,w,c
  2845  0026D4  0D02               	mullw	2
  2846  0026D6  0EE2               	movlw	low _latx
  2847  0026D8  24F3               	addwf	243,w,c
  2848  0026DA  6ED9               	movwf	fsr2l,c
  2849  0026DC  0E00               	movlw	high _latx
  2850  0026DE  20F4               	addwfc	prodh,w,c
  2851  0026E0  6EDA               	movwf	fsr2h,c
  2852  0026E2  CFDE F020          	movff	postinc2,??_gpio_pin_logic_write+3
  2853  0026E6  CFDD F021          	movff	postdec2,??_gpio_pin_logic_write+4
  2854  0026EA  C020  FFD9         	movff	??_gpio_pin_logic_write+3,fsr2l
  2855  0026EE  C021  FFDA         	movff	??_gpio_pin_logic_write+4,fsr2h
  2856  0026F2  501E               	movf	(??_gpio_pin_logic_write+1)^0,w,c
  2857  0026F4  12DF               	iorwf	indf2,f,c
  2858                           
  2859                           ;MCAL/GPIO/gpio.c: 95:                 break;
  2860  0026F6  EF94  F013         	goto	l8983
  2861  0026FA                     l8979:
  2862                           
  2863                           ;MCAL/GPIO/gpio.c: 99:         }
  2864  0026FA  EF94  F013         	goto	l8983
  2865  0026FE                     l8981:
  2866  0026FE  501C               	movf	gpio_pin_logic_write@pin_logic^0,w,c
  2867  002700  6E1D               	movwf	??_gpio_pin_logic_write^0,c
  2868  002702  6A1E               	clrf	(??_gpio_pin_logic_write+1)^0,c
  2869                           
  2870                           ; Switch on 2 bytes has been partitioned into a top level switch of size 1, and 1 sub-sw
      +                          itches
  2871                           ; Switch size 1, requested type "simple"
  2872                           ; Number of cases is 1, Range of values is 0 to 0
  2873                           ; switch strategies available:
  2874                           ; Name         Instructions Cycles
  2875                           ; simple_byte            4     3 (average)
  2876                           ;	Chosen strategy is simple_byte
  2877  002704  501E               	movf	(??_gpio_pin_logic_write+1)^0,w,c
  2878  002706  0A00               	xorlw	0	; case 0
  2879  002708  B4D8               	btfsc	status,2,c
  2880  00270A  EF89  F013         	goto	l10783
  2881  00270E  EF7D  F013         	goto	l8979
  2882  002712                     l10783:
  2883                           
  2884                           ; Switch size 1, requested type "simple"
  2885                           ; Number of cases is 2, Range of values is 0 to 1
  2886                           ; switch strategies available:
  2887                           ; Name         Instructions Cycles
  2888                           ; simple_byte            7     4 (average)
  2889                           ;	Chosen strategy is simple_byte
  2890  002712  501D               	movf	??_gpio_pin_logic_write^0,w,c
  2891  002714  0A00               	xorlw	0	; case 0
  2892  002716  B4D8               	btfsc	status,2,c
  2893  002718  EF1E  F013         	goto	l8975
  2894  00271C  0A01               	xorlw	1	; case 1
  2895  00271E  B4D8               	btfsc	status,2,c
  2896  002720  EF4F  F013         	goto	l8977
  2897  002724  EF7D  F013         	goto	l8979
  2898  002728                     l8983:
  2899                           
  2900                           ;MCAL/GPIO/gpio.c: 100:         pin->logic=pin_logic;
  2901  002728  C01A  FFD9         	movff	gpio_pin_logic_write@pin,fsr2l
  2902  00272C  C01B  FFDA         	movff	gpio_pin_logic_write@pin+1,fsr2h
  2903  002730  B01C               	btfsc	gpio_pin_logic_write@pin_logic^0,0,c
  2904  002732  D002               	bra	u8285
  2905  002734  9EDF               	bcf	indf2,7,c
  2906  002736  D001               	bra	u8286
  2907  002738                     u8285:
  2908  002738  8EDF               	bsf	indf2,7,c
  2909  00273A                     u8286:
  2910  00273A                     
  2911                           ;MCAL/GPIO/gpio.c: 101:         ret=(Std_ReturnType)0x01;
  2912  00273A  0E01               	movlw	1
  2913  00273C  6E23               	movwf	gpio_pin_logic_write@ret^0,c
  2914  00273E                     l8987:
  2915                           
  2916                           ;MCAL/GPIO/gpio.c: 104:     return ret;
  2917  00273E  5023               	movf	gpio_pin_logic_write@ret^0,w,c
  2918  002740  0012               	return		;funcret
  2919  002742                     __end_of_gpio_pin_logic_write:
  2920                           	callstack 0
  2921                           
  2922 ;; *************** function _gpio_pin_direction_init *****************
  2923 ;; Defined at:
  2924 ;;		line 23 in file "MCAL/GPIO/gpio.c"
  2925 ;; Parameters:    Size  Location     Type
  2926 ;;  pin             2   25[COMRAM] PTR struct .
  2927 ;;		 -> ccp1.ccp_pin(1), ccp1(15), seg_2.seven_segment_pins(4), seg_2(5), 
  2928 ;;		 -> seg_1.seven_segment_pins(4), seg_1(5), motor2(3), motor1(3), 
  2929 ;;		 -> led_blue(2), led_red(2), SPI_Slave_Mode_GPIO_PIN_Configurations@SS_pin(1), SPI_Slave_Mode_GPIO_PIN_Configuration
      +s@SDO_pin(1), 
  2930 ;;		 -> SPI_Slave_Mode_GPIO_PIN_Configurations@SDI_pin(1), SPI_Slave_Mode_GPIO_PIN_Configurations@SCK_pin(1), SPI_Master
      +_Mode_GPIO_PIN_Configurations@SDO_pin(1), SPI_Master_Mode_GPIO_PIN_Configurations@SDI_pin(1), 
  2931 ;;		 -> SPI_Master_Mode_GPIO_PIN_Configurations@SCK_pin(1), 
  2932 ;;  pin_directio    1   27[COMRAM] enum E2969
  2933 ;; Auto vars:     Size  Location     Type
  2934 ;;  ret             1   34[COMRAM] unsigned char 
  2935 ;; Return value:  Size  Location     Type
  2936 ;;                  1    wreg      unsigned char 
  2937 ;; Registers used:
  2938 ;;		wreg, fsr2l, fsr2h, status,2, status,0, prodl, prodh
  2939 ;; Tracked objects:
  2940 ;;		On entry : 0/0
  2941 ;;		On exit  : 0/0
  2942 ;;		Unchanged: 0/0
  2943 ;; Data sizes:     COMRAM   BANK0   BANK1   BANK2   BANK3   BANK4   BANK5   BANK6   BANK7   BANK8   BANK9  BANK10  BANK1
      +1  BANK12  BANK13  BANK14  BANK15
  2944 ;;      Params:         3       0       0       0       0       0       0       0       0       0       0       0       
      +0       0       0       0       0
  2945 ;;      Locals:         1       0       0       0       0       0       0       0       0       0       0       0       
      +0       0       0       0       0
  2946 ;;      Temps:          6       0       0       0       0       0       0       0       0       0       0       0       
      +0       0       0       0       0
  2947 ;;      Totals:        10       0       0       0       0       0       0       0       0       0       0       0       
      +0       0       0       0       0
  2948 ;;Total ram usage:       10 bytes
  2949 ;; Hardware stack levels used: 1
  2950 ;; Hardware stack levels required when called: 7
  2951 ;; This function calls:
  2952 ;;		Nothing
  2953 ;; This function is called by:
  2954 ;;		_gpio_pin_output_low_init
  2955 ;;		_gpio_pin_output_high_init
  2956 ;;		_gpio_pin_input_init
  2957 ;;		_SPI_Master_Mode_GPIO_PIN_Configurations
  2958 ;;		_SPI_Slave_Mode_GPIO_PIN_Configurations
  2959 ;; This function uses a non-reentrant model
  2960 ;;
  2961                           
  2962                           	psect	text16
  2963  002742                     __ptext16:
  2964                           	callstack 0
  2965  002742                     _gpio_pin_direction_init:
  2966                           	callstack 20
  2967  002742                     
  2968                           ;MCAL/GPIO/gpio.c: 26:     if(((void*)0)==pin || (pin->pin)>7 || pin_direction>1){
  2969  002742  501A               	movf	gpio_pin_direction_init@pin^0,w,c
  2970  002744  101B               	iorwf	(gpio_pin_direction_init@pin+1)^0,w,c
  2971  002746  B4D8               	btfsc	status,2,c
  2972  002748  EFA8  F013         	goto	u8321
  2973  00274C  EFAA  F013         	goto	u8320
  2974  002750                     u8321:
  2975  002750  EFC3  F013         	goto	l9015
  2976  002754                     u8320:
  2977  002754  C01A  FFD9         	movff	gpio_pin_direction_init@pin,fsr2l
  2978  002758  C01B  FFDA         	movff	gpio_pin_direction_init@pin+1,fsr2h
  2979  00275C  30DF               	rrcf	223,w,c
  2980  00275E  32E8               	rrcf	wreg,f,c
  2981  002760  32E8               	rrcf	wreg,f,c
  2982  002762  0B07               	andlw	7
  2983  002764  6E1D               	movwf	??_gpio_pin_direction_init^0,c
  2984  002766  0E08               	movlw	8
  2985  002768  601D               	cpfslt	??_gpio_pin_direction_init^0,c
  2986  00276A  EFB9  F013         	goto	u8331
  2987  00276E  EFBB  F013         	goto	u8330
  2988  002772                     u8331:
  2989  002772  EFC3  F013         	goto	l9015
  2990  002776                     u8330:
  2991  002776  0E01               	movlw	1
  2992  002778  641C               	cpfsgt	gpio_pin_direction_init@pin_direction^0,c
  2993  00277A  EFC1  F013         	goto	u8341
  2994  00277E  EFC3  F013         	goto	u8340
  2995  002782                     u8341:
  2996  002782  EF28  F014         	goto	l9023
  2997  002786                     u8340:
  2998  002786                     l9015:
  2999                           
  3000                           ;MCAL/GPIO/gpio.c: 27:         ret=(Std_ReturnType)0x00;
  3001  002786  0E00               	movlw	0
  3002  002788  6E23               	movwf	gpio_pin_direction_init@ret^0,c
  3003                           
  3004                           ;MCAL/GPIO/gpio.c: 28:     }
  3005  00278A  EF48  F014         	goto	l9029
  3006  00278E                     l9017:
  3007                           
  3008                           ;MCAL/GPIO/gpio.c: 32:                 (*trisx[pin->port] &= ~((uint8)1<<pin->pin));
  3009  00278E  C01A  FFD9         	movff	gpio_pin_direction_init@pin,fsr2l
  3010  002792  C01B  FFDA         	movff	gpio_pin_direction_init@pin+1,fsr2h
  3011  002796  30DF               	rrcf	223,w,c
  3012  002798  32E8               	rrcf	wreg,f,c
  3013  00279A  32E8               	rrcf	wreg,f,c
  3014  00279C  0B07               	andlw	7
  3015  00279E  6E1D               	movwf	??_gpio_pin_direction_init^0,c
  3016  0027A0  0E01               	movlw	1
  3017  0027A2  6E1E               	movwf	(??_gpio_pin_direction_init+1)^0,c
  3018  0027A4  2A1D               	incf	??_gpio_pin_direction_init^0,f,c
  3019  0027A6  EFD7  F013         	goto	u8354
  3020  0027AA                     u8355:
  3021  0027AA  90D8               	bcf	status,0,c
  3022  0027AC  361E               	rlcf	(??_gpio_pin_direction_init+1)^0,f,c
  3023  0027AE                     u8354:
  3024  0027AE  2E1D               	decfsz	??_gpio_pin_direction_init^0,f,c
  3025  0027B0  EFD5  F013         	goto	u8355
  3026  0027B4  501E               	movf	(??_gpio_pin_direction_init+1)^0,w,c
  3027  0027B6  0AFF               	xorlw	255
  3028  0027B8  6E1F               	movwf	(??_gpio_pin_direction_init+2)^0,c
  3029  0027BA  C01A  FFD9         	movff	gpio_pin_direction_init@pin,fsr2l
  3030  0027BE  C01B  FFDA         	movff	gpio_pin_direction_init@pin+1,fsr2h
  3031  0027C2  50DF               	movf	223,w,c
  3032  0027C4  0B07               	andlw	7
  3033  0027C6  6E20               	movwf	(??_gpio_pin_direction_init+3)^0,c
  3034  0027C8  5020               	movf	(??_gpio_pin_direction_init+3)^0,w,c
  3035  0027CA  0D02               	mullw	2
  3036  0027CC  0EEC               	movlw	low _trisx
  3037  0027CE  24F3               	addwf	243,w,c
  3038  0027D0  6ED9               	movwf	fsr2l,c
  3039  0027D2  0E00               	movlw	high _trisx
  3040  0027D4  20F4               	addwfc	prodh,w,c
  3041  0027D6  6EDA               	movwf	fsr2h,c
  3042  0027D8  CFDE F021          	movff	postinc2,??_gpio_pin_direction_init+4
  3043  0027DC  CFDD F022          	movff	postdec2,??_gpio_pin_direction_init+5
  3044  0027E0  C021  FFD9         	movff	??_gpio_pin_direction_init+4,fsr2l
  3045  0027E4  C022  FFDA         	movff	??_gpio_pin_direction_init+5,fsr2h
  3046  0027E8  501F               	movf	(??_gpio_pin_direction_init+2)^0,w,c
  3047  0027EA  16DF               	andwf	indf2,f,c
  3048                           
  3049                           ;MCAL/GPIO/gpio.c: 33:                 break;
  3050  0027EC  EF3D  F014         	goto	l9025
  3051  0027F0                     l9019:
  3052                           
  3053                           ;MCAL/GPIO/gpio.c: 36:                 (*trisx[pin->port] |= ((uint8)1<<pin->pin));
  3054  0027F0  C01A  FFD9         	movff	gpio_pin_direction_init@pin,fsr2l
  3055  0027F4  C01B  FFDA         	movff	gpio_pin_direction_init@pin+1,fsr2h
  3056  0027F8  30DF               	rrcf	223,w,c
  3057  0027FA  32E8               	rrcf	wreg,f,c
  3058  0027FC  32E8               	rrcf	wreg,f,c
  3059  0027FE  0B07               	andlw	7
  3060  002800  6E1D               	movwf	??_gpio_pin_direction_init^0,c
  3061  002802  0E01               	movlw	1
  3062  002804  6E1E               	movwf	(??_gpio_pin_direction_init+1)^0,c
  3063  002806  2A1D               	incf	??_gpio_pin_direction_init^0,f,c
  3064  002808  EF08  F014         	goto	u8364
  3065  00280C                     u8365:
  3066  00280C  90D8               	bcf	status,0,c
  3067  00280E  361E               	rlcf	(??_gpio_pin_direction_init+1)^0,f,c
  3068  002810                     u8364:
  3069  002810  2E1D               	decfsz	??_gpio_pin_direction_init^0,f,c
  3070  002812  EF06  F014         	goto	u8365
  3071  002816  C01A  FFD9         	movff	gpio_pin_direction_init@pin,fsr2l
  3072  00281A  C01B  FFDA         	movff	gpio_pin_direction_init@pin+1,fsr2h
  3073  00281E  50DF               	movf	223,w,c
  3074  002820  0B07               	andlw	7
  3075  002822  6E1F               	movwf	(??_gpio_pin_direction_init+2)^0,c
  3076  002824  501F               	movf	(??_gpio_pin_direction_init+2)^0,w,c
  3077  002826  0D02               	mullw	2
  3078  002828  0EEC               	movlw	low _trisx
  3079  00282A  24F3               	addwf	243,w,c
  3080  00282C  6ED9               	movwf	fsr2l,c
  3081  00282E  0E00               	movlw	high _trisx
  3082  002830  20F4               	addwfc	prodh,w,c
  3083  002832  6EDA               	movwf	fsr2h,c
  3084  002834  CFDE F020          	movff	postinc2,??_gpio_pin_direction_init+3
  3085  002838  CFDD F021          	movff	postdec2,??_gpio_pin_direction_init+4
  3086  00283C  C020  FFD9         	movff	??_gpio_pin_direction_init+3,fsr2l
  3087  002840  C021  FFDA         	movff	??_gpio_pin_direction_init+4,fsr2h
  3088  002844  501E               	movf	(??_gpio_pin_direction_init+1)^0,w,c
  3089  002846  12DF               	iorwf	indf2,f,c
  3090                           
  3091                           ;MCAL/GPIO/gpio.c: 37:                 break;
  3092  002848  EF3D  F014         	goto	l9025
  3093  00284C                     l9021:
  3094                           
  3095                           ;MCAL/GPIO/gpio.c: 41:         }
  3096  00284C  EF3D  F014         	goto	l9025
  3097  002850                     l9023:
  3098  002850  501C               	movf	gpio_pin_direction_init@pin_direction^0,w,c
  3099  002852  6E1D               	movwf	??_gpio_pin_direction_init^0,c
  3100  002854  6A1E               	clrf	(??_gpio_pin_direction_init+1)^0,c
  3101                           
  3102                           ; Switch on 2 bytes has been partitioned into a top level switch of size 1, and 1 sub-sw
      +                          itches
  3103                           ; Switch size 1, requested type "simple"
  3104                           ; Number of cases is 1, Range of values is 0 to 0
  3105                           ; switch strategies available:
  3106                           ; Name         Instructions Cycles
  3107                           ; simple_byte            4     3 (average)
  3108                           ;	Chosen strategy is simple_byte
  3109  002856  501E               	movf	(??_gpio_pin_direction_init+1)^0,w,c
  3110  002858  0A00               	xorlw	0	; case 0
  3111  00285A  B4D8               	btfsc	status,2,c
  3112  00285C  EF32  F014         	goto	l10785
  3113  002860  EF26  F014         	goto	l9021
  3114  002864                     l10785:
  3115                           
  3116                           ; Switch size 1, requested type "simple"
  3117                           ; Number of cases is 2, Range of values is 0 to 1
  3118                           ; switch strategies available:
  3119                           ; Name         Instructions Cycles
  3120                           ; simple_byte            7     4 (average)
  3121                           ;	Chosen strategy is simple_byte
  3122  002864  501D               	movf	??_gpio_pin_direction_init^0,w,c
  3123  002866  0A00               	xorlw	0	; case 0
  3124  002868  B4D8               	btfsc	status,2,c
  3125  00286A  EFC7  F013         	goto	l9017
  3126  00286E  0A01               	xorlw	1	; case 1
  3127  002870  B4D8               	btfsc	status,2,c
  3128  002872  EFF8  F013         	goto	l9019
  3129  002876  EF26  F014         	goto	l9021
  3130  00287A                     l9025:
  3131                           
  3132                           ;MCAL/GPIO/gpio.c: 42:         pin->direction=pin_direction;
  3133  00287A  C01A  FFD9         	movff	gpio_pin_direction_init@pin,fsr2l
  3134  00287E  C01B  FFDA         	movff	gpio_pin_direction_init@pin+1,fsr2h
  3135  002882  B01C               	btfsc	gpio_pin_direction_init@pin_direction^0,0,c
  3136  002884  D002               	bra	u8375
  3137  002886  9CDF               	bcf	indf2,6,c
  3138  002888  D001               	bra	u8376
  3139  00288A                     u8375:
  3140  00288A  8CDF               	bsf	indf2,6,c
  3141  00288C                     u8376:
  3142  00288C                     
  3143                           ;MCAL/GPIO/gpio.c: 43:         ret=(Std_ReturnType)0x01;
  3144  00288C  0E01               	movlw	1
  3145  00288E  6E23               	movwf	gpio_pin_direction_init@ret^0,c
  3146  002890                     l9029:
  3147                           
  3148                           ;MCAL/GPIO/gpio.c: 46:     return ret;
  3149  002890  5023               	movf	gpio_pin_direction_init@ret^0,w,c
  3150  002892  0012               	return		;funcret
  3151  002894                     __end_of_gpio_pin_direction_init:
  3152                           	callstack 0
  3153                           
  3154 ;; *************** function _CCP_PWM_Mode_Config *****************
  3155 ;; Defined at:
  3156 ;;		line 269 in file "MCAL/CCP/hal_ccp.c"
  3157 ;; Parameters:    Size  Location     Type
  3158 ;;  _ccp_obj        2    8[BANK1 ] PTR const struct .
  3159 ;;		 -> ccp1(15), 
  3160 ;; Auto vars:     Size  Location     Type
  3161 ;;		None
  3162 ;; Return value:  Size  Location     Type
  3163 ;;                  1    wreg      void 
  3164 ;; Registers used:
  3165 ;;		wreg, fsr2l, fsr2h, status,2, status,0, prodl, prodh, cstack
  3166 ;; Tracked objects:
  3167 ;;		On entry : 0/0
  3168 ;;		On exit  : 0/0
  3169 ;;		Unchanged: 0/0
  3170 ;; Data sizes:     COMRAM   BANK0   BANK1   BANK2   BANK3   BANK4   BANK5   BANK6   BANK7   BANK8   BANK9  BANK10  BANK1
      +1  BANK12  BANK13  BANK14  BANK15
  3171 ;;      Params:         0       0       2       0       0       0       0       0       0       0       0       0       
      +0       0       0       0       0
  3172 ;;      Locals:         0       0       8       0       0       0       0       0       0       0       0       0       
      +0       0       0       0       0
  3173 ;;      Temps:          0       0       2       0       0       0       0       0       0       0       0       0       
      +0       0       0       0       0
  3174 ;;      Totals:         0       0      12       0       0       0       0       0       0       0       0       0       
      +0       0       0       0       0
  3175 ;;Total ram usage:       12 bytes
  3176 ;; Hardware stack levels used: 1
  3177 ;; Hardware stack levels required when called: 8
  3178 ;; This function calls:
  3179 ;;		___fladd
  3180 ;;		___fldiv
  3181 ;;		___flmul
  3182 ;;		___fltol
  3183 ;;		___xxtofl
  3184 ;; This function is called by:
  3185 ;;		_CCP_Init
  3186 ;; This function uses a non-reentrant model
  3187 ;;
  3188                           
  3189                           	psect	text17
  3190  001F64                     __ptext17:
  3191                           	callstack 0
  3192  001F64                     _CCP_PWM_Mode_Config:
  3193                           	callstack 20
  3194  001F64                     
  3195                           ;MCAL/CCP/hal_ccp.c: 271:     PR2 = (uint8)(((float)8000000 / ((float)_ccp_obj->PWM_Freq
      +                          uency * 4.0 * (float)_ccp_obj->timer2_prescaler_value *
  3196  001F64  0E00               	movlw	0
  3197  001F66  6E2C               	movwf	___flmul@a^0,c
  3198  001F68  0E00               	movlw	0
  3199  001F6A  6E2D               	movwf	(___flmul@a+1)^0,c
  3200  001F6C  0E80               	movlw	128
  3201  001F6E  6E2E               	movwf	(___flmul@a+2)^0,c
  3202  001F70  0E40               	movlw	64
  3203  001F72  6E2F               	movwf	(___flmul@a+3)^0,c
  3204  001F74  0101               	movlb	1	; () banked
  3205  001F76  EE20 F005          	lfsr	2,5
  3206  001F7A  513B               	movf	CCP_PWM_Mode_Config@_ccp_obj& (0+255),w,b
  3207  001F7C  26D9               	addwf	fsr2l,f,c
  3208  001F7E  513C               	movf	(CCP_PWM_Mode_Config@_ccp_obj+1)& (0+255),w,b
  3209  001F80  22DA               	addwfc	fsr2h,f,c
  3210  001F82  CFDE F13D          	movff	postinc2,??_CCP_PWM_Mode_Config
  3211  001F86  CFDD F13E          	movff	postdec2,??_CCP_PWM_Mode_Config+1
  3212  001F8A  C13D  F01A         	movff	??_CCP_PWM_Mode_Config,___xxtofl@val
  3213  001F8E  C13E  F01B         	movff	??_CCP_PWM_Mode_Config+1,___xxtofl@val+1
  3214  001F92  6A1C               	clrf	(___xxtofl@val+2)^0,c
  3215  001F94  6A1D               	clrf	(___xxtofl@val+3)^0,c
  3216  001F96  0E00               	movlw	0
  3217  001F98  ECA1  F010         	call	___xxtofl
  3218  001F9C  C01A  F028         	movff	?___xxtofl,___flmul@b
  3219  001FA0  C01B  F029         	movff	?___xxtofl+1,___flmul@b+1
  3220  001FA4  C01C  F02A         	movff	?___xxtofl+2,___flmul@b+2
  3221  001FA8  C01D  F02B         	movff	?___xxtofl+3,___flmul@b+3
  3222  001FAC  EC64  F00A         	call	___flmul	;wreg free
  3223  001FB0  C028  F13F         	movff	?___flmul,_CCP_PWM_Mode_Config$5874
  3224  001FB4  C029  F140         	movff	?___flmul+1,_CCP_PWM_Mode_Config$5874+1
  3225  001FB8  C02A  F141         	movff	?___flmul+2,_CCP_PWM_Mode_Config$5874+2
  3226  001FBC  C02B  F142         	movff	?___flmul+3,_CCP_PWM_Mode_Config$5874+3
  3227                           
  3228                           ;MCAL/CCP/hal_ccp.c: 271:     PR2 = (uint8)(((float)8000000 / ((float)_ccp_obj->PWM_Freq
      +                          uency * 4.0 * (float)_ccp_obj->timer2_prescaler_value *
  3229  001FC0  0101               	movlb	1	; () banked
  3230  001FC2  EE20 F008          	lfsr	2,8
  3231  001FC6  513B               	movf	CCP_PWM_Mode_Config@_ccp_obj& (0+255),w,b
  3232  001FC8  26D9               	addwf	fsr2l,f,c
  3233  001FCA  513C               	movf	(CCP_PWM_Mode_Config@_ccp_obj+1)& (0+255),w,b
  3234  001FCC  22DA               	addwfc	fsr2h,f,c
  3235  001FCE  50DF               	movf	indf2,w,c
  3236  001FD0  6F3D               	movwf	??_CCP_PWM_Mode_Config& (0+255),b
  3237  001FD2  513D               	movf	??_CCP_PWM_Mode_Config& (0+255),w,b
  3238  001FD4  6E1A               	movwf	___xxtofl@val^0,c
  3239  001FD6  6A1B               	clrf	(___xxtofl@val+1)^0,c
  3240  001FD8  6A1C               	clrf	(___xxtofl@val+2)^0,c
  3241  001FDA  6A1D               	clrf	(___xxtofl@val+3)^0,c
  3242  001FDC  0E00               	movlw	0
  3243  001FDE  ECA1  F010         	call	___xxtofl
  3244  001FE2  C01A  F02C         	movff	?___xxtofl,___flmul@a
  3245  001FE6  C01B  F02D         	movff	?___xxtofl+1,___flmul@a+1
  3246  001FEA  C01C  F02E         	movff	?___xxtofl+2,___flmul@a+2
  3247  001FEE  C01D  F02F         	movff	?___xxtofl+3,___flmul@a+3
  3248  001FF2  C13F  F028         	movff	_CCP_PWM_Mode_Config$5874,___flmul@b
  3249  001FF6  C140  F029         	movff	_CCP_PWM_Mode_Config$5874+1,___flmul@b+1
  3250  001FFA  C141  F02A         	movff	_CCP_PWM_Mode_Config$5874+2,___flmul@b+2
  3251  001FFE  C142  F02B         	movff	_CCP_PWM_Mode_Config$5874+3,___flmul@b+3
  3252  002002  EC64  F00A         	call	___flmul	;wreg free
  3253  002006  C028  F143         	movff	?___flmul,_CCP_PWM_Mode_Config$5875
  3254  00200A  C029  F144         	movff	?___flmul+1,_CCP_PWM_Mode_Config$5875+1
  3255  00200E  C02A  F145         	movff	?___flmul+2,_CCP_PWM_Mode_Config$5875+2
  3256  002012  C02B  F146         	movff	?___flmul+3,_CCP_PWM_Mode_Config$5875+3
  3257                           
  3258                           ;MCAL/CCP/hal_ccp.c: 271:     PR2 = (uint8)(((float)8000000 / ((float)_ccp_obj->PWM_Freq
      +                          uency * 4.0 * (float)_ccp_obj->timer2_prescaler_value *
  3259  002016  0E00               	movlw	0
  3260  002018  0100               	movlb	0	; () banked
  3261  00201A  6FD3               	movwf	___fladd@a& (0+255),b
  3262  00201C  0E00               	movlw	0
  3263  00201E  6FD4               	movwf	(___fladd@a+1)& (0+255),b
  3264  002020  0E80               	movlw	128
  3265  002022  6FD5               	movwf	(___fladd@a+2)& (0+255),b
  3266  002024  0EBF               	movlw	191
  3267  002026  6FD6               	movwf	(___fladd@a+3)& (0+255),b
  3268  002028  0101               	movlb	1	; () banked
  3269  00202A  EE20 F007          	lfsr	2,7
  3270  00202E  513B               	movf	CCP_PWM_Mode_Config@_ccp_obj& (0+255),w,b
  3271  002030  26D9               	addwf	fsr2l,f,c
  3272  002032  513C               	movf	(CCP_PWM_Mode_Config@_ccp_obj+1)& (0+255),w,b
  3273  002034  22DA               	addwfc	fsr2h,f,c
  3274  002036  50DF               	movf	indf2,w,c
  3275  002038  6F3D               	movwf	??_CCP_PWM_Mode_Config& (0+255),b
  3276  00203A  513D               	movf	??_CCP_PWM_Mode_Config& (0+255),w,b
  3277  00203C  6E1A               	movwf	___xxtofl@val^0,c
  3278  00203E  6A1B               	clrf	(___xxtofl@val+1)^0,c
  3279  002040  6A1C               	clrf	(___xxtofl@val+2)^0,c
  3280  002042  6A1D               	clrf	(___xxtofl@val+3)^0,c
  3281  002044  0E00               	movlw	0
  3282  002046  ECA1  F010         	call	___xxtofl
  3283  00204A  C01A  F02C         	movff	?___xxtofl,___flmul@a
  3284  00204E  C01B  F02D         	movff	?___xxtofl+1,___flmul@a+1
  3285  002052  C01C  F02E         	movff	?___xxtofl+2,___flmul@a+2
  3286  002056  C01D  F02F         	movff	?___xxtofl+3,___flmul@a+3
  3287  00205A  C143  F028         	movff	_CCP_PWM_Mode_Config$5875,___flmul@b
  3288  00205E  C144  F029         	movff	_CCP_PWM_Mode_Config$5875+1,___flmul@b+1
  3289  002062  C145  F02A         	movff	_CCP_PWM_Mode_Config$5875+2,___flmul@b+2
  3290  002066  C146  F02B         	movff	_CCP_PWM_Mode_Config$5875+3,___flmul@b+3
  3291  00206A  EC64  F00A         	call	___flmul	;wreg free
  3292  00206E  C028  F045         	movff	?___flmul,___fldiv@a
  3293  002072  C029  F046         	movff	?___flmul+1,___fldiv@a+1
  3294  002076  C02A  F047         	movff	?___flmul+2,___fldiv@a+2
  3295  00207A  C02B  F048         	movff	?___flmul+3,___fldiv@a+3
  3296  00207E  0E00               	movlw	0
  3297  002080  6E41               	movwf	___fldiv@b^0,c
  3298  002082  0E24               	movlw	36
  3299  002084  6E42               	movwf	(___fldiv@b+1)^0,c
  3300  002086  0EF4               	movlw	244
  3301  002088  6E43               	movwf	(___fldiv@b+2)^0,c
  3302  00208A  0E4A               	movlw	74
  3303  00208C  6E44               	movwf	(___fldiv@b+3)^0,c
  3304  00208E  EC79  F00C         	call	___fldiv	;wreg free
  3305  002092  C041  F0CF         	movff	?___fldiv,___fladd@b
  3306  002096  C042  F0D0         	movff	?___fldiv+1,___fladd@b+1
  3307  00209A  C043  F0D1         	movff	?___fldiv+2,___fladd@b+2
  3308  00209E  C044  F0D2         	movff	?___fldiv+3,___fladd@b+3
  3309  0020A2  EC03  F008         	call	___fladd	;wreg free
  3310  0020A6  C0CF  F133         	movff	?___fladd,___fltol@f1
  3311  0020AA  C0D0  F134         	movff	?___fladd+1,___fltol@f1+1
  3312  0020AE  C0D1  F135         	movff	?___fladd+2,___fltol@f1+2
  3313  0020B2  C0D2  F136         	movff	?___fladd+3,___fltol@f1+3
  3314  0020B6  ECD0  F016         	call	___fltol	;wreg free
  3315  0020BA  0101               	movlb	1	; () banked
  3316  0020BC  5133               	movf	?___fltol& (0+255),w,b
  3317  0020BE  6ECB               	movwf	203,c	;volatile
  3318  0020C0                     
  3319                           ; BSR set to: 1
  3320                           ;MCAL/CCP/hal_ccp.c: 274:     if(CCP1_INST == _ccp_obj->ccp_inst){
  3321  0020C0  C13B  FFD9         	movff	CCP_PWM_Mode_Config@_ccp_obj,fsr2l
  3322  0020C4  C13C  FFDA         	movff	CCP_PWM_Mode_Config@_ccp_obj+1,fsr2h
  3323  0020C8  50DF               	movf	indf2,w,c
  3324  0020CA  A4D8               	btfss	status,2,c
  3325  0020CC  EF6A  F010         	goto	u9431
  3326  0020D0  EF6C  F010         	goto	u9430
  3327  0020D4                     u9431:
  3328  0020D4  EF81  F010         	goto	l9735
  3329  0020D8                     u9430:
  3330  0020D8                     
  3331                           ; BSR set to: 1
  3332                           ;MCAL/CCP/hal_ccp.c: 275:         if(((uint8)0x0C) == _ccp_obj->ccp_mode_variant){
  3333  0020D8  EE20 F002          	lfsr	2,2
  3334  0020DC  513B               	movf	CCP_PWM_Mode_Config@_ccp_obj& (0+255),w,b
  3335  0020DE  26D9               	addwf	fsr2l,f,c
  3336  0020E0  513C               	movf	(CCP_PWM_Mode_Config@_ccp_obj+1)& (0+255),w,b
  3337  0020E2  22DA               	addwfc	fsr2h,f,c
  3338  0020E4  0E0C               	movlw	12
  3339  0020E6  18DE               	xorwf	postinc2,w,c
  3340  0020E8  A4D8               	btfss	status,2,c
  3341  0020EA  EF79  F010         	goto	u9441
  3342  0020EE  EF7B  F010         	goto	u9440
  3343  0020F2                     u9441:
  3344  0020F2  EFA0  F010         	goto	l526
  3345  0020F6                     u9440:
  3346  0020F6                     
  3347                           ; BSR set to: 1
  3348                           ;MCAL/CCP/hal_ccp.c: 276:             (CCP1CONbits.CCP1M = ((uint8)0x0C));
  3349  0020F6  50BD               	movf	189,w,c	;volatile
  3350  0020F8  0BF0               	andlw	-16
  3351  0020FA  090C               	iorlw	12
  3352  0020FC  6EBD               	movwf	189,c	;volatile
  3353                           
  3354                           ;MCAL/CCP/hal_ccp.c: 277:         }
  3355  0020FE  EFA0  F010         	goto	l526
  3356  002102                     l9735:
  3357                           
  3358                           ; BSR set to: 1
  3359  002102  C13B  FFD9         	movff	CCP_PWM_Mode_Config@_ccp_obj,fsr2l
  3360  002106  C13C  FFDA         	movff	CCP_PWM_Mode_Config@_ccp_obj+1,fsr2h
  3361  00210A  04DE               	decf	postinc2,w,c
  3362  00210C  A4D8               	btfss	status,2,c
  3363  00210E  EF8B  F010         	goto	u9451
  3364  002112  EF8D  F010         	goto	u9450
  3365  002116                     u9451:
  3366  002116  EFA0  F010         	goto	l526
  3367  00211A                     u9450:
  3368  00211A                     
  3369                           ; BSR set to: 1
  3370                           ;MCAL/CCP/hal_ccp.c: 281:         if(((uint8)0x0C) == _ccp_obj->ccp_mode_variant){
  3371  00211A  EE20 F002          	lfsr	2,2
  3372  00211E  513B               	movf	CCP_PWM_Mode_Config@_ccp_obj& (0+255),w,b
  3373  002120  26D9               	addwf	fsr2l,f,c
  3374  002122  513C               	movf	(CCP_PWM_Mode_Config@_ccp_obj+1)& (0+255),w,b
  3375  002124  22DA               	addwfc	fsr2h,f,c
  3376  002126  0E0C               	movlw	12
  3377  002128  18DE               	xorwf	postinc2,w,c
  3378  00212A  A4D8               	btfss	status,2,c
  3379  00212C  EF9A  F010         	goto	u9461
  3380  002130  EF9C  F010         	goto	u9460
  3381  002134                     u9461:
  3382  002134  EFA0  F010         	goto	l526
  3383  002138                     u9460:
  3384  002138                     
  3385                           ; BSR set to: 1
  3386                           ;MCAL/CCP/hal_ccp.c: 282:             (CCP2CONbits.CCP2M = ((uint8)0x0C));
  3387  002138  50BA               	movf	186,w,c	;volatile
  3388  00213A  0BF0               	andlw	-16
  3389  00213C  090C               	iorlw	12
  3390  00213E  6EBA               	movwf	186,c	;volatile
  3391  002140                     l526:
  3392                           
  3393                           ; BSR set to: 1
  3394  002140  0012               	return		;funcret
  3395  002142                     __end_of_CCP_PWM_Mode_Config:
  3396                           	callstack 0
  3397                           
  3398 ;; *************** function _CCP_Interrupt_Config *****************
  3399 ;; Defined at:
  3400 ;;		line 290 in file "MCAL/CCP/hal_ccp.c"
  3401 ;; Parameters:    Size  Location     Type
  3402 ;;  _ccp_obj        2   25[COMRAM] PTR const struct .
  3403 ;;		 -> ccp1(15), 
  3404 ;; Auto vars:     Size  Location     Type
  3405 ;;		None
  3406 ;; Return value:  Size  Location     Type
  3407 ;;                  1    wreg      void 
  3408 ;; Registers used:
  3409 ;;		wreg, fsr2l, fsr2h, status,2, status,0
  3410 ;; Tracked objects:
  3411 ;;		On entry : 0/0
  3412 ;;		On exit  : 0/0
  3413 ;;		Unchanged: 0/0
  3414 ;; Data sizes:     COMRAM   BANK0   BANK1   BANK2   BANK3   BANK4   BANK5   BANK6   BANK7   BANK8   BANK9  BANK10  BANK1
      +1  BANK12  BANK13  BANK14  BANK15
  3415 ;;      Params:         2       0       0       0       0       0       0       0       0       0       0       0       
      +0       0       0       0       0
  3416 ;;      Locals:         0       0       0       0       0       0       0       0       0       0       0       0       
      +0       0       0       0       0
  3417 ;;      Temps:          0       0       0       0       0       0       0       0       0       0       0       0       
      +0       0       0       0       0
  3418 ;;      Totals:         2       0       0       0       0       0       0       0       0       0       0       0       
      +0       0       0       0       0
  3419 ;;Total ram usage:        2 bytes
  3420 ;; Hardware stack levels used: 1
  3421 ;; Hardware stack levels required when called: 7
  3422 ;; This function calls:
  3423 ;;		Nothing
  3424 ;; This function is called by:
  3425 ;;		_CCP_Init
  3426 ;; This function uses a non-reentrant model
  3427 ;;
  3428                           
  3429                           	psect	text18
  3430  00373E                     __ptext18:
  3431                           	callstack 0
  3432  00373E                     _CCP_Interrupt_Config:
  3433                           	callstack 21
  3434  00373E                     
  3435                           ;MCAL/CCP/hal_ccp.c: 293:     (PIE1bits.CCP1IE = 1);
  3436  00373E  849D               	bsf	157,2,c	;volatile
  3437                           
  3438                           ;MCAL/CCP/hal_ccp.c: 294:     (PIR1bits.CCP1IF = 0);
  3439  003740  949E               	bcf	158,2,c	;volatile
  3440  003742                     
  3441                           ;MCAL/CCP/hal_ccp.c: 295:     CCP1_InterruptHandler = _ccp_obj->CCP1_InterruptHandler;
  3442  003742  EE20 F009          	lfsr	2,9
  3443  003746  501A               	movf	CCP_Interrupt_Config@_ccp_obj^0,w,c
  3444  003748  26D9               	addwf	fsr2l,f,c
  3445  00374A  501B               	movf	(CCP_Interrupt_Config@_ccp_obj+1)^0,w,c
  3446  00374C  22DA               	addwfc	fsr2h,f,c
  3447  00374E  CFDE F0BC          	movff	postinc2,_CCP1_InterruptHandler
  3448  003752  CFDD F0BD          	movff	postdec2,_CCP1_InterruptHandler+1
  3449  003756                     
  3450                           ;MCAL/CCP/hal_ccp.c: 311:     (INTCONbits.GIE=1);
  3451  003756  8EF2               	bsf	242,7,c	;volatile
  3452  003758                     
  3453                           ;MCAL/CCP/hal_ccp.c: 312:     (INTCONbits.PEIE=1);
  3454  003758  8CF2               	bsf	242,6,c	;volatile
  3455  00375A                     
  3456                           ;MCAL/CCP/hal_ccp.c: 318:     (PIE2bits.CCP2IE = 1);
  3457  00375A  80A0               	bsf	160,0,c	;volatile
  3458  00375C                     
  3459                           ;MCAL/CCP/hal_ccp.c: 319:     (PIR2bits.CCP2IF = 0);
  3460  00375C  90A1               	bcf	161,0,c	;volatile
  3461                           
  3462                           ;MCAL/CCP/hal_ccp.c: 320:     CCP2_InterruptHandler = _ccp_obj->CCP2_InterruptHandler;
  3463  00375E  EE20 F00C          	lfsr	2,12
  3464  003762  501A               	movf	CCP_Interrupt_Config@_ccp_obj^0,w,c
  3465  003764  26D9               	addwf	fsr2l,f,c
  3466  003766  501B               	movf	(CCP_Interrupt_Config@_ccp_obj+1)^0,w,c
  3467  003768  22DA               	addwfc	fsr2h,f,c
  3468  00376A  CFDE F0BA          	movff	postinc2,_CCP2_InterruptHandler
  3469  00376E  CFDD F0BB          	movff	postdec2,_CCP2_InterruptHandler+1
  3470  003772                     
  3471                           ;MCAL/CCP/hal_ccp.c: 336:     (INTCONbits.GIE=1);
  3472  003772  8EF2               	bsf	242,7,c	;volatile
  3473  003774                     
  3474                           ;MCAL/CCP/hal_ccp.c: 337:     (INTCONbits.PEIE=1);
  3475  003774  8CF2               	bsf	242,6,c	;volatile
  3476  003776  0012               	return		;funcret
  3477  003778                     __end_of_CCP_Interrupt_Config:
  3478                           	callstack 0
  3479                           
  3480 ;; *************** function _CCP_Compare_Mode_Config *****************
  3481 ;; Defined at:
  3482 ;;		line 392 in file "MCAL/CCP/hal_ccp.c"
  3483 ;; Parameters:    Size  Location     Type
  3484 ;;  _ccp_obj        2   28[COMRAM] PTR const struct .
  3485 ;;		 -> ccp1(15), 
  3486 ;; Auto vars:     Size  Location     Type
  3487 ;;  ret             1   32[COMRAM] unsigned char 
  3488 ;; Return value:  Size  Location     Type
  3489 ;;                  1    wreg      unsigned char 
  3490 ;; Registers used:
  3491 ;;		wreg, fsr2l, fsr2h, status,2, status,0, cstack
  3492 ;; Tracked objects:
  3493 ;;		On entry : 0/0
  3494 ;;		On exit  : 0/0
  3495 ;;		Unchanged: 0/0
  3496 ;; Data sizes:     COMRAM   BANK0   BANK1   BANK2   BANK3   BANK4   BANK5   BANK6   BANK7   BANK8   BANK9  BANK10  BANK1
      +1  BANK12  BANK13  BANK14  BANK15
  3497 ;;      Params:         2       0       0       0       0       0       0       0       0       0       0       0       
      +0       0       0       0       0
  3498 ;;      Locals:         1       0       0       0       0       0       0       0       0       0       0       0       
      +0       0       0       0       0
  3499 ;;      Temps:          2       0       0       0       0       0       0       0       0       0       0       0       
      +0       0       0       0       0
  3500 ;;      Totals:         5       0       0       0       0       0       0       0       0       0       0       0       
      +0       0       0       0       0
  3501 ;;Total ram usage:        5 bytes
  3502 ;; Hardware stack levels used: 1
  3503 ;; Hardware stack levels required when called: 8
  3504 ;; This function calls:
  3505 ;;		_CCP_Mode_Timer_Select
  3506 ;; This function is called by:
  3507 ;;		_CCP_Init
  3508 ;; This function uses a non-reentrant model
  3509 ;;
  3510                           
  3511                           	psect	text19
  3512  002488                     __ptext19:
  3513                           	callstack 0
  3514  002488                     _CCP_Compare_Mode_Config:
  3515                           	callstack 20
  3516  002488                     
  3517                           ;MCAL/CCP/hal_ccp.c: 393:     Std_ReturnType ret = (Std_ReturnType)0x01;
  3518  002488  0E01               	movlw	1
  3519  00248A  6E21               	movwf	CCP_Compare_Mode_Config@ret^0,c
  3520  00248C                     
  3521                           ;MCAL/CCP/hal_ccp.c: 395:     if(CCP1_INST == _ccp_obj->ccp_inst){
  3522  00248C  C01D  FFD9         	movff	CCP_Compare_Mode_Config@_ccp_obj,fsr2l
  3523  002490  C01E  FFDA         	movff	CCP_Compare_Mode_Config@_ccp_obj+1,fsr2h
  3524  002494  50DF               	movf	indf2,w,c
  3525  002496  A4D8               	btfss	status,2,c
  3526  002498  EF50  F012         	goto	u9411
  3527  00249C  EF52  F012         	goto	u9410
  3528  0024A0                     u9411:
  3529  0024A0  EF9D  F012         	goto	l9695
  3530  0024A4                     u9410:
  3531  0024A4  EF76  F012         	goto	l9693
  3532  0024A8                     l9681:
  3533  0024A8  50BD               	movf	189,w,c	;volatile
  3534  0024AA  0BF0               	andlw	-16
  3535  0024AC  0908               	iorlw	8
  3536  0024AE  6EBD               	movwf	189,c	;volatile
  3537  0024B0  EFF0  F012         	goto	l9713
  3538  0024B4                     l9683:
  3539  0024B4  50BD               	movf	189,w,c	;volatile
  3540  0024B6  0BF0               	andlw	-16
  3541  0024B8  0909               	iorlw	9
  3542  0024BA  6EBD               	movwf	189,c	;volatile
  3543  0024BC  EFF0  F012         	goto	l9713
  3544  0024C0                     l9685:
  3545  0024C0  50BD               	movf	189,w,c	;volatile
  3546  0024C2  0BF0               	andlw	-16
  3547  0024C4  0902               	iorlw	2
  3548  0024C6  6EBD               	movwf	189,c	;volatile
  3549  0024C8  EFF0  F012         	goto	l9713
  3550  0024CC                     l9687:
  3551  0024CC  50BD               	movf	189,w,c	;volatile
  3552  0024CE  0BF0               	andlw	-16
  3553  0024D0  090A               	iorlw	10
  3554  0024D2  6EBD               	movwf	189,c	;volatile
  3555  0024D4  EFF0  F012         	goto	l9713
  3556  0024D8                     l9689:
  3557  0024D8  50BD               	movf	189,w,c	;volatile
  3558  0024DA  0BF0               	andlw	-16
  3559  0024DC  090B               	iorlw	11
  3560  0024DE  6EBD               	movwf	189,c	;volatile
  3561  0024E0  EFF0  F012         	goto	l9713
  3562  0024E4                     l9691:
  3563  0024E4  0E00               	movlw	0
  3564  0024E6  6E21               	movwf	CCP_Compare_Mode_Config@ret^0,c
  3565                           
  3566                           ;MCAL/CCP/hal_ccp.c: 404:         }
  3567  0024E8  EFF0  F012         	goto	l9713
  3568  0024EC                     l9693:
  3569  0024EC  EE20 F002          	lfsr	2,2
  3570  0024F0  501D               	movf	CCP_Compare_Mode_Config@_ccp_obj^0,w,c
  3571  0024F2  26D9               	addwf	fsr2l,f,c
  3572  0024F4  501E               	movf	(CCP_Compare_Mode_Config@_ccp_obj+1)^0,w,c
  3573  0024F6  22DA               	addwfc	fsr2h,f,c
  3574  0024F8  50DF               	movf	indf2,w,c
  3575  0024FA  6E1F               	movwf	??_CCP_Compare_Mode_Config^0,c
  3576  0024FC  6A20               	clrf	(??_CCP_Compare_Mode_Config+1)^0,c
  3577                           
  3578                           ; Switch on 2 bytes has been partitioned into a top level switch of size 1, and 1 sub-sw
      +                          itches
  3579                           ; Switch size 1, requested type "simple"
  3580                           ; Number of cases is 1, Range of values is 0 to 0
  3581                           ; switch strategies available:
  3582                           ; Name         Instructions Cycles
  3583                           ; simple_byte            4     3 (average)
  3584                           ;	Chosen strategy is simple_byte
  3585  0024FE  5020               	movf	(??_CCP_Compare_Mode_Config+1)^0,w,c
  3586  002500  0A00               	xorlw	0	; case 0
  3587  002502  B4D8               	btfsc	status,2,c
  3588  002504  EF86  F012         	goto	l10787
  3589  002508  EF72  F012         	goto	l9691
  3590  00250C                     l10787:
  3591                           
  3592                           ; Switch size 1, requested type "simple"
  3593                           ; Number of cases is 5, Range of values is 2 to 11
  3594                           ; switch strategies available:
  3595                           ; Name         Instructions Cycles
  3596                           ; simple_byte           16     9 (average)
  3597                           ;	Chosen strategy is simple_byte
  3598  00250C  501F               	movf	??_CCP_Compare_Mode_Config^0,w,c
  3599  00250E  0A02               	xorlw	2	; case 2
  3600  002510  B4D8               	btfsc	status,2,c
  3601  002512  EF60  F012         	goto	l9685
  3602  002516  0A0A               	xorlw	10	; case 8
  3603  002518  B4D8               	btfsc	status,2,c
  3604  00251A  EF54  F012         	goto	l9681
  3605  00251E  0A01               	xorlw	1	; case 9
  3606  002520  B4D8               	btfsc	status,2,c
  3607  002522  EF5A  F012         	goto	l9683
  3608  002526  0A03               	xorlw	3	; case 10
  3609  002528  B4D8               	btfsc	status,2,c
  3610  00252A  EF66  F012         	goto	l9687
  3611  00252E  0A01               	xorlw	1	; case 11
  3612  002530  B4D8               	btfsc	status,2,c
  3613  002532  EF6C  F012         	goto	l9689
  3614  002536  EF72  F012         	goto	l9691
  3615  00253A                     l9695:
  3616  00253A  C01D  FFD9         	movff	CCP_Compare_Mode_Config@_ccp_obj,fsr2l
  3617  00253E  C01E  FFDA         	movff	CCP_Compare_Mode_Config@_ccp_obj+1,fsr2h
  3618  002542  04DE               	decf	postinc2,w,c
  3619  002544  A4D8               	btfss	status,2,c
  3620  002546  EFA7  F012         	goto	u9421
  3621  00254A  EFA9  F012         	goto	u9420
  3622  00254E                     u9421:
  3623  00254E  EFF0  F012         	goto	l9713
  3624  002552                     u9420:
  3625  002552  EFC9  F012         	goto	l9711
  3626  002556                     l9699:
  3627  002556  50BA               	movf	186,w,c	;volatile
  3628  002558  0BF0               	andlw	-16
  3629  00255A  0908               	iorlw	8
  3630  00255C  6EBA               	movwf	186,c	;volatile
  3631  00255E  EFF0  F012         	goto	l9713
  3632  002562                     l9701:
  3633  002562  50BA               	movf	186,w,c	;volatile
  3634  002564  0BF0               	andlw	-16
  3635  002566  0909               	iorlw	9
  3636  002568  6EBA               	movwf	186,c	;volatile
  3637  00256A  EFF0  F012         	goto	l9713
  3638  00256E                     l9703:
  3639  00256E  50BA               	movf	186,w,c	;volatile
  3640  002570  0BF0               	andlw	-16
  3641  002572  0902               	iorlw	2
  3642  002574  6EBA               	movwf	186,c	;volatile
  3643  002576  EFF0  F012         	goto	l9713
  3644  00257A                     l9705:
  3645  00257A  50BA               	movf	186,w,c	;volatile
  3646  00257C  0BF0               	andlw	-16
  3647  00257E  090A               	iorlw	10
  3648  002580  6EBA               	movwf	186,c	;volatile
  3649  002582  EFF0  F012         	goto	l9713
  3650  002586                     l9707:
  3651  002586  50BA               	movf	186,w,c	;volatile
  3652  002588  0BF0               	andlw	-16
  3653  00258A  090B               	iorlw	11
  3654  00258C  6EBA               	movwf	186,c	;volatile
  3655  00258E  EFF0  F012         	goto	l9713
  3656  002592                     l9711:
  3657  002592  EE20 F002          	lfsr	2,2
  3658  002596  501D               	movf	CCP_Compare_Mode_Config@_ccp_obj^0,w,c
  3659  002598  26D9               	addwf	fsr2l,f,c
  3660  00259A  501E               	movf	(CCP_Compare_Mode_Config@_ccp_obj+1)^0,w,c
  3661  00259C  22DA               	addwfc	fsr2h,f,c
  3662  00259E  50DF               	movf	indf2,w,c
  3663  0025A0  6E1F               	movwf	??_CCP_Compare_Mode_Config^0,c
  3664  0025A2  6A20               	clrf	(??_CCP_Compare_Mode_Config+1)^0,c
  3665                           
  3666                           ; Switch on 2 bytes has been partitioned into a top level switch of size 1, and 1 sub-sw
      +                          itches
  3667                           ; Switch size 1, requested type "simple"
  3668                           ; Number of cases is 1, Range of values is 0 to 0
  3669                           ; switch strategies available:
  3670                           ; Name         Instructions Cycles
  3671                           ; simple_byte            4     3 (average)
  3672                           ;	Chosen strategy is simple_byte
  3673  0025A4  5020               	movf	(??_CCP_Compare_Mode_Config+1)^0,w,c
  3674  0025A6  0A00               	xorlw	0	; case 0
  3675  0025A8  B4D8               	btfsc	status,2,c
  3676  0025AA  EFD9  F012         	goto	l10789
  3677  0025AE  EF72  F012         	goto	l9691
  3678  0025B2                     l10789:
  3679                           
  3680                           ; Switch size 1, requested type "simple"
  3681                           ; Number of cases is 5, Range of values is 2 to 11
  3682                           ; switch strategies available:
  3683                           ; Name         Instructions Cycles
  3684                           ; simple_byte           16     9 (average)
  3685                           ;	Chosen strategy is simple_byte
  3686  0025B2  501F               	movf	??_CCP_Compare_Mode_Config^0,w,c
  3687  0025B4  0A02               	xorlw	2	; case 2
  3688  0025B6  B4D8               	btfsc	status,2,c
  3689  0025B8  EFB7  F012         	goto	l9703
  3690  0025BC  0A0A               	xorlw	10	; case 8
  3691  0025BE  B4D8               	btfsc	status,2,c
  3692  0025C0  EFAB  F012         	goto	l9699
  3693  0025C4  0A01               	xorlw	1	; case 9
  3694  0025C6  B4D8               	btfsc	status,2,c
  3695  0025C8  EFB1  F012         	goto	l9701
  3696  0025CC  0A03               	xorlw	3	; case 10
  3697  0025CE  B4D8               	btfsc	status,2,c
  3698  0025D0  EFBD  F012         	goto	l9705
  3699  0025D4  0A01               	xorlw	1	; case 11
  3700  0025D6  B4D8               	btfsc	status,2,c
  3701  0025D8  EFC3  F012         	goto	l9707
  3702  0025DC  EF72  F012         	goto	l9691
  3703  0025E0                     l9713:
  3704                           
  3705                           ;MCAL/CCP/hal_ccp.c: 419:     CCP_Mode_Timer_Select(_ccp_obj);
  3706  0025E0  C01D  F01A         	movff	CCP_Compare_Mode_Config@_ccp_obj,CCP_Mode_Timer_Select@_ccp_obj
  3707  0025E4  C01E  F01B         	movff	CCP_Compare_Mode_Config@_ccp_obj+1,CCP_Mode_Timer_Select@_ccp_obj+1
  3708  0025E8  EC99  F019         	call	_CCP_Mode_Timer_Select	;wreg free
  3709  0025EC                     
  3710                           ;MCAL/CCP/hal_ccp.c: 421:     return ret;
  3711  0025EC  5021               	movf	CCP_Compare_Mode_Config@ret^0,w,c
  3712  0025EE  0012               	return		;funcret
  3713  0025F0                     __end_of_CCP_Compare_Mode_Config:
  3714                           	callstack 0
  3715                           
  3716 ;; *************** function _CCP_Capture_Mode_Config *****************
  3717 ;; Defined at:
  3718 ;;		line 362 in file "MCAL/CCP/hal_ccp.c"
  3719 ;; Parameters:    Size  Location     Type
  3720 ;;  _ccp_obj        2   28[COMRAM] PTR const struct .
  3721 ;;		 -> ccp1(15), 
  3722 ;; Auto vars:     Size  Location     Type
  3723 ;;  ret             1   32[COMRAM] unsigned char 
  3724 ;; Return value:  Size  Location     Type
  3725 ;;                  1    wreg      unsigned char 
  3726 ;; Registers used:
  3727 ;;		wreg, fsr2l, fsr2h, status,2, status,0, cstack
  3728 ;; Tracked objects:
  3729 ;;		On entry : 0/0
  3730 ;;		On exit  : 0/0
  3731 ;;		Unchanged: 0/0
  3732 ;; Data sizes:     COMRAM   BANK0   BANK1   BANK2   BANK3   BANK4   BANK5   BANK6   BANK7   BANK8   BANK9  BANK10  BANK1
      +1  BANK12  BANK13  BANK14  BANK15
  3733 ;;      Params:         2       0       0       0       0       0       0       0       0       0       0       0       
      +0       0       0       0       0
  3734 ;;      Locals:         1       0       0       0       0       0       0       0       0       0       0       0       
      +0       0       0       0       0
  3735 ;;      Temps:          2       0       0       0       0       0       0       0       0       0       0       0       
      +0       0       0       0       0
  3736 ;;      Totals:         5       0       0       0       0       0       0       0       0       0       0       0       
      +0       0       0       0       0
  3737 ;;Total ram usage:        5 bytes
  3738 ;; Hardware stack levels used: 1
  3739 ;; Hardware stack levels required when called: 8
  3740 ;; This function calls:
  3741 ;;		_CCP_Mode_Timer_Select
  3742 ;; This function is called by:
  3743 ;;		_CCP_Init
  3744 ;; This function uses a non-reentrant model
  3745 ;;
  3746                           
  3747                           	psect	text20
  3748  002B2A                     __ptext20:
  3749                           	callstack 0
  3750  002B2A                     _CCP_Capture_Mode_Config:
  3751                           	callstack 20
  3752  002B2A                     
  3753                           ;MCAL/CCP/hal_ccp.c: 363:     Std_ReturnType ret = (Std_ReturnType)0x01;
  3754  002B2A  0E01               	movlw	1
  3755  002B2C  6E21               	movwf	CCP_Capture_Mode_Config@ret^0,c
  3756  002B2E                     
  3757                           ;MCAL/CCP/hal_ccp.c: 365:     if(CCP1_INST == _ccp_obj->ccp_inst){
  3758  002B2E  C01D  FFD9         	movff	CCP_Capture_Mode_Config@_ccp_obj,fsr2l
  3759  002B32  C01E  FFDA         	movff	CCP_Capture_Mode_Config@_ccp_obj+1,fsr2h
  3760  002B36  50DF               	movf	indf2,w,c
  3761  002B38  A4D8               	btfss	status,2,c
  3762  002B3A  EFA1  F015         	goto	u9391
  3763  002B3E  EFA3  F015         	goto	u9390
  3764  002B42                     u9391:
  3765  002B42  EFE4  F015         	goto	l9645
  3766  002B46                     u9390:
  3767  002B46  EFC1  F015         	goto	l9643
  3768  002B4A                     l9633:
  3769  002B4A  50BD               	movf	189,w,c	;volatile
  3770  002B4C  0BF0               	andlw	-16
  3771  002B4E  0904               	iorlw	4
  3772  002B50  6EBD               	movwf	189,c	;volatile
  3773  002B52  EF2D  F016         	goto	l9661
  3774  002B56                     l9635:
  3775  002B56  50BD               	movf	189,w,c	;volatile
  3776  002B58  0BF0               	andlw	-16
  3777  002B5A  0905               	iorlw	5
  3778  002B5C  6EBD               	movwf	189,c	;volatile
  3779  002B5E  EF2D  F016         	goto	l9661
  3780  002B62                     l9637:
  3781  002B62  50BD               	movf	189,w,c	;volatile
  3782  002B64  0BF0               	andlw	-16
  3783  002B66  0906               	iorlw	6
  3784  002B68  6EBD               	movwf	189,c	;volatile
  3785  002B6A  EF2D  F016         	goto	l9661
  3786  002B6E                     l9639:
  3787  002B6E  50BD               	movf	189,w,c	;volatile
  3788  002B70  0BF0               	andlw	-16
  3789  002B72  0907               	iorlw	7
  3790  002B74  6EBD               	movwf	189,c	;volatile
  3791  002B76  EF2D  F016         	goto	l9661
  3792  002B7A                     l9641:
  3793  002B7A  0E00               	movlw	0
  3794  002B7C  6E21               	movwf	CCP_Capture_Mode_Config@ret^0,c
  3795                           
  3796                           ;MCAL/CCP/hal_ccp.c: 373:         }
  3797  002B7E  EF2D  F016         	goto	l9661
  3798  002B82                     l9643:
  3799  002B82  EE20 F002          	lfsr	2,2
  3800  002B86  501D               	movf	CCP_Capture_Mode_Config@_ccp_obj^0,w,c
  3801  002B88  26D9               	addwf	fsr2l,f,c
  3802  002B8A  501E               	movf	(CCP_Capture_Mode_Config@_ccp_obj+1)^0,w,c
  3803  002B8C  22DA               	addwfc	fsr2h,f,c
  3804  002B8E  50DF               	movf	indf2,w,c
  3805  002B90  6E1F               	movwf	??_CCP_Capture_Mode_Config^0,c
  3806  002B92  6A20               	clrf	(??_CCP_Capture_Mode_Config+1)^0,c
  3807                           
  3808                           ; Switch on 2 bytes has been partitioned into a top level switch of size 1, and 1 sub-sw
      +                          itches
  3809                           ; Switch size 1, requested type "simple"
  3810                           ; Number of cases is 1, Range of values is 0 to 0
  3811                           ; switch strategies available:
  3812                           ; Name         Instructions Cycles
  3813                           ; simple_byte            4     3 (average)
  3814                           ;	Chosen strategy is simple_byte
  3815  002B94  5020               	movf	(??_CCP_Capture_Mode_Config+1)^0,w,c
  3816  002B96  0A00               	xorlw	0	; case 0
  3817  002B98  B4D8               	btfsc	status,2,c
  3818  002B9A  EFD1  F015         	goto	l10791
  3819  002B9E  EFBD  F015         	goto	l9641
  3820  002BA2                     l10791:
  3821                           
  3822                           ; Switch size 1, requested type "simple"
  3823                           ; Number of cases is 4, Range of values is 4 to 7
  3824                           ; switch strategies available:
  3825                           ; Name         Instructions Cycles
  3826                           ; simple_byte           13     7 (average)
  3827                           ;	Chosen strategy is simple_byte
  3828  002BA2  501F               	movf	??_CCP_Capture_Mode_Config^0,w,c
  3829  002BA4  0A04               	xorlw	4	; case 4
  3830  002BA6  B4D8               	btfsc	status,2,c
  3831  002BA8  EFA5  F015         	goto	l9633
  3832  002BAC  0A01               	xorlw	1	; case 5
  3833  002BAE  B4D8               	btfsc	status,2,c
  3834  002BB0  EFAB  F015         	goto	l9635
  3835  002BB4  0A03               	xorlw	3	; case 6
  3836  002BB6  B4D8               	btfsc	status,2,c
  3837  002BB8  EFB1  F015         	goto	l9637
  3838  002BBC  0A01               	xorlw	1	; case 7
  3839  002BBE  B4D8               	btfsc	status,2,c
  3840  002BC0  EFB7  F015         	goto	l9639
  3841  002BC4  EFBD  F015         	goto	l9641
  3842  002BC8                     l9645:
  3843  002BC8  C01D  FFD9         	movff	CCP_Capture_Mode_Config@_ccp_obj,fsr2l
  3844  002BCC  C01E  FFDA         	movff	CCP_Capture_Mode_Config@_ccp_obj+1,fsr2h
  3845  002BD0  04DE               	decf	postinc2,w,c
  3846  002BD2  A4D8               	btfss	status,2,c
  3847  002BD4  EFEE  F015         	goto	u9401
  3848  002BD8  EFF0  F015         	goto	u9400
  3849  002BDC                     u9401:
  3850  002BDC  EF2D  F016         	goto	l9661
  3851  002BE0                     u9400:
  3852  002BE0  EF0A  F016         	goto	l9659
  3853  002BE4                     l9649:
  3854  002BE4  50BA               	movf	186,w,c	;volatile
  3855  002BE6  0BF0               	andlw	-16
  3856  002BE8  0904               	iorlw	4
  3857  002BEA  6EBA               	movwf	186,c	;volatile
  3858  002BEC  EF2D  F016         	goto	l9661
  3859  002BF0                     l9651:
  3860  002BF0  50BA               	movf	186,w,c	;volatile
  3861  002BF2  0BF0               	andlw	-16
  3862  002BF4  0905               	iorlw	5
  3863  002BF6  6EBA               	movwf	186,c	;volatile
  3864  002BF8  EF2D  F016         	goto	l9661
  3865  002BFC                     l9653:
  3866  002BFC  50BA               	movf	186,w,c	;volatile
  3867  002BFE  0BF0               	andlw	-16
  3868  002C00  0906               	iorlw	6
  3869  002C02  6EBA               	movwf	186,c	;volatile
  3870  002C04  EF2D  F016         	goto	l9661
  3871  002C08                     l9655:
  3872  002C08  50BA               	movf	186,w,c	;volatile
  3873  002C0A  0BF0               	andlw	-16
  3874  002C0C  0907               	iorlw	7
  3875  002C0E  6EBA               	movwf	186,c	;volatile
  3876  002C10  EF2D  F016         	goto	l9661
  3877  002C14                     l9659:
  3878  002C14  EE20 F002          	lfsr	2,2
  3879  002C18  501D               	movf	CCP_Capture_Mode_Config@_ccp_obj^0,w,c
  3880  002C1A  26D9               	addwf	fsr2l,f,c
  3881  002C1C  501E               	movf	(CCP_Capture_Mode_Config@_ccp_obj+1)^0,w,c
  3882  002C1E  22DA               	addwfc	fsr2h,f,c
  3883  002C20  50DF               	movf	indf2,w,c
  3884  002C22  6E1F               	movwf	??_CCP_Capture_Mode_Config^0,c
  3885  002C24  6A20               	clrf	(??_CCP_Capture_Mode_Config+1)^0,c
  3886                           
  3887                           ; Switch on 2 bytes has been partitioned into a top level switch of size 1, and 1 sub-sw
      +                          itches
  3888                           ; Switch size 1, requested type "simple"
  3889                           ; Number of cases is 1, Range of values is 0 to 0
  3890                           ; switch strategies available:
  3891                           ; Name         Instructions Cycles
  3892                           ; simple_byte            4     3 (average)
  3893                           ;	Chosen strategy is simple_byte
  3894  002C26  5020               	movf	(??_CCP_Capture_Mode_Config+1)^0,w,c
  3895  002C28  0A00               	xorlw	0	; case 0
  3896  002C2A  B4D8               	btfsc	status,2,c
  3897  002C2C  EF1A  F016         	goto	l10793
  3898  002C30  EFBD  F015         	goto	l9641
  3899  002C34                     l10793:
  3900                           
  3901                           ; Switch size 1, requested type "simple"
  3902                           ; Number of cases is 4, Range of values is 4 to 7
  3903                           ; switch strategies available:
  3904                           ; Name         Instructions Cycles
  3905                           ; simple_byte           13     7 (average)
  3906                           ;	Chosen strategy is simple_byte
  3907  002C34  501F               	movf	??_CCP_Capture_Mode_Config^0,w,c
  3908  002C36  0A04               	xorlw	4	; case 4
  3909  002C38  B4D8               	btfsc	status,2,c
  3910  002C3A  EFF2  F015         	goto	l9649
  3911  002C3E  0A01               	xorlw	1	; case 5
  3912  002C40  B4D8               	btfsc	status,2,c
  3913  002C42  EFF8  F015         	goto	l9651
  3914  002C46  0A03               	xorlw	3	; case 6
  3915  002C48  B4D8               	btfsc	status,2,c
  3916  002C4A  EFFE  F015         	goto	l9653
  3917  002C4E  0A01               	xorlw	1	; case 7
  3918  002C50  B4D8               	btfsc	status,2,c
  3919  002C52  EF04  F016         	goto	l9655
  3920  002C56  EFBD  F015         	goto	l9641
  3921  002C5A                     l9661:
  3922                           
  3923                           ;MCAL/CCP/hal_ccp.c: 387:     CCP_Mode_Timer_Select(_ccp_obj);
  3924  002C5A  C01D  F01A         	movff	CCP_Capture_Mode_Config@_ccp_obj,CCP_Mode_Timer_Select@_ccp_obj
  3925  002C5E  C01E  F01B         	movff	CCP_Capture_Mode_Config@_ccp_obj+1,CCP_Mode_Timer_Select@_ccp_obj+1
  3926  002C62  EC99  F019         	call	_CCP_Mode_Timer_Select	;wreg free
  3927  002C66                     
  3928                           ;MCAL/CCP/hal_ccp.c: 389:     return ret;
  3929  002C66  5021               	movf	CCP_Capture_Mode_Config@ret^0,w,c
  3930  002C68  0012               	return		;funcret
  3931  002C6A                     __end_of_CCP_Capture_Mode_Config:
  3932                           	callstack 0
  3933                           
  3934 ;; *************** function _CCP_Mode_Timer_Select *****************
  3935 ;; Defined at:
  3936 ;;		line 342 in file "MCAL/CCP/hal_ccp.c"
  3937 ;; Parameters:    Size  Location     Type
  3938 ;;  _ccp_obj        2   25[COMRAM] PTR const struct .
  3939 ;;		 -> ccp1(15), 
  3940 ;; Auto vars:     Size  Location     Type
  3941 ;;		None
  3942 ;; Return value:  Size  Location     Type
  3943 ;;                  1    wreg      void 
  3944 ;; Registers used:
  3945 ;;		wreg, fsr2l, fsr2h, status,2, status,0
  3946 ;; Tracked objects:
  3947 ;;		On entry : 0/0
  3948 ;;		On exit  : 0/0
  3949 ;;		Unchanged: 0/0
  3950 ;; Data sizes:     COMRAM   BANK0   BANK1   BANK2   BANK3   BANK4   BANK5   BANK6   BANK7   BANK8   BANK9  BANK10  BANK1
      +1  BANK12  BANK13  BANK14  BANK15
  3951 ;;      Params:         2       0       0       0       0       0       0       0       0       0       0       0       
      +0       0       0       0       0
  3952 ;;      Locals:         0       0       0       0       0       0       0       0       0       0       0       0       
      +0       0       0       0       0
  3953 ;;      Temps:          1       0       0       0       0       0       0       0       0       0       0       0       
      +0       0       0       0       0
  3954 ;;      Totals:         3       0       0       0       0       0       0       0       0       0       0       0       
      +0       0       0       0       0
  3955 ;;Total ram usage:        3 bytes
  3956 ;; Hardware stack levels used: 1
  3957 ;; Hardware stack levels required when called: 7
  3958 ;; This function calls:
  3959 ;;		Nothing
  3960 ;; This function is called by:
  3961 ;;		_CCP_Capture_Mode_Config
  3962 ;;		_CCP_Compare_Mode_Config
  3963 ;; This function uses a non-reentrant model
  3964 ;;
  3965                           
  3966                           	psect	text21
  3967  003332                     __ptext21:
  3968                           	callstack 0
  3969  003332                     _CCP_Mode_Timer_Select:
  3970                           	callstack 20
  3971  003332                     
  3972                           ;MCAL/CCP/hal_ccp.c: 343:     if(CCP1_CCP2_TIMER3 == _ccp_obj->ccp_capture_timer){
  3973  003332  EE20 F004          	lfsr	2,4
  3974  003336  501A               	movf	CCP_Mode_Timer_Select@_ccp_obj^0,w,c
  3975  003338  26D9               	addwf	fsr2l,f,c
  3976  00333A  501B               	movf	(CCP_Mode_Timer_Select@_ccp_obj+1)^0,w,c
  3977  00333C  22DA               	addwfc	fsr2h,f,c
  3978  00333E  50DF               	movf	indf2,w,c
  3979  003340  A4D8               	btfss	status,2,c
  3980  003342  EFA5  F019         	goto	u8291
  3981  003346  EFA7  F019         	goto	u8290
  3982  00334A                     u8291:
  3983  00334A  EFAB  F019         	goto	l8999
  3984  00334E                     u8290:
  3985  00334E                     
  3986                           ;MCAL/CCP/hal_ccp.c: 345:         T3CONbits.T3CCP1 = 0;
  3987  00334E  96B1               	bcf	177,3,c	;volatile
  3988                           
  3989                           ;MCAL/CCP/hal_ccp.c: 346:         T3CONbits.T3CCP2 = 1;
  3990  003350  8CB1               	bsf	177,6,c	;volatile
  3991                           
  3992                           ;MCAL/CCP/hal_ccp.c: 347:     }
  3993  003352  EFD0  F019         	goto	l538
  3994  003356                     l8999:
  3995  003356  EE20 F004          	lfsr	2,4
  3996  00335A  501A               	movf	CCP_Mode_Timer_Select@_ccp_obj^0,w,c
  3997  00335C  26D9               	addwf	fsr2l,f,c
  3998  00335E  501B               	movf	(CCP_Mode_Timer_Select@_ccp_obj+1)^0,w,c
  3999  003360  22DA               	addwfc	fsr2h,f,c
  4000  003362  04DE               	decf	postinc2,w,c
  4001  003364  A4D8               	btfss	status,2,c
  4002  003366  EFB7  F019         	goto	u8301
  4003  00336A  EFB9  F019         	goto	u8300
  4004  00336E                     u8301:
  4005  00336E  EFBD  F019         	goto	l9003
  4006  003372                     u8300:
  4007  003372                     
  4008                           ;MCAL/CCP/hal_ccp.c: 351:         T3CONbits.T3CCP1 = 1;
  4009  003372  86B1               	bsf	177,3,c	;volatile
  4010                           
  4011                           ;MCAL/CCP/hal_ccp.c: 352:         T3CONbits.T3CCP2 = 0;
  4012  003374  9CB1               	bcf	177,6,c	;volatile
  4013                           
  4014                           ;MCAL/CCP/hal_ccp.c: 353:     }
  4015  003376  EFD0  F019         	goto	l538
  4016  00337A                     l9003:
  4017  00337A  EE20 F004          	lfsr	2,4
  4018  00337E  501A               	movf	CCP_Mode_Timer_Select@_ccp_obj^0,w,c
  4019  003380  26D9               	addwf	fsr2l,f,c
  4020  003382  501B               	movf	(CCP_Mode_Timer_Select@_ccp_obj+1)^0,w,c
  4021  003384  22DA               	addwfc	fsr2h,f,c
  4022  003386  0E02               	movlw	2
  4023  003388  18DE               	xorwf	postinc2,w,c
  4024  00338A  A4D8               	btfss	status,2,c
  4025  00338C  EFCA  F019         	goto	u8311
  4026  003390  EFCC  F019         	goto	u8310
  4027  003394                     u8311:
  4028  003394  EFD0  F019         	goto	l535
  4029  003398                     u8310:
  4030  003398                     
  4031                           ;MCAL/CCP/hal_ccp.c: 356:         T3CONbits.T3CCP1 = 0;
  4032  003398  96B1               	bcf	177,3,c	;volatile
  4033                           
  4034                           ;MCAL/CCP/hal_ccp.c: 357:         T3CONbits.T3CCP2 = 0;
  4035  00339A  9CB1               	bcf	177,6,c	;volatile
  4036                           
  4037                           ;MCAL/CCP/hal_ccp.c: 358:     }
  4038  00339C  EFD0  F019         	goto	l538
  4039  0033A0                     l535:
  4040  0033A0                     l538:
  4041  0033A0  0012               	return		;funcret
  4042  0033A2                     __end_of_CCP_Mode_Timer_Select:
  4043                           	callstack 0
  4044                           
  4045 ;; *************** function _I2C_Open *****************
  4046 ;; Defined at:
  4047 ;;		line 116 in file "mcc_generated_files/i2c_slave.c"
  4048 ;; Parameters:    Size  Location     Type
  4049 ;;		None
  4050 ;; Auto vars:     Size  Location     Type
  4051 ;;		None
  4052 ;; Return value:  Size  Location     Type
  4053 ;;                  1    wreg      void 
  4054 ;; Registers used:
  4055 ;;		wreg, status,2, status,0, cstack
  4056 ;; Tracked objects:
  4057 ;;		On entry : 0/0
  4058 ;;		On exit  : 0/0
  4059 ;;		Unchanged: 0/0
  4060 ;; Data sizes:     COMRAM   BANK0   BANK1   BANK2   BANK3   BANK4   BANK5   BANK6   BANK7   BANK8   BANK9  BANK10  BANK1
      +1  BANK12  BANK13  BANK14  BANK15
  4061 ;;      Params:         0       0       0       0       0       0       0       0       0       0       0       0       
      +0       0       0       0       0
  4062 ;;      Locals:         0       0       0       0       0       0       0       0       0       0       0       0       
      +0       0       0       0       0
  4063 ;;      Temps:          0       0       0       0       0       0       0       0       0       0       0       0       
      +0       0       0       0       0
  4064 ;;      Totals:         0       0       0       0       0       0       0       0       0       0       0       0       
      +0       0       0       0       0
  4065 ;;Total ram usage:        0 bytes
  4066 ;; Hardware stack levels used: 1
  4067 ;; Hardware stack levels required when called: 8
  4068 ;; This function calls:
  4069 ;;		_I2C_SlaveEnableIrq
  4070 ;;		_I2C_SlaveOpen
  4071 ;;		_I2C_SlaveSetAddrIntHandler
  4072 ;;		_I2C_SlaveSetBusColIntHandler
  4073 ;;		_I2C_SlaveSetIsrHandler
  4074 ;;		_I2C_SlaveSetReadIntHandler
  4075 ;;		_I2C_SlaveSetSlaveAddr
  4076 ;;		_I2C_SlaveSetSlaveMask
  4077 ;;		_I2C_SlaveSetWrColIntHandler
  4078 ;;		_I2C_SlaveSetWriteIntHandler
  4079 ;; This function is called by:
  4080 ;;		_main
  4081 ;; This function uses a non-reentrant model
  4082 ;;
  4083                           
  4084                           	psect	text22
  4085  00340E                     __ptext22:
  4086                           	callstack 0
  4087  00340E                     _I2C_Open:
  4088                           	callstack 22
  4089  00340E                     
  4090                           ;mcc_generated_files/i2c_slave.c: 118:     I2C_SlaveOpen();
  4091  00340E  EC4F  F01C         	call	_I2C_SlaveOpen	;wreg free
  4092  003412                     
  4093                           ;mcc_generated_files/i2c_slave.c: 119:     I2C_SlaveSetSlaveAddr(112);
  4094  003412  0E70               	movlw	112
  4095  003414  ECEA  F01C         	call	_I2C_SlaveSetSlaveAddr
  4096  003418                     
  4097                           ;mcc_generated_files/i2c_slave.c: 120:     I2C_SlaveSetSlaveMask(127);
  4098  003418  0E7F               	movlw	127
  4099  00341A  EC08  F01D         	call	_I2C_SlaveSetSlaveMask
  4100                           
  4101                           ;mcc_generated_files/i2c_slave.c: 121:     I2C_SlaveSetIsrHandler(I2C_Isr);
  4102  00341E  0EBE               	movlw	low _I2C_Isr
  4103  003420  6E1A               	movwf	I2C_SlaveSetIsrHandler@handler^0,c
  4104  003422  0E2E               	movlw	high _I2C_Isr
  4105  003424  6E1B               	movwf	(I2C_SlaveSetIsrHandler@handler+1)^0,c
  4106  003426  ECD1  F01C         	call	_I2C_SlaveSetIsrHandler	;wreg free
  4107                           
  4108                           ;mcc_generated_files/i2c_slave.c: 122:     I2C_SlaveSetBusColIntHandler(I2C_SlaveDefBusC
      +                          olInterruptHandler);
  4109  00342A  0E00               	movlw	0
  4110  00342C  6E1A               	movwf	I2C_SlaveSetBusColIntHandler@handler^0,c
  4111  00342E  0E00               	movlw	0
  4112  003430  6E1B               	movwf	(I2C_SlaveSetBusColIntHandler@handler+1)^0,c
  4113  003432  ECD6  F01C         	call	_I2C_SlaveSetBusColIntHandler	;wreg free
  4114                           
  4115                           ;mcc_generated_files/i2c_slave.c: 123:     I2C_SlaveSetWriteIntHandler(I2C_SlaveDefWrInt
      +                          erruptHandler);
  4116  003436  0EDC               	movlw	low _I2C_SlaveDefWrInterruptHandler
  4117  003438  6E1A               	movwf	I2C_SlaveSetWriteIntHandler@handler^0,c
  4118  00343A  0E39               	movlw	high _I2C_SlaveDefWrInterruptHandler
  4119  00343C  6E1B               	movwf	(I2C_SlaveSetWriteIntHandler@handler+1)^0,c
  4120  00343E  ECC2  F01C         	call	_I2C_SlaveSetWriteIntHandler	;wreg free
  4121                           
  4122                           ;mcc_generated_files/i2c_slave.c: 124:     I2C_SlaveSetReadIntHandler(I2C_SlaveDefRdInte
      +                          rruptHandler);
  4123  003442  0EC0               	movlw	low _I2C_SlaveDefRdInterruptHandler
  4124  003444  6E1A               	movwf	I2C_SlaveSetReadIntHandler@handler^0,c
  4125  003446  0E39               	movlw	high _I2C_SlaveDefRdInterruptHandler
  4126  003448  6E1B               	movwf	(I2C_SlaveSetReadIntHandler@handler+1)^0,c
  4127  00344A  ECCC  F01C         	call	_I2C_SlaveSetReadIntHandler	;wreg free
  4128                           
  4129                           ;mcc_generated_files/i2c_slave.c: 125:     I2C_SlaveSetAddrIntHandler(I2C_SlaveDefAddrIn
      +                          terruptHandler);
  4130  00344E  0ECA               	movlw	low _I2C_SlaveDefAddrInterruptHandler
  4131  003450  6E1A               	movwf	I2C_SlaveSetAddrIntHandler@handler^0,c
  4132  003452  0E39               	movlw	high _I2C_SlaveDefAddrInterruptHandler
  4133  003454  6E1B               	movwf	(I2C_SlaveSetAddrIntHandler@handler+1)^0,c
  4134  003456  ECDB  F01C         	call	_I2C_SlaveSetAddrIntHandler	;wreg free
  4135                           
  4136                           ;mcc_generated_files/i2c_slave.c: 126:     I2C_SlaveSetWrColIntHandler(I2C_SlaveDefWrCol
      +                          InterruptHandler);
  4137  00345A  0E00               	movlw	0
  4138  00345C  6E1A               	movwf	I2C_SlaveSetWrColIntHandler@handler^0,c
  4139  00345E  0E00               	movlw	0
  4140  003460  6E1B               	movwf	(I2C_SlaveSetWrColIntHandler@handler+1)^0,c
  4141  003462  ECC7  F01C         	call	_I2C_SlaveSetWrColIntHandler	;wreg free
  4142  003466                     
  4143                           ;mcc_generated_files/i2c_slave.c: 127:     I2C_SlaveEnableIrq();
  4144  003466  ECF8  F01C         	call	_I2C_SlaveEnableIrq	;wreg free
  4145  00346A  0012               	return		;funcret
  4146  00346C                     __end_of_I2C_Open:
  4147                           	callstack 0
  4148                           
  4149 ;; *************** function _I2C_SlaveSetWriteIntHandler *****************
  4150 ;; Defined at:
  4151 ;;		line 246 in file "mcc_generated_files/i2c_slave.c"
  4152 ;; Parameters:    Size  Location     Type
  4153 ;;  handler         2   25[COMRAM] PTR FTN()void 
  4154 ;;		 -> I2C_SlaveDefWrInterruptHandler(1), 
  4155 ;; Auto vars:     Size  Location     Type
  4156 ;;		None
  4157 ;; Return value:  Size  Location     Type
  4158 ;;                  1    wreg      void 
  4159 ;; Registers used:
  4160 ;;		wreg, status,2, status,0
  4161 ;; Tracked objects:
  4162 ;;		On entry : 0/0
  4163 ;;		On exit  : 0/0
  4164 ;;		Unchanged: 0/0
  4165 ;; Data sizes:     COMRAM   BANK0   BANK1   BANK2   BANK3   BANK4   BANK5   BANK6   BANK7   BANK8   BANK9  BANK10  BANK1
      +1  BANK12  BANK13  BANK14  BANK15
  4166 ;;      Params:         2       0       0       0       0       0       0       0       0       0       0       0       
      +0       0       0       0       0
  4167 ;;      Locals:         0       0       0       0       0       0       0       0       0       0       0       0       
      +0       0       0       0       0
  4168 ;;      Temps:          0       0       0       0       0       0       0       0       0       0       0       0       
      +0       0       0       0       0
  4169 ;;      Totals:         2       0       0       0       0       0       0       0       0       0       0       0       
      +0       0       0       0       0
  4170 ;;Total ram usage:        2 bytes
  4171 ;; Hardware stack levels used: 1
  4172 ;; Hardware stack levels required when called: 7
  4173 ;; This function calls:
  4174 ;;		Nothing
  4175 ;; This function is called by:
  4176 ;;		_I2C_Open
  4177 ;; This function uses a non-reentrant model
  4178 ;;
  4179                           
  4180                           	psect	text23
  4181  003984                     __ptext23:
  4182                           	callstack 0
  4183  003984                     _I2C_SlaveSetWriteIntHandler:
  4184                           	callstack 22
  4185  003984                     
  4186                           ;mcc_generated_files/i2c_slave.c: 247:     I2C_SlaveWrInterruptHandler = handler;
  4187  003984  C01A  F086         	movff	I2C_SlaveSetWriteIntHandler@handler,_I2C_SlaveWrInterruptHandler
  4188  003988  C01B  F087         	movff	I2C_SlaveSetWriteIntHandler@handler+1,_I2C_SlaveWrInterruptHandler+1
  4189  00398C  0012               	return		;funcret
  4190  00398E                     __end_of_I2C_SlaveSetWriteIntHandler:
  4191                           	callstack 0
  4192                           
  4193 ;; *************** function _I2C_SlaveSetWrColIntHandler *****************
  4194 ;; Defined at:
  4195 ;;		line 279 in file "mcc_generated_files/i2c_slave.c"
  4196 ;; Parameters:    Size  Location     Type
  4197 ;;  handler         2   25[COMRAM] PTR FTN()void 
  4198 ;;		 -> I2C_SlaveDefWrColInterruptHandler(1), 
  4199 ;; Auto vars:     Size  Location     Type
  4200 ;;		None
  4201 ;; Return value:  Size  Location     Type
  4202 ;;                  1    wreg      void 
  4203 ;; Registers used:
  4204 ;;		wreg, status,2, status,0
  4205 ;; Tracked objects:
  4206 ;;		On entry : 0/0
  4207 ;;		On exit  : 0/0
  4208 ;;		Unchanged: 0/0
  4209 ;; Data sizes:     COMRAM   BANK0   BANK1   BANK2   BANK3   BANK4   BANK5   BANK6   BANK7   BANK8   BANK9  BANK10  BANK1
      +1  BANK12  BANK13  BANK14  BANK15
  4210 ;;      Params:         2       0       0       0       0       0       0       0       0       0       0       0       
      +0       0       0       0       0
  4211 ;;      Locals:         0       0       0       0       0       0       0       0       0       0       0       0       
      +0       0       0       0       0
  4212 ;;      Temps:          0       0       0       0       0       0       0       0       0       0       0       0       
      +0       0       0       0       0
  4213 ;;      Totals:         2       0       0       0       0       0       0       0       0       0       0       0       
      +0       0       0       0       0
  4214 ;;Total ram usage:        2 bytes
  4215 ;; Hardware stack levels used: 1
  4216 ;; Hardware stack levels required when called: 7
  4217 ;; This function calls:
  4218 ;;		Nothing
  4219 ;; This function is called by:
  4220 ;;		_I2C_Open
  4221 ;; This function uses a non-reentrant model
  4222 ;;
  4223                           
  4224                           	psect	text24
  4225  00398E                     __ptext24:
  4226                           	callstack 0
  4227  00398E                     _I2C_SlaveSetWrColIntHandler:
  4228                           	callstack 22
  4229  00398E                     
  4230                           ;mcc_generated_files/i2c_slave.c: 280:     I2C_SlaveWrColInterruptHandler = handler;
  4231  00398E  C01A  F080         	movff	I2C_SlaveSetWrColIntHandler@handler,_I2C_SlaveWrColInterruptHandler
  4232  003992  C01B  F081         	movff	I2C_SlaveSetWrColIntHandler@handler+1,_I2C_SlaveWrColInterruptHandler+1
  4233  003996  0012               	return		;funcret
  4234  003998                     __end_of_I2C_SlaveSetWrColIntHandler:
  4235                           	callstack 0
  4236                           
  4237 ;; *************** function _I2C_SlaveSetSlaveMask *****************
  4238 ;; Defined at:
  4239 ;;		line 336 in file "mcc_generated_files/i2c_slave.c"
  4240 ;; Parameters:    Size  Location     Type
  4241 ;;  maskAddr        1    wreg     unsigned char 
  4242 ;; Auto vars:     Size  Location     Type
  4243 ;;  maskAddr        1    0[COMRAM] unsigned char 
  4244 ;; Return value:  Size  Location     Type
  4245 ;;                  1    wreg      void 
  4246 ;; Registers used:
  4247 ;;		wreg
  4248 ;; Tracked objects:
  4249 ;;		On entry : 0/0
  4250 ;;		On exit  : 0/0
  4251 ;;		Unchanged: 0/0
  4252 ;; Data sizes:     COMRAM   BANK0   BANK1   BANK2   BANK3   BANK4   BANK5   BANK6   BANK7   BANK8   BANK9  BANK10  BANK1
      +1  BANK12  BANK13  BANK14  BANK15
  4253 ;;      Params:         0       0       0       0       0       0       0       0       0       0       0       0       
      +0       0       0       0       0
  4254 ;;      Locals:         0       0       0       0       0       0       0       0       0       0       0       0       
      +0       0       0       0       0
  4255 ;;      Temps:          0       0       0       0       0       0       0       0       0       0       0       0       
      +0       0       0       0       0
  4256 ;;      Totals:         0       0       0       0       0       0       0       0       0       0       0       0       
      +0       0       0       0       0
  4257 ;;Total ram usage:        0 bytes
  4258 ;; Hardware stack levels used: 1
  4259 ;; Hardware stack levels required when called: 7
  4260 ;; This function calls:
  4261 ;;		Nothing
  4262 ;; This function is called by:
  4263 ;;		_I2C_Open
  4264 ;; This function uses a non-reentrant model
  4265 ;;
  4266                           
  4267                           	psect	text25
  4268  003A10                     __ptext25:
  4269                           	callstack 0
  4270  003A10                     _I2C_SlaveSetSlaveMask:
  4271                           	callstack 22
  4272  003A10  0012               	return		;funcret
  4273  003A12                     __end_of_I2C_SlaveSetSlaveMask:
  4274                           	callstack 0
  4275                           
  4276 ;; *************** function _I2C_SlaveSetSlaveAddr *****************
  4277 ;; Defined at:
  4278 ;;		line 331 in file "mcc_generated_files/i2c_slave.c"
  4279 ;; Parameters:    Size  Location     Type
  4280 ;;  slaveAddr       1    wreg     unsigned char 
  4281 ;; Auto vars:     Size  Location     Type
  4282 ;;  slaveAddr       1   25[COMRAM] unsigned char 
  4283 ;; Return value:  Size  Location     Type
  4284 ;;                  1    wreg      void 
  4285 ;; Registers used:
  4286 ;;		wreg
  4287 ;; Tracked objects:
  4288 ;;		On entry : 0/0
  4289 ;;		On exit  : 0/0
  4290 ;;		Unchanged: 0/0
  4291 ;; Data sizes:     COMRAM   BANK0   BANK1   BANK2   BANK3   BANK4   BANK5   BANK6   BANK7   BANK8   BANK9  BANK10  BANK1
      +1  BANK12  BANK13  BANK14  BANK15
  4292 ;;      Params:         0       0       0       0       0       0       0       0       0       0       0       0       
      +0       0       0       0       0
  4293 ;;      Locals:         1       0       0       0       0       0       0       0       0       0       0       0       
      +0       0       0       0       0
  4294 ;;      Temps:          0       0       0       0       0       0       0       0       0       0       0       0       
      +0       0       0       0       0
  4295 ;;      Totals:         1       0       0       0       0       0       0       0       0       0       0       0       
      +0       0       0       0       0
  4296 ;;Total ram usage:        1 bytes
  4297 ;; Hardware stack levels used: 1
  4298 ;; Hardware stack levels required when called: 7
  4299 ;; This function calls:
  4300 ;;		Nothing
  4301 ;; This function is called by:
  4302 ;;		_I2C_Open
  4303 ;; This function uses a non-reentrant model
  4304 ;;
  4305                           
  4306                           	psect	text26
  4307  0039D4                     __ptext26:
  4308                           	callstack 0
  4309  0039D4                     _I2C_SlaveSetSlaveAddr:
  4310                           	callstack 22
  4311                           
  4312                           ;incstack = 0
  4313                           ;I2C_SlaveSetSlaveAddr@slaveAddr stored from wreg
  4314  0039D4  6E1A               	movwf	I2C_SlaveSetSlaveAddr@slaveAddr^0,c
  4315  0039D6                     
  4316                           ;mcc_generated_files/i2c_slave.c: 331: static __attribute__((inline)) void I2C_SlaveSetS
      +                          laveAddr(uint8_t slaveAddr);mcc_generated_files/i2c_slave.c: 332: {;mcc_generated_files/
      +                          i2c_slave.c: 333:     SSPADD = (uint8_t) (slaveAddr);
  4317  0039D6  C01A  FFC8         	movff	I2C_SlaveSetSlaveAddr@slaveAddr,4040	;volatile
  4318  0039DA  0012               	return		;funcret
  4319  0039DC                     __end_of_I2C_SlaveSetSlaveAddr:
  4320                           	callstack 0
  4321                           
  4322 ;; *************** function _I2C_SlaveSetReadIntHandler *****************
  4323 ;; Defined at:
  4324 ;;		line 229 in file "mcc_generated_files/i2c_slave.c"
  4325 ;; Parameters:    Size  Location     Type
  4326 ;;  handler         2   25[COMRAM] PTR FTN()void 
  4327 ;;		 -> MY_I2C_slave_ISR(1), I2C_SlaveDefRdInterruptHandler(1), 
  4328 ;; Auto vars:     Size  Location     Type
  4329 ;;		None
  4330 ;; Return value:  Size  Location     Type
  4331 ;;                  1    wreg      void 
  4332 ;; Registers used:
  4333 ;;		wreg, status,2, status,0
  4334 ;; Tracked objects:
  4335 ;;		On entry : 0/0
  4336 ;;		On exit  : 0/0
  4337 ;;		Unchanged: 0/0
  4338 ;; Data sizes:     COMRAM   BANK0   BANK1   BANK2   BANK3   BANK4   BANK5   BANK6   BANK7   BANK8   BANK9  BANK10  BANK1
      +1  BANK12  BANK13  BANK14  BANK15
  4339 ;;      Params:         2       0       0       0       0       0       0       0       0       0       0       0       
      +0       0       0       0       0
  4340 ;;      Locals:         0       0       0       0       0       0       0       0       0       0       0       0       
      +0       0       0       0       0
  4341 ;;      Temps:          0       0       0       0       0       0       0       0       0       0       0       0       
      +0       0       0       0       0
  4342 ;;      Totals:         2       0       0       0       0       0       0       0       0       0       0       0       
      +0       0       0       0       0
  4343 ;;Total ram usage:        2 bytes
  4344 ;; Hardware stack levels used: 1
  4345 ;; Hardware stack levels required when called: 7
  4346 ;; This function calls:
  4347 ;;		Nothing
  4348 ;; This function is called by:
  4349 ;;		_I2C_Open
  4350 ;;		_main
  4351 ;; This function uses a non-reentrant model
  4352 ;;
  4353                           
  4354                           	psect	text27
  4355  003998                     __ptext27:
  4356                           	callstack 0
  4357  003998                     _I2C_SlaveSetReadIntHandler:
  4358                           	callstack 23
  4359  003998                     
  4360                           ;mcc_generated_files/i2c_slave.c: 230:     I2C_SlaveRdInterruptHandler = handler;
  4361  003998  C01A  F088         	movff	I2C_SlaveSetReadIntHandler@handler,_I2C_SlaveRdInterruptHandler
  4362  00399C  C01B  F089         	movff	I2C_SlaveSetReadIntHandler@handler+1,_I2C_SlaveRdInterruptHandler+1
  4363  0039A0  0012               	return		;funcret
  4364  0039A2                     __end_of_I2C_SlaveSetReadIntHandler:
  4365                           	callstack 0
  4366                           
  4367 ;; *************** function _I2C_SlaveSetIsrHandler *****************
  4368 ;; Defined at:
  4369 ;;		line 223 in file "mcc_generated_files/i2c_slave.c"
  4370 ;; Parameters:    Size  Location     Type
  4371 ;;  handler         2   25[COMRAM] PTR FTN()void 
  4372 ;;		 -> I2C_Isr(1), 
  4373 ;; Auto vars:     Size  Location     Type
  4374 ;;		None
  4375 ;; Return value:  Size  Location     Type
  4376 ;;                  1    wreg      void 
  4377 ;; Registers used:
  4378 ;;		wreg, status,2, status,0
  4379 ;; Tracked objects:
  4380 ;;		On entry : 0/0
  4381 ;;		On exit  : 0/0
  4382 ;;		Unchanged: 0/0
  4383 ;; Data sizes:     COMRAM   BANK0   BANK1   BANK2   BANK3   BANK4   BANK5   BANK6   BANK7   BANK8   BANK9  BANK10  BANK1
      +1  BANK12  BANK13  BANK14  BANK15
  4384 ;;      Params:         2       0       0       0       0       0       0       0       0       0       0       0       
      +0       0       0       0       0
  4385 ;;      Locals:         0       0       0       0       0       0       0       0       0       0       0       0       
      +0       0       0       0       0
  4386 ;;      Temps:          0       0       0       0       0       0       0       0       0       0       0       0       
      +0       0       0       0       0
  4387 ;;      Totals:         2       0       0       0       0       0       0       0       0       0       0       0       
      +0       0       0       0       0
  4388 ;;Total ram usage:        2 bytes
  4389 ;; Hardware stack levels used: 1
  4390 ;; Hardware stack levels required when called: 7
  4391 ;; This function calls:
  4392 ;;		Nothing
  4393 ;; This function is called by:
  4394 ;;		_I2C_Open
  4395 ;; This function uses a non-reentrant model
  4396 ;;
  4397                           
  4398                           	psect	text28
  4399  0039A2                     __ptext28:
  4400                           	callstack 0
  4401  0039A2                     _I2C_SlaveSetIsrHandler:
  4402                           	callstack 22
  4403  0039A2                     
  4404                           ;mcc_generated_files/i2c_slave.c: 223: void I2C_SlaveSetIsrHandler(i2cInterruptHandler h
      +                          andler);mcc_generated_files/i2c_slave.c: 224: {;mcc_generated_files/i2c_slave.c: 225:   
      +                            MSSP_InterruptHandler = handler;
  4405  0039A2  C01A  F08A         	movff	I2C_SlaveSetIsrHandler@handler,_MSSP_InterruptHandler
  4406  0039A6  C01B  F08B         	movff	I2C_SlaveSetIsrHandler@handler+1,_MSSP_InterruptHandler+1
  4407  0039AA  0012               	return		;funcret
  4408  0039AC                     __end_of_I2C_SlaveSetIsrHandler:
  4409                           	callstack 0
  4410                           
  4411 ;; *************** function _I2C_SlaveSetBusColIntHandler *****************
  4412 ;; Defined at:
  4413 ;;		line 295 in file "mcc_generated_files/i2c_slave.c"
  4414 ;; Parameters:    Size  Location     Type
  4415 ;;  handler         2   25[COMRAM] PTR FTN()void 
  4416 ;;		 -> I2C_SlaveDefBusColInterruptHandler(1), 
  4417 ;; Auto vars:     Size  Location     Type
  4418 ;;		None
  4419 ;; Return value:  Size  Location     Type
  4420 ;;                  1    wreg      void 
  4421 ;; Registers used:
  4422 ;;		wreg, status,2, status,0
  4423 ;; Tracked objects:
  4424 ;;		On entry : 0/0
  4425 ;;		On exit  : 0/0
  4426 ;;		Unchanged: 0/0
  4427 ;; Data sizes:     COMRAM   BANK0   BANK1   BANK2   BANK3   BANK4   BANK5   BANK6   BANK7   BANK8   BANK9  BANK10  BANK1
      +1  BANK12  BANK13  BANK14  BANK15
  4428 ;;      Params:         2       0       0       0       0       0       0       0       0       0       0       0       
      +0       0       0       0       0
  4429 ;;      Locals:         0       0       0       0       0       0       0       0       0       0       0       0       
      +0       0       0       0       0
  4430 ;;      Temps:          0       0       0       0       0       0       0       0       0       0       0       0       
      +0       0       0       0       0
  4431 ;;      Totals:         2       0       0       0       0       0       0       0       0       0       0       0       
      +0       0       0       0       0
  4432 ;;Total ram usage:        2 bytes
  4433 ;; Hardware stack levels used: 1
  4434 ;; Hardware stack levels required when called: 7
  4435 ;; This function calls:
  4436 ;;		Nothing
  4437 ;; This function is called by:
  4438 ;;		_I2C_Open
  4439 ;; This function uses a non-reentrant model
  4440 ;;
  4441                           
  4442                           	psect	text29
  4443  0039AC                     __ptext29:
  4444                           	callstack 0
  4445  0039AC                     _I2C_SlaveSetBusColIntHandler:
  4446                           	callstack 22
  4447  0039AC                     
  4448                           ;mcc_generated_files/i2c_slave.c: 296:     I2C_SlaveBusColInterruptHandler = handler;
  4449  0039AC  C01A  F082         	movff	I2C_SlaveSetBusColIntHandler@handler,_I2C_SlaveBusColInterruptHandler
  4450  0039B0  C01B  F083         	movff	I2C_SlaveSetBusColIntHandler@handler+1,_I2C_SlaveBusColInterruptHandler+1
  4451  0039B4  0012               	return		;funcret
  4452  0039B6                     __end_of_I2C_SlaveSetBusColIntHandler:
  4453                           	callstack 0
  4454                           
  4455 ;; *************** function _I2C_SlaveSetAddrIntHandler *****************
  4456 ;; Defined at:
  4457 ;;		line 263 in file "mcc_generated_files/i2c_slave.c"
  4458 ;; Parameters:    Size  Location     Type
  4459 ;;  handler         2   25[COMRAM] PTR FTN()void 
  4460 ;;		 -> I2C_SlaveDefAddrInterruptHandler(1), 
  4461 ;; Auto vars:     Size  Location     Type
  4462 ;;		None
  4463 ;; Return value:  Size  Location     Type
  4464 ;;                  1    wreg      void 
  4465 ;; Registers used:
  4466 ;;		wreg, status,2, status,0
  4467 ;; Tracked objects:
  4468 ;;		On entry : 0/0
  4469 ;;		On exit  : 0/0
  4470 ;;		Unchanged: 0/0
  4471 ;; Data sizes:     COMRAM   BANK0   BANK1   BANK2   BANK3   BANK4   BANK5   BANK6   BANK7   BANK8   BANK9  BANK10  BANK1
      +1  BANK12  BANK13  BANK14  BANK15
  4472 ;;      Params:         2       0       0       0       0       0       0       0       0       0       0       0       
      +0       0       0       0       0
  4473 ;;      Locals:         0       0       0       0       0       0       0       0       0       0       0       0       
      +0       0       0       0       0
  4474 ;;      Temps:          0       0       0       0       0       0       0       0       0       0       0       0       
      +0       0       0       0       0
  4475 ;;      Totals:         2       0       0       0       0       0       0       0       0       0       0       0       
      +0       0       0       0       0
  4476 ;;Total ram usage:        2 bytes
  4477 ;; Hardware stack levels used: 1
  4478 ;; Hardware stack levels required when called: 7
  4479 ;; This function calls:
  4480 ;;		Nothing
  4481 ;; This function is called by:
  4482 ;;		_I2C_Open
  4483 ;; This function uses a non-reentrant model
  4484 ;;
  4485                           
  4486                           	psect	text30
  4487  0039B6                     __ptext30:
  4488                           	callstack 0
  4489  0039B6                     _I2C_SlaveSetAddrIntHandler:
  4490                           	callstack 22
  4491  0039B6                     
  4492                           ;mcc_generated_files/i2c_slave.c: 264:     I2C_SlaveAddrInterruptHandler = handler;
  4493  0039B6  C01A  F084         	movff	I2C_SlaveSetAddrIntHandler@handler,_I2C_SlaveAddrInterruptHandler
  4494  0039BA  C01B  F085         	movff	I2C_SlaveSetAddrIntHandler@handler+1,_I2C_SlaveAddrInterruptHandler+1
  4495  0039BE  0012               	return		;funcret
  4496  0039C0                     __end_of_I2C_SlaveSetAddrIntHandler:
  4497                           	callstack 0
  4498                           
  4499 ;; *************** function _I2C_SlaveOpen *****************
  4500 ;; Defined at:
  4501 ;;		line 310 in file "mcc_generated_files/i2c_slave.c"
  4502 ;; Parameters:    Size  Location     Type
  4503 ;;		None
  4504 ;; Auto vars:     Size  Location     Type
  4505 ;;		None
  4506 ;; Return value:  Size  Location     Type
  4507 ;;                  1    wreg      _Bool 
  4508 ;; Registers used:
  4509 ;;		wreg, status,2, status,0
  4510 ;; Tracked objects:
  4511 ;;		On entry : 0/0
  4512 ;;		On exit  : 0/0
  4513 ;;		Unchanged: 0/0
  4514 ;; Data sizes:     COMRAM   BANK0   BANK1   BANK2   BANK3   BANK4   BANK5   BANK6   BANK7   BANK8   BANK9  BANK10  BANK1
      +1  BANK12  BANK13  BANK14  BANK15
  4515 ;;      Params:         0       0       0       0       0       0       0       0       0       0       0       0       
      +0       0       0       0       0
  4516 ;;      Locals:         0       0       0       0       0       0       0       0       0       0       0       0       
      +0       0       0       0       0
  4517 ;;      Temps:          0       0       0       0       0       0       0       0       0       0       0       0       
      +0       0       0       0       0
  4518 ;;      Totals:         0       0       0       0       0       0       0       0       0       0       0       0       
      +0       0       0       0       0
  4519 ;;Total ram usage:        0 bytes
  4520 ;; Hardware stack levels used: 1
  4521 ;; Hardware stack levels required when called: 7
  4522 ;; This function calls:
  4523 ;;		Nothing
  4524 ;; This function is called by:
  4525 ;;		_I2C_Open
  4526 ;; This function uses a non-reentrant model
  4527 ;;
  4528                           
  4529                           	psect	text31
  4530  00389E                     __ptext31:
  4531                           	callstack 0
  4532  00389E                     _I2C_SlaveOpen:
  4533                           	callstack 22
  4534  00389E                     
  4535                           ;mcc_generated_files/i2c_slave.c: 312:     if(!SSPCON1bits.SSPEN)
  4536  00389E  BAC6               	btfsc	198,5,c	;volatile
  4537  0038A0  EF54  F01C         	goto	u9661
  4538  0038A4  EF56  F01C         	goto	u9660
  4539  0038A8                     u9661:
  4540  0038A8  EF5D  F01C         	goto	l1707
  4541  0038AC                     u9660:
  4542  0038AC                     
  4543                           ;mcc_generated_files/i2c_slave.c: 313:     {;mcc_generated_files/i2c_slave.c: 314:      
      +                             SSPSTAT = 0x80;
  4544  0038AC  0E80               	movlw	128
  4545  0038AE  6EC7               	movwf	199,c	;volatile
  4546  0038B0                     
  4547                           ;mcc_generated_files/i2c_slave.c: 315:         SSPCON1 |= 0x06;
  4548  0038B0  0E06               	movlw	6
  4549  0038B2  12C6               	iorwf	198,f,c	;volatile
  4550  0038B4                     
  4551                           ;mcc_generated_files/i2c_slave.c: 316:         SSPCON2 = 0x00;
  4552  0038B4  0E00               	movlw	0
  4553  0038B6  6EC5               	movwf	197,c	;volatile
  4554  0038B8                     
  4555                           ;mcc_generated_files/i2c_slave.c: 317:         SSPCON1bits.SSPEN = 1;
  4556  0038B8  8AC6               	bsf	198,5,c	;volatile
  4557  0038BA                     l1707:
  4558  0038BA  0012               	return		;funcret
  4559  0038BC                     __end_of_I2C_SlaveOpen:
  4560                           	callstack 0
  4561                           
  4562 ;; *************** function _I2C_SlaveEnableIrq *****************
  4563 ;; Defined at:
  4564 ;;		line 341 in file "mcc_generated_files/i2c_slave.c"
  4565 ;; Parameters:    Size  Location     Type
  4566 ;;		None
  4567 ;; Auto vars:     Size  Location     Type
  4568 ;;		None
  4569 ;; Return value:  Size  Location     Type
  4570 ;;                  1    wreg      void 
  4571 ;; Registers used:
  4572 ;;		None
  4573 ;; Tracked objects:
  4574 ;;		On entry : 0/0
  4575 ;;		On exit  : 0/0
  4576 ;;		Unchanged: 0/0
  4577 ;; Data sizes:     COMRAM   BANK0   BANK1   BANK2   BANK3   BANK4   BANK5   BANK6   BANK7   BANK8   BANK9  BANK10  BANK1
      +1  BANK12  BANK13  BANK14  BANK15
  4578 ;;      Params:         0       0       0       0       0       0       0       0       0       0       0       0       
      +0       0       0       0       0
  4579 ;;      Locals:         0       0       0       0       0       0       0       0       0       0       0       0       
      +0       0       0       0       0
  4580 ;;      Temps:          0       0       0       0       0       0       0       0       0       0       0       0       
      +0       0       0       0       0
  4581 ;;      Totals:         0       0       0       0       0       0       0       0       0       0       0       0       
      +0       0       0       0       0
  4582 ;;Total ram usage:        0 bytes
  4583 ;; Hardware stack levels used: 1
  4584 ;; Hardware stack levels required when called: 7
  4585 ;; This function calls:
  4586 ;;		Nothing
  4587 ;; This function is called by:
  4588 ;;		_I2C_Open
  4589 ;; This function uses a non-reentrant model
  4590 ;;
  4591                           
  4592                           	psect	text32
  4593  0039F0                     __ptext32:
  4594                           	callstack 0
  4595  0039F0                     _I2C_SlaveEnableIrq:
  4596                           	callstack 22
  4597  0039F0                     
  4598                           ;mcc_generated_files/i2c_slave.c: 343:     PIE1bits.SSPIE = 1;
  4599  0039F0  869D               	bsf	157,3,c	;volatile
  4600  0039F2  0012               	return		;funcret
  4601  0039F4                     __end_of_I2C_SlaveEnableIrq:
  4602                           	callstack 0
  4603                           
  4604 ;; *************** function _CCP_PWM_Start *****************
  4605 ;; Defined at:
  4606 ;;		line 211 in file "MCAL/CCP/hal_ccp.c"
  4607 ;; Parameters:    Size  Location     Type
  4608 ;;  _ccp_obj        2   25[COMRAM] PTR const struct .
  4609 ;;		 -> ccp1(15), 
  4610 ;; Auto vars:     Size  Location     Type
  4611 ;;  ret             1    0        unsigned char 
  4612 ;; Return value:  Size  Location     Type
  4613 ;;                  1    wreg      unsigned char 
  4614 ;; Registers used:
  4615 ;;		wreg, fsr2l, fsr2h, status,2, status,0
  4616 ;; Tracked objects:
  4617 ;;		On entry : 0/0
  4618 ;;		On exit  : 0/0
  4619 ;;		Unchanged: 0/0
  4620 ;; Data sizes:     COMRAM   BANK0   BANK1   BANK2   BANK3   BANK4   BANK5   BANK6   BANK7   BANK8   BANK9  BANK10  BANK1
      +1  BANK12  BANK13  BANK14  BANK15
  4621 ;;      Params:         2       0       0       0       0       0       0       0       0       0       0       0       
      +0       0       0       0       0
  4622 ;;      Locals:         0       0       0       0       0       0       0       0       0       0       0       0       
      +0       0       0       0       0
  4623 ;;      Temps:          1       0       0       0       0       0       0       0       0       0       0       0       
      +0       0       0       0       0
  4624 ;;      Totals:         3       0       0       0       0       0       0       0       0       0       0       0       
      +0       0       0       0       0
  4625 ;;Total ram usage:        3 bytes
  4626 ;; Hardware stack levels used: 1
  4627 ;; Hardware stack levels required when called: 7
  4628 ;; This function calls:
  4629 ;;		Nothing
  4630 ;; This function is called by:
  4631 ;;		_main
  4632 ;; This function uses a non-reentrant model
  4633 ;;
  4634                           
  4635                           	psect	text33
  4636  00346C                     __ptext33:
  4637                           	callstack 0
  4638  00346C                     _CCP_PWM_Start:
  4639                           	callstack 23
  4640  00346C                     
  4641                           ;MCAL/CCP/hal_ccp.c: 214:     if(((void*)0) == _ccp_obj){
  4642  00346C  501A               	movf	CCP_PWM_Start@_ccp_obj^0,w,c
  4643  00346E  101B               	iorwf	(CCP_PWM_Start@_ccp_obj+1)^0,w,c
  4644  003470  A4D8               	btfss	status,2,c
  4645  003472  EF3D  F01A         	goto	u9861
  4646  003476  EF3F  F01A         	goto	u9860
  4647  00347A                     u9861:
  4648  00347A  EF41  F01A         	goto	l10113
  4649  00347E                     u9860:
  4650  00347E                     
  4651                           ;MCAL/CCP/hal_ccp.c: 216:     }
  4652  00347E  EF63  F01A         	goto	l496
  4653  003482                     l10113:
  4654                           
  4655                           ;MCAL/CCP/hal_ccp.c: 218:         if(CCP1_INST == _ccp_obj->ccp_inst){
  4656  003482  C01A  FFD9         	movff	CCP_PWM_Start@_ccp_obj,fsr2l
  4657  003486  C01B  FFDA         	movff	CCP_PWM_Start@_ccp_obj+1,fsr2h
  4658  00348A  50DF               	movf	indf2,w,c
  4659  00348C  A4D8               	btfss	status,2,c
  4660  00348E  EF4B  F01A         	goto	u9871
  4661  003492  EF4D  F01A         	goto	u9870
  4662  003496                     u9871:
  4663  003496  EF53  F01A         	goto	l10117
  4664  00349A                     u9870:
  4665  00349A                     
  4666                           ;MCAL/CCP/hal_ccp.c: 219:             CCP1CONbits.CCP1M = ((uint8)0x0C);
  4667  00349A  50BD               	movf	189,w,c	;volatile
  4668  00349C  0BF0               	andlw	-16
  4669  00349E  090C               	iorlw	12
  4670  0034A0  6EBD               	movwf	189,c	;volatile
  4671                           
  4672                           ;MCAL/CCP/hal_ccp.c: 220:         }
  4673  0034A2  EF63  F01A         	goto	l10121
  4674  0034A6                     l10117:
  4675  0034A6  C01A  FFD9         	movff	CCP_PWM_Start@_ccp_obj,fsr2l
  4676  0034AA  C01B  FFDA         	movff	CCP_PWM_Start@_ccp_obj+1,fsr2h
  4677  0034AE  04DE               	decf	postinc2,w,c
  4678  0034B0  A4D8               	btfss	status,2,c
  4679  0034B2  EF5D  F01A         	goto	u9881
  4680  0034B6  EF5F  F01A         	goto	u9880
  4681  0034BA                     u9881:
  4682  0034BA  EF63  F01A         	goto	l10121
  4683  0034BE                     u9880:
  4684  0034BE                     
  4685                           ;MCAL/CCP/hal_ccp.c: 222:             CCP2CONbits.CCP2M = ((uint8)0x0C);
  4686  0034BE  50BA               	movf	186,w,c	;volatile
  4687  0034C0  0BF0               	andlw	-16
  4688  0034C2  090C               	iorlw	12
  4689  0034C4  6EBA               	movwf	186,c	;volatile
  4690  0034C6                     l10121:
  4691  0034C6                     l496:
  4692  0034C6  0012               	return		;funcret
  4693  0034C8                     __end_of_CCP_PWM_Start:
  4694                           	callstack 0
  4695                           
  4696 ;; *************** function _CCP_PWM_Set_Duty *****************
  4697 ;; Defined at:
  4698 ;;		line 185 in file "MCAL/CCP/hal_ccp.c"
  4699 ;; Parameters:    Size  Location     Type
  4700 ;;  _ccp_obj        2    8[BANK1 ] PTR const struct .
  4701 ;;		 -> ccp1(15), 
  4702 ;;  _duty           1   10[BANK1 ] const unsigned char 
  4703 ;; Auto vars:     Size  Location     Type
  4704 ;;  l_duty_temp     2   17[BANK1 ] unsigned short 
  4705 ;;  ret             1    0        unsigned char 
  4706 ;; Return value:  Size  Location     Type
  4707 ;;                  1    wreg      unsigned char 
  4708 ;; Registers used:
  4709 ;;		wreg, fsr2l, fsr2h, status,2, status,0, prodl, prodh, cstack
  4710 ;; Tracked objects:
  4711 ;;		On entry : 0/0
  4712 ;;		On exit  : 0/0
  4713 ;;		Unchanged: 0/0
  4714 ;; Data sizes:     COMRAM   BANK0   BANK1   BANK2   BANK3   BANK4   BANK5   BANK6   BANK7   BANK8   BANK9  BANK10  BANK1
      +1  BANK12  BANK13  BANK14  BANK15
  4715 ;;      Params:         0       0       3       0       0       0       0       0       0       0       0       0       
      +0       0       0       0       0
  4716 ;;      Locals:         0       0       6       0       0       0       0       0       0       0       0       0       
      +0       0       0       0       0
  4717 ;;      Temps:          0       0       2       0       0       0       0       0       0       0       0       0       
      +0       0       0       0       0
  4718 ;;      Totals:         0       0      11       0       0       0       0       0       0       0       0       0       
      +0       0       0       0       0
  4719 ;;Total ram usage:       11 bytes
  4720 ;; Hardware stack levels used: 1
  4721 ;; Hardware stack levels required when called: 8
  4722 ;; This function calls:
  4723 ;;		___fladd
  4724 ;;		___fldiv
  4725 ;;		___flmul
  4726 ;;		___fltol
  4727 ;;		___xxtofl
  4728 ;; This function is called by:
  4729 ;;		_main
  4730 ;; This function uses a non-reentrant model
  4731 ;;
  4732                           
  4733                           	psect	text34
  4734  0022F6                     __ptext34:
  4735                           	callstack 0
  4736  0022F6                     _CCP_PWM_Set_Duty:
  4737                           	callstack 22
  4738  0022F6                     
  4739                           ;MCAL/CCP/hal_ccp.c: 187:     uint16 l_duty_temp = 0;
  4740  0022F6  0E00               	movlw	0
  4741  0022F8  0101               	movlb	1	; () banked
  4742  0022FA  6F45               	movwf	(CCP_PWM_Set_Duty@l_duty_temp+1)& (0+255),b
  4743  0022FC  0E00               	movlw	0
  4744  0022FE  6F44               	movwf	CCP_PWM_Set_Duty@l_duty_temp& (0+255),b
  4745  002300                     
  4746                           ; BSR set to: 1
  4747                           ;MCAL/CCP/hal_ccp.c: 189:     if(((void*)0) == _ccp_obj){
  4748  002300  513B               	movf	CCP_PWM_Set_Duty@_ccp_obj& (0+255),w,b
  4749  002302  113C               	iorwf	(CCP_PWM_Set_Duty@_ccp_obj+1)& (0+255),w,b
  4750  002304  A4D8               	btfss	status,2,c
  4751  002306  EF87  F011         	goto	u9831
  4752  00230A  EF89  F011         	goto	u9830
  4753  00230E                     u9831:
  4754  00230E  EF8B  F011         	goto	l10093
  4755  002312                     u9830:
  4756  002312                     
  4757                           ; BSR set to: 1
  4758                           ;MCAL/CCP/hal_ccp.c: 191:     }
  4759  002312  EF43  F012         	goto	l487
  4760  002316                     l10093:
  4761                           
  4762                           ; BSR set to: 1
  4763                           ;MCAL/CCP/hal_ccp.c: 193:         l_duty_temp = (uint16)((float)4 * ((float)PR2 + 1.0) *
      +                           ((float)_duty / 100.0));
  4764  002316  0E00               	movlw	0
  4765  002318  6E2C               	movwf	___flmul@a^0,c
  4766  00231A  0E00               	movlw	0
  4767  00231C  6E2D               	movwf	(___flmul@a+1)^0,c
  4768  00231E  0E80               	movlw	128
  4769  002320  6E2E               	movwf	(___flmul@a+2)^0,c
  4770  002322  0E40               	movlw	64
  4771  002324  6E2F               	movwf	(___flmul@a+3)^0,c
  4772  002326  0E00               	movlw	0
  4773  002328  0100               	movlb	0	; () banked
  4774  00232A  6FD3               	movwf	___fladd@a& (0+255),b
  4775  00232C  0E00               	movlw	0
  4776  00232E  6FD4               	movwf	(___fladd@a+1)& (0+255),b
  4777  002330  0E80               	movlw	128
  4778  002332  6FD5               	movwf	(___fladd@a+2)& (0+255),b
  4779  002334  0E3F               	movlw	63
  4780  002336  6FD6               	movwf	(___fladd@a+3)& (0+255),b
  4781  002338  50CB               	movf	203,w,c	;volatile
  4782  00233A  6E1A               	movwf	___xxtofl@val^0,c
  4783  00233C  6A1B               	clrf	(___xxtofl@val+1)^0,c
  4784  00233E  6A1C               	clrf	(___xxtofl@val+2)^0,c
  4785  002340  6A1D               	clrf	(___xxtofl@val+3)^0,c
  4786  002342  0E00               	movlw	0
  4787  002344  ECA1  F010         	call	___xxtofl
  4788  002348  C01A  F0CF         	movff	?___xxtofl,___fladd@b
  4789  00234C  C01B  F0D0         	movff	?___xxtofl+1,___fladd@b+1
  4790  002350  C01C  F0D1         	movff	?___xxtofl+2,___fladd@b+2
  4791  002354  C01D  F0D2         	movff	?___xxtofl+3,___fladd@b+3
  4792  002358  EC03  F008         	call	___fladd	;wreg free
  4793  00235C  C0CF  F028         	movff	?___fladd,___flmul@b
  4794  002360  C0D0  F029         	movff	?___fladd+1,___flmul@b+1
  4795  002364  C0D1  F02A         	movff	?___fladd+2,___flmul@b+2
  4796  002368  C0D2  F02B         	movff	?___fladd+3,___flmul@b+3
  4797  00236C  EC64  F00A         	call	___flmul	;wreg free
  4798  002370  C028  F140         	movff	?___flmul,_CCP_PWM_Set_Duty$5873
  4799  002374  C029  F141         	movff	?___flmul+1,_CCP_PWM_Set_Duty$5873+1
  4800  002378  C02A  F142         	movff	?___flmul+2,_CCP_PWM_Set_Duty$5873+2
  4801  00237C  C02B  F143         	movff	?___flmul+3,_CCP_PWM_Set_Duty$5873+3
  4802                           
  4803                           ;MCAL/CCP/hal_ccp.c: 193:         l_duty_temp = (uint16)((float)4 * ((float)PR2 + 1.0) *
      +                           ((float)_duty / 100.0));
  4804  002380  0E00               	movlw	0
  4805  002382  6E45               	movwf	___fldiv@a^0,c
  4806  002384  0E00               	movlw	0
  4807  002386  6E46               	movwf	(___fldiv@a+1)^0,c
  4808  002388  0EC8               	movlw	200
  4809  00238A  6E47               	movwf	(___fldiv@a+2)^0,c
  4810  00238C  0E42               	movlw	66
  4811  00238E  6E48               	movwf	(___fldiv@a+3)^0,c
  4812  002390  0101               	movlb	1	; () banked
  4813  002392  513D               	movf	CCP_PWM_Set_Duty@_duty& (0+255),w,b
  4814  002394  6E1A               	movwf	___xxtofl@val^0,c
  4815  002396  6A1B               	clrf	(___xxtofl@val+1)^0,c
  4816  002398  6A1C               	clrf	(___xxtofl@val+2)^0,c
  4817  00239A  6A1D               	clrf	(___xxtofl@val+3)^0,c
  4818  00239C  0E00               	movlw	0
  4819  00239E  ECA1  F010         	call	___xxtofl
  4820  0023A2  C01A  F041         	movff	?___xxtofl,___fldiv@b
  4821  0023A6  C01B  F042         	movff	?___xxtofl+1,___fldiv@b+1
  4822  0023AA  C01C  F043         	movff	?___xxtofl+2,___fldiv@b+2
  4823  0023AE  C01D  F044         	movff	?___xxtofl+3,___fldiv@b+3
  4824  0023B2  EC79  F00C         	call	___fldiv	;wreg free
  4825  0023B6  C041  F02C         	movff	?___fldiv,___flmul@a
  4826  0023BA  C042  F02D         	movff	?___fldiv+1,___flmul@a+1
  4827  0023BE  C043  F02E         	movff	?___fldiv+2,___flmul@a+2
  4828  0023C2  C044  F02F         	movff	?___fldiv+3,___flmul@a+3
  4829  0023C6  C140  F028         	movff	_CCP_PWM_Set_Duty$5873,___flmul@b
  4830  0023CA  C141  F029         	movff	_CCP_PWM_Set_Duty$5873+1,___flmul@b+1
  4831  0023CE  C142  F02A         	movff	_CCP_PWM_Set_Duty$5873+2,___flmul@b+2
  4832  0023D2  C143  F02B         	movff	_CCP_PWM_Set_Duty$5873+3,___flmul@b+3
  4833  0023D6  EC64  F00A         	call	___flmul	;wreg free
  4834  0023DA  C028  F133         	movff	?___flmul,___fltol@f1
  4835  0023DE  C029  F134         	movff	?___flmul+1,___fltol@f1+1
  4836  0023E2  C02A  F135         	movff	?___flmul+2,___fltol@f1+2
  4837  0023E6  C02B  F136         	movff	?___flmul+3,___fltol@f1+3
  4838  0023EA  ECD0  F016         	call	___fltol	;wreg free
  4839  0023EE  C133  F144         	movff	?___fltol,CCP_PWM_Set_Duty@l_duty_temp
  4840  0023F2  C134  F145         	movff	?___fltol+1,CCP_PWM_Set_Duty@l_duty_temp+1
  4841  0023F6                     
  4842                           ;MCAL/CCP/hal_ccp.c: 195:         if(CCP1_INST == _ccp_obj->ccp_inst){
  4843  0023F6  C13B  FFD9         	movff	CCP_PWM_Set_Duty@_ccp_obj,fsr2l
  4844  0023FA  C13C  FFDA         	movff	CCP_PWM_Set_Duty@_ccp_obj+1,fsr2h
  4845  0023FE  50DF               	movf	indf2,w,c
  4846  002400  A4D8               	btfss	status,2,c
  4847  002402  EF05  F012         	goto	u9841
  4848  002406  EF07  F012         	goto	u9840
  4849  00240A                     u9841:
  4850  00240A  EF20  F012         	goto	l10099
  4851  00240E                     u9840:
  4852  00240E                     
  4853                           ;MCAL/CCP/hal_ccp.c: 196:             CCP1CONbits.DC1B = (uint8)(l_duty_temp & 0x0003);
  4854  00240E  C144  F13E         	movff	CCP_PWM_Set_Duty@l_duty_temp,??_CCP_PWM_Set_Duty
  4855  002412  0E03               	movlw	3
  4856  002414  0101               	movlb	1	; () banked
  4857  002416  173E               	andwf	??_CCP_PWM_Set_Duty& (0+255),f,b
  4858  002418  3B3E               	swapf	??_CCP_PWM_Set_Duty& (0+255),f,b
  4859  00241A  50BD               	movf	189,w,c	;volatile
  4860  00241C  193E               	xorwf	??_CCP_PWM_Set_Duty& (0+255),w,b
  4861  00241E  0BCF               	andlw	-49
  4862  002420  193E               	xorwf	??_CCP_PWM_Set_Duty& (0+255),w,b
  4863  002422  6EBD               	movwf	189,c	;volatile
  4864                           
  4865                           ;MCAL/CCP/hal_ccp.c: 197:             CCPR1L = (uint8)(l_duty_temp >> 2);
  4866  002424  C144  F13E         	movff	CCP_PWM_Set_Duty@l_duty_temp,??_CCP_PWM_Set_Duty
  4867  002428  C145  F13F         	movff	CCP_PWM_Set_Duty@l_duty_temp+1,??_CCP_PWM_Set_Duty+1
  4868  00242C  90D8               	bcf	status,0,c
  4869  00242E  333F               	rrcf	(??_CCP_PWM_Set_Duty+1)& (0+255),f,b
  4870  002430  333E               	rrcf	??_CCP_PWM_Set_Duty& (0+255),f,b
  4871  002432  90D8               	bcf	status,0,c
  4872  002434  333F               	rrcf	(??_CCP_PWM_Set_Duty+1)& (0+255),f,b
  4873  002436  333E               	rrcf	??_CCP_PWM_Set_Duty& (0+255),f,b
  4874  002438  513E               	movf	??_CCP_PWM_Set_Duty& (0+255),w,b
  4875  00243A  6EBE               	movwf	190,c	;volatile
  4876                           
  4877                           ;MCAL/CCP/hal_ccp.c: 198:         }
  4878  00243C  EF43  F012         	goto	l10103
  4879  002440                     l10099:
  4880  002440  C13B  FFD9         	movff	CCP_PWM_Set_Duty@_ccp_obj,fsr2l
  4881  002444  C13C  FFDA         	movff	CCP_PWM_Set_Duty@_ccp_obj+1,fsr2h
  4882  002448  04DE               	decf	postinc2,w,c
  4883  00244A  A4D8               	btfss	status,2,c
  4884  00244C  EF2A  F012         	goto	u9851
  4885  002450  EF2C  F012         	goto	u9850
  4886  002454                     u9851:
  4887  002454  EF43  F012         	goto	l10103
  4888  002458                     u9850:
  4889  002458                     
  4890                           ;MCAL/CCP/hal_ccp.c: 200:             CCP2CONbits.DC2B = (uint8)(l_duty_temp & 0x0003);
  4891  002458  C144  F13E         	movff	CCP_PWM_Set_Duty@l_duty_temp,??_CCP_PWM_Set_Duty
  4892  00245C  0E03               	movlw	3
  4893  00245E  0101               	movlb	1	; () banked
  4894  002460  173E               	andwf	??_CCP_PWM_Set_Duty& (0+255),f,b
  4895  002462  3B3E               	swapf	??_CCP_PWM_Set_Duty& (0+255),f,b
  4896  002464  50BA               	movf	186,w,c	;volatile
  4897  002466  193E               	xorwf	??_CCP_PWM_Set_Duty& (0+255),w,b
  4898  002468  0BCF               	andlw	-49
  4899  00246A  193E               	xorwf	??_CCP_PWM_Set_Duty& (0+255),w,b
  4900  00246C  6EBA               	movwf	186,c	;volatile
  4901                           
  4902                           ;MCAL/CCP/hal_ccp.c: 201:             CCPR2L = (uint8)(l_duty_temp >> 2);
  4903  00246E  C144  F13E         	movff	CCP_PWM_Set_Duty@l_duty_temp,??_CCP_PWM_Set_Duty
  4904  002472  C145  F13F         	movff	CCP_PWM_Set_Duty@l_duty_temp+1,??_CCP_PWM_Set_Duty+1
  4905  002476  90D8               	bcf	status,0,c
  4906  002478  333F               	rrcf	(??_CCP_PWM_Set_Duty+1)& (0+255),f,b
  4907  00247A  333E               	rrcf	??_CCP_PWM_Set_Duty& (0+255),f,b
  4908  00247C  90D8               	bcf	status,0,c
  4909  00247E  333F               	rrcf	(??_CCP_PWM_Set_Duty+1)& (0+255),f,b
  4910  002480  333E               	rrcf	??_CCP_PWM_Set_Duty& (0+255),f,b
  4911  002482  513E               	movf	??_CCP_PWM_Set_Duty& (0+255),w,b
  4912  002484  6EBB               	movwf	187,c	;volatile
  4913  002486                     l10103:
  4914  002486                     l487:
  4915  002486  0012               	return		;funcret
  4916  002488                     __end_of_CCP_PWM_Set_Duty:
  4917                           	callstack 0
  4918                           
  4919 ;; *************** function ___xxtofl *****************
  4920 ;; Defined at:
  4921 ;;		line 10 in file "C:\Program Files\Microchip\xc8\v2.36\pic\sources\c99\common\xxtofl.c"
  4922 ;; Parameters:    Size  Location     Type
  4923 ;;  sign            1    wreg     unsigned char 
  4924 ;;  val             4   25[COMRAM] long 
  4925 ;; Auto vars:     Size  Location     Type
  4926 ;;  sign            1   33[COMRAM] unsigned char 
  4927 ;;  arg             4   35[COMRAM] unsigned long 
  4928 ;;  exp             1   34[COMRAM] unsigned char 
  4929 ;; Return value:  Size  Location     Type
  4930 ;;                  4   25[COMRAM] unsigned char 
  4931 ;; Registers used:
  4932 ;;		wreg, status,2, status,0
  4933 ;; Tracked objects:
  4934 ;;		On entry : 0/0
  4935 ;;		On exit  : 0/0
  4936 ;;		Unchanged: 0/0
  4937 ;; Data sizes:     COMRAM   BANK0   BANK1   BANK2   BANK3   BANK4   BANK5   BANK6   BANK7   BANK8   BANK9  BANK10  BANK1
      +1  BANK12  BANK13  BANK14  BANK15
  4938 ;;      Params:         4       0       0       0       0       0       0       0       0       0       0       0       
      +0       0       0       0       0
  4939 ;;      Locals:         6       0       0       0       0       0       0       0       0       0       0       0       
      +0       0       0       0       0
  4940 ;;      Temps:          4       0       0       0       0       0       0       0       0       0       0       0       
      +0       0       0       0       0
  4941 ;;      Totals:        14       0       0       0       0       0       0       0       0       0       0       0       
      +0       0       0       0       0
  4942 ;;Total ram usage:       14 bytes
  4943 ;; Hardware stack levels used: 1
  4944 ;; Hardware stack levels required when called: 7
  4945 ;; This function calls:
  4946 ;;		Nothing
  4947 ;; This function is called by:
  4948 ;;		_CCP_PWM_Set_Duty
  4949 ;;		_CCP_PWM_Mode_Config
  4950 ;;		_main
  4951 ;;		_EUSART_Baud_Rate_Calculation
  4952 ;; This function uses a non-reentrant model
  4953 ;;
  4954                           
  4955                           	psect	text35
  4956  002142                     __ptext35:
  4957                           	callstack 0
  4958  002142                     ___xxtofl:
  4959                           	callstack 23
  4960                           
  4961                           ;incstack = 0
  4962                           ;___xxtofl@sign stored from wreg
  4963  002142  6E22               	movwf	___xxtofl@sign^0,c
  4964  002144  5022               	movf	___xxtofl@sign^0,w,c
  4965  002146  B4D8               	btfsc	status,2,c
  4966  002148  EFA8  F010         	goto	u9261
  4967  00214C  EFAA  F010         	goto	u9260
  4968  002150                     u9261:
  4969  002150  EFCC  F010         	goto	l2574
  4970  002154                     u9260:
  4971  002154  BE1D               	btfsc	(___xxtofl@val+3)^0,7,c
  4972  002156  EFB1  F010         	goto	u9270
  4973  00215A  EFAF  F010         	goto	u9271
  4974  00215E                     u9271:
  4975  00215E  EFCC  F010         	goto	l2574
  4976  002162                     u9270:
  4977  002162  C01A  F01E         	movff	___xxtofl@val,??___xxtofl
  4978  002166  C01B  F01F         	movff	___xxtofl@val+1,??___xxtofl+1
  4979  00216A  C01C  F020         	movff	___xxtofl@val+2,??___xxtofl+2
  4980  00216E  C01D  F021         	movff	___xxtofl@val+3,??___xxtofl+3
  4981  002172  1E1E               	comf	??___xxtofl^0,f,c
  4982  002174  1E1F               	comf	(??___xxtofl+1)^0,f,c
  4983  002176  1E20               	comf	(??___xxtofl+2)^0,f,c
  4984  002178  1E21               	comf	(??___xxtofl+3)^0,f,c
  4985  00217A  2A1E               	incf	??___xxtofl^0,f,c
  4986  00217C  0E00               	movlw	0
  4987  00217E  221F               	addwfc	(??___xxtofl+1)^0,f,c
  4988  002180  2220               	addwfc	(??___xxtofl+2)^0,f,c
  4989  002182  2221               	addwfc	(??___xxtofl+3)^0,f,c
  4990  002184  C01E  F024         	movff	??___xxtofl,___xxtofl@arg
  4991  002188  C01F  F025         	movff	??___xxtofl+1,___xxtofl@arg+1
  4992  00218C  C020  F026         	movff	??___xxtofl+2,___xxtofl@arg+2
  4993  002190  C021  F027         	movff	??___xxtofl+3,___xxtofl@arg+3
  4994  002194  EFD4  F010         	goto	l9557
  4995  002198                     l2574:
  4996  002198  C01A  F024         	movff	___xxtofl@val,___xxtofl@arg
  4997  00219C  C01B  F025         	movff	___xxtofl@val+1,___xxtofl@arg+1
  4998  0021A0  C01C  F026         	movff	___xxtofl@val+2,___xxtofl@arg+2
  4999  0021A4  C01D  F027         	movff	___xxtofl@val+3,___xxtofl@arg+3
  5000  0021A8                     l9557:
  5001  0021A8  501A               	movf	___xxtofl@val^0,w,c
  5002  0021AA  101B               	iorwf	(___xxtofl@val+1)^0,w,c
  5003  0021AC  101C               	iorwf	(___xxtofl@val+2)^0,w,c
  5004  0021AE  101D               	iorwf	(___xxtofl@val+3)^0,w,c
  5005  0021B0  A4D8               	btfss	status,2,c
  5006  0021B2  EFDD  F010         	goto	u9281
  5007  0021B6  EFDF  F010         	goto	u9280
  5008  0021BA                     u9281:
  5009  0021BA  EFE9  F010         	goto	l9563
  5010  0021BE                     u9280:
  5011  0021BE  0E00               	movlw	0
  5012  0021C0  6E1A               	movwf	?___xxtofl^0,c
  5013  0021C2  0E00               	movlw	0
  5014  0021C4  6E1B               	movwf	(?___xxtofl+1)^0,c
  5015  0021C6  0E00               	movlw	0
  5016  0021C8  6E1C               	movwf	(?___xxtofl+2)^0,c
  5017  0021CA  0E00               	movlw	0
  5018  0021CC  6E1D               	movwf	(?___xxtofl+3)^0,c
  5019  0021CE  EF7A  F011         	goto	l2577
  5020  0021D2                     l9563:
  5021  0021D2  0E96               	movlw	150
  5022  0021D4  6E23               	movwf	___xxtofl@exp^0,c
  5023  0021D6  EFF3  F010         	goto	l9567
  5024  0021DA                     l9565:
  5025  0021DA  2A23               	incf	___xxtofl@exp^0,f,c
  5026  0021DC  90D8               	bcf	status,0,c
  5027  0021DE  3227               	rrcf	(___xxtofl@arg+3)^0,f,c
  5028  0021E0  3226               	rrcf	(___xxtofl@arg+2)^0,f,c
  5029  0021E2  3225               	rrcf	(___xxtofl@arg+1)^0,f,c
  5030  0021E4  3224               	rrcf	___xxtofl@arg^0,f,c
  5031  0021E6                     l9567:
  5032  0021E6  0E00               	movlw	0
  5033  0021E8  1424               	andwf	___xxtofl@arg^0,w,c
  5034  0021EA  6E1E               	movwf	??___xxtofl^0,c
  5035  0021EC  0E00               	movlw	0
  5036  0021EE  1425               	andwf	(___xxtofl@arg+1)^0,w,c
  5037  0021F0  6E1F               	movwf	(??___xxtofl+1)^0,c
  5038  0021F2  0E00               	movlw	0
  5039  0021F4  1426               	andwf	(___xxtofl@arg+2)^0,w,c
  5040  0021F6  6E20               	movwf	(??___xxtofl+2)^0,c
  5041  0021F8  0EFE               	movlw	254
  5042  0021FA  1427               	andwf	(___xxtofl@arg+3)^0,w,c
  5043  0021FC  6E21               	movwf	(??___xxtofl+3)^0,c
  5044  0021FE  501E               	movf	??___xxtofl^0,w,c
  5045  002200  101F               	iorwf	(??___xxtofl+1)^0,w,c
  5046  002202  1020               	iorwf	(??___xxtofl+2)^0,w,c
  5047  002204  1021               	iorwf	(??___xxtofl+3)^0,w,c
  5048  002206  A4D8               	btfss	status,2,c
  5049  002208  EF08  F011         	goto	u9291
  5050  00220C  EF0A  F011         	goto	u9290
  5051  002210                     u9291:
  5052  002210  EFED  F010         	goto	l9565
  5053  002214                     u9290:
  5054  002214  EF18  F011         	goto	l2581
  5055  002218                     l9569:
  5056  002218  2A23               	incf	___xxtofl@exp^0,f,c
  5057  00221A  0E01               	movlw	1
  5058  00221C  2624               	addwf	___xxtofl@arg^0,f,c
  5059  00221E  0E00               	movlw	0
  5060  002220  2225               	addwfc	(___xxtofl@arg+1)^0,f,c
  5061  002222  2226               	addwfc	(___xxtofl@arg+2)^0,f,c
  5062  002224  2227               	addwfc	(___xxtofl@arg+3)^0,f,c
  5063  002226  90D8               	bcf	status,0,c
  5064  002228  3227               	rrcf	(___xxtofl@arg+3)^0,f,c
  5065  00222A  3226               	rrcf	(___xxtofl@arg+2)^0,f,c
  5066  00222C  3225               	rrcf	(___xxtofl@arg+1)^0,f,c
  5067  00222E  3224               	rrcf	___xxtofl@arg^0,f,c
  5068  002230                     l2581:
  5069  002230  0E00               	movlw	0
  5070  002232  1424               	andwf	___xxtofl@arg^0,w,c
  5071  002234  6E1E               	movwf	??___xxtofl^0,c
  5072  002236  0E00               	movlw	0
  5073  002238  1425               	andwf	(___xxtofl@arg+1)^0,w,c
  5074  00223A  6E1F               	movwf	(??___xxtofl+1)^0,c
  5075  00223C  0E00               	movlw	0
  5076  00223E  1426               	andwf	(___xxtofl@arg+2)^0,w,c
  5077  002240  6E20               	movwf	(??___xxtofl+2)^0,c
  5078  002242  0EFF               	movlw	255
  5079  002244  1427               	andwf	(___xxtofl@arg+3)^0,w,c
  5080  002246  6E21               	movwf	(??___xxtofl+3)^0,c
  5081  002248  501E               	movf	??___xxtofl^0,w,c
  5082  00224A  101F               	iorwf	(??___xxtofl+1)^0,w,c
  5083  00224C  1020               	iorwf	(??___xxtofl+2)^0,w,c
  5084  00224E  1021               	iorwf	(??___xxtofl+3)^0,w,c
  5085  002250  A4D8               	btfss	status,2,c
  5086  002252  EF2D  F011         	goto	u9301
  5087  002256  EF2F  F011         	goto	u9300
  5088  00225A                     u9301:
  5089  00225A  EF0C  F011         	goto	l9569
  5090  00225E                     u9300:
  5091  00225E  EF37  F011         	goto	l9577
  5092  002262                     l9575:
  5093  002262  0623               	decf	___xxtofl@exp^0,f,c
  5094  002264  90D8               	bcf	status,0,c
  5095  002266  3624               	rlcf	___xxtofl@arg^0,f,c
  5096  002268  3625               	rlcf	(___xxtofl@arg+1)^0,f,c
  5097  00226A  3626               	rlcf	(___xxtofl@arg+2)^0,f,c
  5098  00226C  3627               	rlcf	(___xxtofl@arg+3)^0,f,c
  5099  00226E                     l9577:
  5100  00226E  BE26               	btfsc	(___xxtofl@arg+2)^0,7,c
  5101  002270  EF3C  F011         	goto	u9311
  5102  002274  EF3E  F011         	goto	u9310
  5103  002278                     u9311:
  5104  002278  EF46  F011         	goto	l2588
  5105  00227C                     u9310:
  5106  00227C  0E02               	movlw	2
  5107  00227E  6023               	cpfslt	___xxtofl@exp^0,c
  5108  002280  EF44  F011         	goto	u9321
  5109  002284  EF46  F011         	goto	u9320
  5110  002288                     u9321:
  5111  002288  EF31  F011         	goto	l9575
  5112  00228C                     u9320:
  5113  00228C                     l2588:
  5114  00228C  B023               	btfsc	___xxtofl@exp^0,0,c
  5115  00228E  EF4B  F011         	goto	u9331
  5116  002292  EF4D  F011         	goto	u9330
  5117  002296                     u9331:
  5118  002296  EF4E  F011         	goto	l9583
  5119  00229A                     u9330:
  5120  00229A  9E26               	bcf	(___xxtofl@arg+2)^0,7,c
  5121  00229C                     l9583:
  5122  00229C  90D8               	bcf	status,0,c
  5123  00229E  3223               	rrcf	___xxtofl@exp^0,f,c
  5124  0022A0  C023  F01E         	movff	___xxtofl@exp,??___xxtofl
  5125  0022A4  6A1F               	clrf	(??___xxtofl+1)^0,c
  5126  0022A6  6A20               	clrf	(??___xxtofl+2)^0,c
  5127  0022A8  6A21               	clrf	(??___xxtofl+3)^0,c
  5128  0022AA  C01E  F021         	movff	??___xxtofl,??___xxtofl+3
  5129  0022AE  6A20               	clrf	(??___xxtofl+2)^0,c
  5130  0022B0  6A1F               	clrf	(??___xxtofl+1)^0,c
  5131  0022B2  6A1E               	clrf	??___xxtofl^0,c
  5132  0022B4  501E               	movf	??___xxtofl^0,w,c
  5133  0022B6  1224               	iorwf	___xxtofl@arg^0,f,c
  5134  0022B8  501F               	movf	(??___xxtofl+1)^0,w,c
  5135  0022BA  1225               	iorwf	(___xxtofl@arg+1)^0,f,c
  5136  0022BC  5020               	movf	(??___xxtofl+2)^0,w,c
  5137  0022BE  1226               	iorwf	(___xxtofl@arg+2)^0,f,c
  5138  0022C0  5021               	movf	(??___xxtofl+3)^0,w,c
  5139  0022C2  1227               	iorwf	(___xxtofl@arg+3)^0,f,c
  5140  0022C4  5022               	movf	___xxtofl@sign^0,w,c
  5141  0022C6  B4D8               	btfsc	status,2,c
  5142  0022C8  EF68  F011         	goto	u9341
  5143  0022CC  EF6A  F011         	goto	u9340
  5144  0022D0                     u9341:
  5145  0022D0  EF72  F011         	goto	l9593
  5146  0022D4                     u9340:
  5147  0022D4  BE1D               	btfsc	(___xxtofl@val+3)^0,7,c
  5148  0022D6  EF71  F011         	goto	u9350
  5149  0022DA  EF6F  F011         	goto	u9351
  5150  0022DE                     u9351:
  5151  0022DE  EF72  F011         	goto	l9593
  5152  0022E2                     u9350:
  5153  0022E2  8E27               	bsf	(___xxtofl@arg+3)^0,7,c
  5154  0022E4                     l9593:
  5155  0022E4  C024  F01A         	movff	___xxtofl@arg,?___xxtofl
  5156  0022E8  C025  F01B         	movff	___xxtofl@arg+1,?___xxtofl+1
  5157  0022EC  C026  F01C         	movff	___xxtofl@arg+2,?___xxtofl+2
  5158  0022F0  C027  F01D         	movff	___xxtofl@arg+3,?___xxtofl+3
  5159  0022F4                     l2577:
  5160  0022F4  0012               	return		;funcret
  5161  0022F6                     __end_of___xxtofl:
  5162                           	callstack 0
  5163                           
  5164 ;; *************** function ___fltol *****************
  5165 ;; Defined at:
  5166 ;;		line 43 in file "C:\Program Files\Microchip\xc8\v2.36\pic\sources\c99\common\fltol.c"
  5167 ;; Parameters:    Size  Location     Type
  5168 ;;  f1              4    0[BANK1 ] unsigned char 
  5169 ;; Auto vars:     Size  Location     Type
  5170 ;;  exp1            1   30[BANK0 ] unsigned char 
  5171 ;;  sign1           1   29[BANK0 ] unsigned char 
  5172 ;; Return value:  Size  Location     Type
  5173 ;;                  4    0[BANK1 ] long 
  5174 ;; Registers used:
  5175 ;;		wreg, status,2, status,0
  5176 ;; Tracked objects:
  5177 ;;		On entry : 0/0
  5178 ;;		On exit  : 0/0
  5179 ;;		Unchanged: 0/0
  5180 ;; Data sizes:     COMRAM   BANK0   BANK1   BANK2   BANK3   BANK4   BANK5   BANK6   BANK7   BANK8   BANK9  BANK10  BANK1
      +1  BANK12  BANK13  BANK14  BANK15
  5181 ;;      Params:         0       0       4       0       0       0       0       0       0       0       0       0       
      +0       0       0       0       0
  5182 ;;      Locals:         0       2       0       0       0       0       0       0       0       0       0       0       
      +0       0       0       0       0
  5183 ;;      Temps:          0       0       4       0       0       0       0       0       0       0       0       0       
      +0       0       0       0       0
  5184 ;;      Totals:         0       2       8       0       0       0       0       0       0       0       0       0       
      +0       0       0       0       0
  5185 ;;Total ram usage:       10 bytes
  5186 ;; Hardware stack levels used: 1
  5187 ;; Hardware stack levels required when called: 7
  5188 ;; This function calls:
  5189 ;;		Nothing
  5190 ;; This function is called by:
  5191 ;;		_CCP_PWM_Set_Duty
  5192 ;;		_CCP_PWM_Mode_Config
  5193 ;;		_main
  5194 ;;		_EUSART_Baud_Rate_Calculation
  5195 ;; This function uses a non-reentrant model
  5196 ;;
  5197                           
  5198                           	psect	text36
  5199  002DA0                     __ptext36:
  5200                           	callstack 0
  5201  002DA0                     ___fltol:
  5202                           	callstack 23
  5203  002DA0  0101               	movlb	1	; () banked
  5204  002DA2  3535               	rlcf	(___fltol@f1+2)& (0+255),w,b
  5205  002DA4  3536               	rlcf	(___fltol@f1+3)& (0+255),w,b
  5206  002DA6  0100               	movlb	0	; () banked
  5207  002DA8  6FE0               	movwf	___fltol@exp1& (0+255),b
  5208  002DAA  51E0               	movf	___fltol@exp1& (0+255),w,b
  5209  002DAC  A4D8               	btfss	status,2,c
  5210  002DAE  EFDB  F016         	goto	u9191
  5211  002DB2  EFDD  F016         	goto	u9190
  5212  002DB6                     u9191:
  5213  002DB6  EFE8  F016         	goto	l9513
  5214  002DBA                     u9190:
  5215  002DBA                     l9509:
  5216                           
  5217                           ; BSR set to: 0
  5218  002DBA  0E00               	movlw	0
  5219  002DBC  0101               	movlb	1	; () banked
  5220  002DBE  6F33               	movwf	?___fltol& (0+255),b
  5221  002DC0  0E00               	movlw	0
  5222  002DC2  6F34               	movwf	(?___fltol+1)& (0+255),b
  5223  002DC4  0E00               	movlw	0
  5224  002DC6  6F35               	movwf	(?___fltol+2)& (0+255),b
  5225  002DC8  0E00               	movlw	0
  5226  002DCA  6F36               	movwf	(?___fltol+3)& (0+255),b
  5227  002DCC  EF5E  F017         	goto	l2216
  5228  002DD0                     l9513:
  5229                           
  5230                           ; BSR set to: 0
  5231  002DD0  C133  F137         	movff	___fltol@f1,??___fltol
  5232  002DD4  C134  F138         	movff	___fltol@f1+1,??___fltol+1
  5233  002DD8  C135  F139         	movff	___fltol@f1+2,??___fltol+2
  5234  002DDC  C136  F13A         	movff	___fltol@f1+3,??___fltol+3
  5235  002DE0  0E20               	movlw	32
  5236  002DE2  EFF9  F016         	goto	u9200
  5237  002DE6                     u9205:
  5238  002DE6  0101               	movlb	1	; () banked
  5239  002DE8  90D8               	bcf	status,0,c
  5240  002DEA  333A               	rrcf	(??___fltol+3)& (0+255),f,b
  5241  002DEC  3339               	rrcf	(??___fltol+2)& (0+255),f,b
  5242  002DEE  3338               	rrcf	(??___fltol+1)& (0+255),f,b
  5243  002DF0  3337               	rrcf	??___fltol& (0+255),f,b
  5244  002DF2                     u9200:
  5245  002DF2  2EE8               	decfsz	wreg,f,c
  5246  002DF4  EFF3  F016         	goto	u9205
  5247  002DF8  5137               	movf	??___fltol& (0+255),w,b
  5248  002DFA  0100               	movlb	0	; () banked
  5249  002DFC  6FDF               	movwf	___fltol@sign1& (0+255),b
  5250  002DFE                     
  5251                           ; BSR set to: 0
  5252  002DFE  0101               	movlb	1	; () banked
  5253  002E00  8F35               	bsf	(___fltol@f1+2)& (0+255),7,b
  5254  002E02                     
  5255                           ; BSR set to: 1
  5256  002E02  0EFF               	movlw	255
  5257  002E04  1733               	andwf	___fltol@f1& (0+255),f,b
  5258  002E06  0EFF               	movlw	255
  5259  002E08  1734               	andwf	(___fltol@f1+1)& (0+255),f,b
  5260  002E0A  0EFF               	movlw	255
  5261  002E0C  1735               	andwf	(___fltol@f1+2)& (0+255),f,b
  5262  002E0E  0E00               	movlw	0
  5263  002E10  1736               	andwf	(___fltol@f1+3)& (0+255),f,b
  5264  002E12                     
  5265                           ; BSR set to: 1
  5266  002E12  0E96               	movlw	150
  5267  002E14  0100               	movlb	0	; () banked
  5268  002E16  5FE0               	subwf	___fltol@exp1& (0+255),f,b
  5269  002E18                     
  5270                           ; BSR set to: 0
  5271  002E18  BFE0               	btfsc	___fltol@exp1& (0+255),7,b
  5272  002E1A  EF13  F017         	goto	u9210
  5273  002E1E  EF11  F017         	goto	u9211
  5274  002E22                     u9211:
  5275  002E22  EF2B  F017         	goto	l9533
  5276  002E26                     u9210:
  5277  002E26                     
  5278                           ; BSR set to: 0
  5279  002E26  51E0               	movf	___fltol@exp1& (0+255),w,b
  5280  002E28  0A80               	xorlw	128
  5281  002E2A  0F97               	addlw	151
  5282  002E2C  B0D8               	btfsc	status,0,c
  5283  002E2E  EF1B  F017         	goto	u9221
  5284  002E32  EF1D  F017         	goto	u9220
  5285  002E36                     u9221:
  5286  002E36  EF1F  F017         	goto	l9529
  5287  002E3A                     u9220:
  5288  002E3A  EFDD  F016         	goto	l9509
  5289  002E3E                     l9529:
  5290                           
  5291                           ; BSR set to: 0
  5292  002E3E  0101               	movlb	1	; () banked
  5293  002E40  90D8               	bcf	status,0,c
  5294  002E42  3336               	rrcf	(___fltol@f1+3)& (0+255),f,b
  5295  002E44  3335               	rrcf	(___fltol@f1+2)& (0+255),f,b
  5296  002E46  3334               	rrcf	(___fltol@f1+1)& (0+255),f,b
  5297  002E48  3333               	rrcf	___fltol@f1& (0+255),f,b
  5298  002E4A                     
  5299                           ; BSR set to: 1
  5300  002E4A  0100               	movlb	0	; () banked
  5301  002E4C  3FE0               	incfsz	___fltol@exp1& (0+255),f,b
  5302  002E4E  EF1F  F017         	goto	l9529
  5303  002E52  EF45  F017         	goto	l9543
  5304  002E56                     l9533:
  5305                           
  5306                           ; BSR set to: 0
  5307  002E56  0E1F               	movlw	31
  5308  002E58  65E0               	cpfsgt	___fltol@exp1& (0+255),b
  5309  002E5A  EF31  F017         	goto	u9231
  5310  002E5E  EF33  F017         	goto	u9230
  5311  002E62                     u9231:
  5312  002E62  EF3D  F017         	goto	l9541
  5313  002E66                     u9230:
  5314  002E66  EFDD  F016         	goto	l9509
  5315  002E6A                     l9539:
  5316                           
  5317                           ; BSR set to: 0
  5318  002E6A  0101               	movlb	1	; () banked
  5319  002E6C  90D8               	bcf	status,0,c
  5320  002E6E  3733               	rlcf	___fltol@f1& (0+255),f,b
  5321  002E70  3734               	rlcf	(___fltol@f1+1)& (0+255),f,b
  5322  002E72  3735               	rlcf	(___fltol@f1+2)& (0+255),f,b
  5323  002E74  3736               	rlcf	(___fltol@f1+3)& (0+255),f,b
  5324  002E76  0100               	movlb	0	; () banked
  5325  002E78  07E0               	decf	___fltol@exp1& (0+255),f,b
  5326  002E7A                     l9541:
  5327                           
  5328                           ; BSR set to: 0
  5329  002E7A  51E0               	movf	___fltol@exp1& (0+255),w,b
  5330  002E7C  A4D8               	btfss	status,2,c
  5331  002E7E  EF43  F017         	goto	u9241
  5332  002E82  EF45  F017         	goto	u9240
  5333  002E86                     u9241:
  5334  002E86  EF35  F017         	goto	l9539
  5335  002E8A                     u9240:
  5336  002E8A                     l9543:
  5337                           
  5338                           ; BSR set to: 0
  5339  002E8A  51DF               	movf	___fltol@sign1& (0+255),w,b
  5340  002E8C  B4D8               	btfsc	status,2,c
  5341  002E8E  EF4B  F017         	goto	u9251
  5342  002E92  EF4D  F017         	goto	u9250
  5343  002E96                     u9251:
  5344  002E96  EF56  F017         	goto	l9547
  5345  002E9A                     u9250:
  5346  002E9A                     
  5347                           ; BSR set to: 0
  5348  002E9A  0101               	movlb	1	; () banked
  5349  002E9C  1F36               	comf	(___fltol@f1+3)& (0+255),f,b
  5350  002E9E  1F35               	comf	(___fltol@f1+2)& (0+255),f,b
  5351  002EA0  1F34               	comf	(___fltol@f1+1)& (0+255),f,b
  5352  002EA2  6D33               	negf	___fltol@f1& (0+255),b
  5353  002EA4  0E00               	movlw	0
  5354  002EA6  2334               	addwfc	(___fltol@f1+1)& (0+255),f,b
  5355  002EA8  2335               	addwfc	(___fltol@f1+2)& (0+255),f,b
  5356  002EAA  2336               	addwfc	(___fltol@f1+3)& (0+255),f,b
  5357  002EAC                     l9547:
  5358  002EAC  C133  F133         	movff	___fltol@f1,?___fltol
  5359  002EB0  C134  F134         	movff	___fltol@f1+1,?___fltol+1
  5360  002EB4  C135  F135         	movff	___fltol@f1+2,?___fltol+2
  5361  002EB8  C136  F136         	movff	___fltol@f1+3,?___fltol+3
  5362  002EBC                     l2216:
  5363  002EBC  0012               	return		;funcret
  5364  002EBE                     __end_of___fltol:
  5365                           	callstack 0
  5366                           
  5367 ;; *************** function ___flmul *****************
  5368 ;; Defined at:
  5369 ;;		line 8 in file "C:\Program Files\Microchip\xc8\v2.36\pic\sources\c99\common\sprcmul.c"
  5370 ;; Parameters:    Size  Location     Type
  5371 ;;  b               4   39[COMRAM] long 
  5372 ;;  a               4   43[COMRAM] long 
  5373 ;; Auto vars:     Size  Location     Type
  5374 ;;  prod            4   58[COMRAM] struct .
  5375 ;;  grs             4   53[COMRAM] unsigned long 
  5376 ;;  temp            2   62[COMRAM] struct .
  5377 ;;  bexp            1   57[COMRAM] unsigned char 
  5378 ;;  aexp            1   52[COMRAM] unsigned char 
  5379 ;;  sign            1   51[COMRAM] unsigned char 
  5380 ;; Return value:  Size  Location     Type
  5381 ;;                  4   39[COMRAM] unsigned char 
  5382 ;; Registers used:
  5383 ;;		wreg, status,2, status,0, prodl, prodh
  5384 ;; Tracked objects:
  5385 ;;		On entry : 0/0
  5386 ;;		On exit  : 0/0
  5387 ;;		Unchanged: 0/0
  5388 ;; Data sizes:     COMRAM   BANK0   BANK1   BANK2   BANK3   BANK4   BANK5   BANK6   BANK7   BANK8   BANK9  BANK10  BANK1
      +1  BANK12  BANK13  BANK14  BANK15
  5389 ;;      Params:         8       0       0       0       0       0       0       0       0       0       0       0       
      +0       0       0       0       0
  5390 ;;      Locals:        13       0       0       0       0       0       0       0       0       0       0       0       
      +0       0       0       0       0
  5391 ;;      Temps:          4       0       0       0       0       0       0       0       0       0       0       0       
      +0       0       0       0       0
  5392 ;;      Totals:        25       0       0       0       0       0       0       0       0       0       0       0       
      +0       0       0       0       0
  5393 ;;Total ram usage:       25 bytes
  5394 ;; Hardware stack levels used: 1
  5395 ;; Hardware stack levels required when called: 7
  5396 ;; This function calls:
  5397 ;;		Nothing
  5398 ;; This function is called by:
  5399 ;;		_CCP_PWM_Set_Duty
  5400 ;;		_CCP_PWM_Mode_Config
  5401 ;;		_main
  5402 ;; This function uses a non-reentrant model
  5403 ;;
  5404                           
  5405                           	psect	text37
  5406  0014C8                     __ptext37:
  5407                           	callstack 0
  5408  0014C8                     ___flmul:
  5409                           	callstack 23
  5410  0014C8  502B               	movf	(___flmul@b+3)^0,w,c
  5411  0014CA  0B80               	andlw	128
  5412  0014CC  6E34               	movwf	___flmul@sign^0,c
  5413  0014CE  502B               	movf	(___flmul@b+3)^0,w,c
  5414  0014D0  242B               	addwf	(___flmul@b+3)^0,w,c
  5415  0014D2  6E3A               	movwf	___flmul@bexp^0,c
  5416  0014D4  AE2A               	btfss	(___flmul@b+2)^0,7,c
  5417  0014D6  EF6F  F00A         	goto	u9001
  5418  0014DA  EF71  F00A         	goto	u9000
  5419  0014DE                     u9001:
  5420  0014DE  EF72  F00A         	goto	l9383
  5421  0014E2                     u9000:
  5422  0014E2  803A               	bsf	___flmul@bexp^0,0,c
  5423  0014E4                     l9383:
  5424  0014E4  503A               	movf	___flmul@bexp^0,w,c
  5425  0014E6  B4D8               	btfsc	status,2,c
  5426  0014E8  EF78  F00A         	goto	u9011
  5427  0014EC  EF7A  F00A         	goto	u9010
  5428  0014F0                     u9011:
  5429  0014F0  EF8D  F00A         	goto	l9391
  5430  0014F4                     u9010:
  5431  0014F4  283A               	incf	___flmul@bexp^0,w,c
  5432  0014F6  A4D8               	btfss	status,2,c
  5433  0014F8  EF80  F00A         	goto	u9021
  5434  0014FC  EF82  F00A         	goto	u9020
  5435  001500                     u9021:
  5436  001500  EF8A  F00A         	goto	l9389
  5437  001504                     u9020:
  5438  001504  0E00               	movlw	0
  5439  001506  6E28               	movwf	___flmul@b^0,c
  5440  001508  0E00               	movlw	0
  5441  00150A  6E29               	movwf	(___flmul@b+1)^0,c
  5442  00150C  0E00               	movlw	0
  5443  00150E  6E2A               	movwf	(___flmul@b+2)^0,c
  5444  001510  0E00               	movlw	0
  5445  001512  6E2B               	movwf	(___flmul@b+3)^0,c
  5446  001514                     l9389:
  5447  001514  8E2A               	bsf	(___flmul@b+2)^0,7,c
  5448  001516  EF95  F00A         	goto	l9393
  5449  00151A                     l9391:
  5450  00151A  0E00               	movlw	0
  5451  00151C  6E28               	movwf	___flmul@b^0,c
  5452  00151E  0E00               	movlw	0
  5453  001520  6E29               	movwf	(___flmul@b+1)^0,c
  5454  001522  0E00               	movlw	0
  5455  001524  6E2A               	movwf	(___flmul@b+2)^0,c
  5456  001526  0E00               	movlw	0
  5457  001528  6E2B               	movwf	(___flmul@b+3)^0,c
  5458  00152A                     l9393:
  5459  00152A  502F               	movf	(___flmul@a+3)^0,w,c
  5460  00152C  0B80               	andlw	128
  5461  00152E  1A34               	xorwf	___flmul@sign^0,f,c
  5462  001530  502F               	movf	(___flmul@a+3)^0,w,c
  5463  001532  242F               	addwf	(___flmul@a+3)^0,w,c
  5464  001534  6E35               	movwf	___flmul@aexp^0,c
  5465  001536  AE2E               	btfss	(___flmul@a+2)^0,7,c
  5466  001538  EFA0  F00A         	goto	u9031
  5467  00153C  EFA2  F00A         	goto	u9030
  5468  001540                     u9031:
  5469  001540  EFA3  F00A         	goto	l9401
  5470  001544                     u9030:
  5471  001544  8035               	bsf	___flmul@aexp^0,0,c
  5472  001546                     l9401:
  5473  001546  5035               	movf	___flmul@aexp^0,w,c
  5474  001548  B4D8               	btfsc	status,2,c
  5475  00154A  EFA9  F00A         	goto	u9041
  5476  00154E  EFAB  F00A         	goto	u9040
  5477  001552                     u9041:
  5478  001552  EFBE  F00A         	goto	l9409
  5479  001556                     u9040:
  5480  001556  2835               	incf	___flmul@aexp^0,w,c
  5481  001558  A4D8               	btfss	status,2,c
  5482  00155A  EFB1  F00A         	goto	u9051
  5483  00155E  EFB3  F00A         	goto	u9050
  5484  001562                     u9051:
  5485  001562  EFBB  F00A         	goto	l9407
  5486  001566                     u9050:
  5487  001566  0E00               	movlw	0
  5488  001568  6E2C               	movwf	___flmul@a^0,c
  5489  00156A  0E00               	movlw	0
  5490  00156C  6E2D               	movwf	(___flmul@a+1)^0,c
  5491  00156E  0E00               	movlw	0
  5492  001570  6E2E               	movwf	(___flmul@a+2)^0,c
  5493  001572  0E00               	movlw	0
  5494  001574  6E2F               	movwf	(___flmul@a+3)^0,c
  5495  001576                     l9407:
  5496  001576  8E2E               	bsf	(___flmul@a+2)^0,7,c
  5497  001578  EFC6  F00A         	goto	l2533
  5498  00157C                     l9409:
  5499  00157C  0E00               	movlw	0
  5500  00157E  6E2C               	movwf	___flmul@a^0,c
  5501  001580  0E00               	movlw	0
  5502  001582  6E2D               	movwf	(___flmul@a+1)^0,c
  5503  001584  0E00               	movlw	0
  5504  001586  6E2E               	movwf	(___flmul@a+2)^0,c
  5505  001588  0E00               	movlw	0
  5506  00158A  6E2F               	movwf	(___flmul@a+3)^0,c
  5507  00158C                     l2533:
  5508  00158C  5035               	movf	___flmul@aexp^0,w,c
  5509  00158E  B4D8               	btfsc	status,2,c
  5510  001590  EFCC  F00A         	goto	u9061
  5511  001594  EFCE  F00A         	goto	u9060
  5512  001598                     u9061:
  5513  001598  EFD6  F00A         	goto	l9413
  5514  00159C                     u9060:
  5515  00159C  503A               	movf	___flmul@bexp^0,w,c
  5516  00159E  A4D8               	btfss	status,2,c
  5517  0015A0  EFD4  F00A         	goto	u9071
  5518  0015A4  EFD6  F00A         	goto	u9070
  5519  0015A8                     u9071:
  5520  0015A8  EFE0  F00A         	goto	l9417
  5521  0015AC                     u9070:
  5522  0015AC                     l9413:
  5523  0015AC  0E00               	movlw	0
  5524  0015AE  6E28               	movwf	?___flmul^0,c
  5525  0015B0  0E00               	movlw	0
  5526  0015B2  6E29               	movwf	(?___flmul+1)^0,c
  5527  0015B4  0E00               	movlw	0
  5528  0015B6  6E2A               	movwf	(?___flmul+2)^0,c
  5529  0015B8  0E00               	movlw	0
  5530  0015BA  6E2B               	movwf	(?___flmul+3)^0,c
  5531  0015BC  EF78  F00C         	goto	l2537
  5532  0015C0                     l9417:
  5533  0015C0  502E               	movf	(___flmul@a+2)^0,w,c
  5534  0015C2  0228               	mulwf	___flmul@b^0,c
  5535  0015C4  CFF3 F03F          	movff	prodl,___flmul@temp
  5536  0015C8  CFF4 F040          	movff	prodh,___flmul@temp+1
  5537  0015CC  503F               	movf	___flmul@temp^0,w,c
  5538  0015CE  6E36               	movwf	___flmul@grs^0,c
  5539  0015D0  6A37               	clrf	(___flmul@grs+1)^0,c
  5540  0015D2  6A38               	clrf	(___flmul@grs+2)^0,c
  5541  0015D4  6A39               	clrf	(___flmul@grs+3)^0,c
  5542  0015D6  5040               	movf	(___flmul@temp+1)^0,w,c
  5543  0015D8  6E3B               	movwf	___flmul@prod^0,c
  5544  0015DA  6A3C               	clrf	(___flmul@prod+1)^0,c
  5545  0015DC  6A3D               	clrf	(___flmul@prod+2)^0,c
  5546  0015DE  6A3E               	clrf	(___flmul@prod+3)^0,c
  5547  0015E0  502D               	movf	(___flmul@a+1)^0,w,c
  5548  0015E2  0229               	mulwf	(___flmul@b+1)^0,c
  5549  0015E4  CFF3 F03F          	movff	prodl,___flmul@temp
  5550  0015E8  CFF4 F040          	movff	prodh,___flmul@temp+1
  5551  0015EC  503F               	movf	___flmul@temp^0,w,c
  5552  0015EE  2636               	addwf	___flmul@grs^0,f,c
  5553  0015F0  0E00               	movlw	0
  5554  0015F2  2237               	addwfc	(___flmul@grs+1)^0,f,c
  5555  0015F4  2238               	addwfc	(___flmul@grs+2)^0,f,c
  5556  0015F6  2239               	addwfc	(___flmul@grs+3)^0,f,c
  5557  0015F8  5040               	movf	(___flmul@temp+1)^0,w,c
  5558  0015FA  263B               	addwf	___flmul@prod^0,f,c
  5559  0015FC  0E00               	movlw	0
  5560  0015FE  223C               	addwfc	(___flmul@prod+1)^0,f,c
  5561  001600  223D               	addwfc	(___flmul@prod+2)^0,f,c
  5562  001602  223E               	addwfc	(___flmul@prod+3)^0,f,c
  5563  001604  502C               	movf	___flmul@a^0,w,c
  5564  001606  022A               	mulwf	(___flmul@b+2)^0,c
  5565  001608  CFF3 F03F          	movff	prodl,___flmul@temp
  5566  00160C  CFF4 F040          	movff	prodh,___flmul@temp+1
  5567  001610  503F               	movf	___flmul@temp^0,w,c
  5568  001612  2636               	addwf	___flmul@grs^0,f,c
  5569  001614  0E00               	movlw	0
  5570  001616  2237               	addwfc	(___flmul@grs+1)^0,f,c
  5571  001618  2238               	addwfc	(___flmul@grs+2)^0,f,c
  5572  00161A  2239               	addwfc	(___flmul@grs+3)^0,f,c
  5573  00161C  5040               	movf	(___flmul@temp+1)^0,w,c
  5574  00161E  263B               	addwf	___flmul@prod^0,f,c
  5575  001620  0E00               	movlw	0
  5576  001622  223C               	addwfc	(___flmul@prod+1)^0,f,c
  5577  001624  223D               	addwfc	(___flmul@prod+2)^0,f,c
  5578  001626  223E               	addwfc	(___flmul@prod+3)^0,f,c
  5579  001628  C038  F039         	movff	___flmul@grs+2,___flmul@grs+3
  5580  00162C  C037  F038         	movff	___flmul@grs+1,___flmul@grs+2
  5581  001630  C036  F037         	movff	___flmul@grs,___flmul@grs+1
  5582  001634  6A36               	clrf	___flmul@grs^0,c
  5583  001636  502C               	movf	___flmul@a^0,w,c
  5584  001638  0229               	mulwf	(___flmul@b+1)^0,c
  5585  00163A  CFF3 F03F          	movff	prodl,___flmul@temp
  5586  00163E  CFF4 F040          	movff	prodh,___flmul@temp+1
  5587  001642  503F               	movf	___flmul@temp^0,w,c
  5588  001644  2636               	addwf	___flmul@grs^0,f,c
  5589  001646  5040               	movf	(___flmul@temp+1)^0,w,c
  5590  001648  2237               	addwfc	(___flmul@grs+1)^0,f,c
  5591  00164A  0E00               	movlw	0
  5592  00164C  2238               	addwfc	(___flmul@grs+2)^0,f,c
  5593  00164E  0E00               	movlw	0
  5594  001650  2239               	addwfc	(___flmul@grs+3)^0,f,c
  5595  001652  502D               	movf	(___flmul@a+1)^0,w,c
  5596  001654  0228               	mulwf	___flmul@b^0,c
  5597  001656  CFF3 F03F          	movff	prodl,___flmul@temp
  5598  00165A  CFF4 F040          	movff	prodh,___flmul@temp+1
  5599  00165E  503F               	movf	___flmul@temp^0,w,c
  5600  001660  2636               	addwf	___flmul@grs^0,f,c
  5601  001662  5040               	movf	(___flmul@temp+1)^0,w,c
  5602  001664  2237               	addwfc	(___flmul@grs+1)^0,f,c
  5603  001666  0E00               	movlw	0
  5604  001668  2238               	addwfc	(___flmul@grs+2)^0,f,c
  5605  00166A  0E00               	movlw	0
  5606  00166C  2239               	addwfc	(___flmul@grs+3)^0,f,c
  5607  00166E  C038  F039         	movff	___flmul@grs+2,___flmul@grs+3
  5608  001672  C037  F038         	movff	___flmul@grs+1,___flmul@grs+2
  5609  001676  C036  F037         	movff	___flmul@grs,___flmul@grs+1
  5610  00167A  6A36               	clrf	___flmul@grs^0,c
  5611  00167C  502C               	movf	___flmul@a^0,w,c
  5612  00167E  0228               	mulwf	___flmul@b^0,c
  5613  001680  CFF3 F03F          	movff	prodl,___flmul@temp
  5614  001684  CFF4 F040          	movff	prodh,___flmul@temp+1
  5615  001688  503F               	movf	___flmul@temp^0,w,c
  5616  00168A  2636               	addwf	___flmul@grs^0,f,c
  5617  00168C  5040               	movf	(___flmul@temp+1)^0,w,c
  5618  00168E  2237               	addwfc	(___flmul@grs+1)^0,f,c
  5619  001690  0E00               	movlw	0
  5620  001692  2238               	addwfc	(___flmul@grs+2)^0,f,c
  5621  001694  0E00               	movlw	0
  5622  001696  2239               	addwfc	(___flmul@grs+3)^0,f,c
  5623  001698  502E               	movf	(___flmul@a+2)^0,w,c
  5624  00169A  0229               	mulwf	(___flmul@b+1)^0,c
  5625  00169C  CFF3 F03F          	movff	prodl,___flmul@temp
  5626  0016A0  CFF4 F040          	movff	prodh,___flmul@temp+1
  5627  0016A4  503F               	movf	___flmul@temp^0,w,c
  5628  0016A6  263B               	addwf	___flmul@prod^0,f,c
  5629  0016A8  5040               	movf	(___flmul@temp+1)^0,w,c
  5630  0016AA  223C               	addwfc	(___flmul@prod+1)^0,f,c
  5631  0016AC  0E00               	movlw	0
  5632  0016AE  223D               	addwfc	(___flmul@prod+2)^0,f,c
  5633  0016B0  0E00               	movlw	0
  5634  0016B2  223E               	addwfc	(___flmul@prod+3)^0,f,c
  5635  0016B4  502D               	movf	(___flmul@a+1)^0,w,c
  5636  0016B6  022A               	mulwf	(___flmul@b+2)^0,c
  5637  0016B8  CFF3 F03F          	movff	prodl,___flmul@temp
  5638  0016BC  CFF4 F040          	movff	prodh,___flmul@temp+1
  5639  0016C0  503F               	movf	___flmul@temp^0,w,c
  5640  0016C2  263B               	addwf	___flmul@prod^0,f,c
  5641  0016C4  5040               	movf	(___flmul@temp+1)^0,w,c
  5642  0016C6  223C               	addwfc	(___flmul@prod+1)^0,f,c
  5643  0016C8  0E00               	movlw	0
  5644  0016CA  223D               	addwfc	(___flmul@prod+2)^0,f,c
  5645  0016CC  0E00               	movlw	0
  5646  0016CE  223E               	addwfc	(___flmul@prod+3)^0,f,c
  5647  0016D0  502E               	movf	(___flmul@a+2)^0,w,c
  5648  0016D2  022A               	mulwf	(___flmul@b+2)^0,c
  5649  0016D4  CFF3 F03F          	movff	prodl,___flmul@temp
  5650  0016D8  CFF4 F040          	movff	prodh,___flmul@temp+1
  5651  0016DC  503F               	movf	___flmul@temp^0,w,c
  5652  0016DE  6E30               	movwf	??___flmul^0,c
  5653  0016E0  5040               	movf	(___flmul@temp+1)^0,w,c
  5654  0016E2  6E31               	movwf	(??___flmul+1)^0,c
  5655  0016E4  6A32               	clrf	(??___flmul+2)^0,c
  5656  0016E6  6A33               	clrf	(??___flmul+3)^0,c
  5657  0016E8  C032  F033         	movff	??___flmul+2,??___flmul+3
  5658  0016EC  C031  F032         	movff	??___flmul+1,??___flmul+2
  5659  0016F0  C030  F031         	movff	??___flmul,??___flmul+1
  5660  0016F4  6A30               	clrf	??___flmul^0,c
  5661  0016F6  5030               	movf	??___flmul^0,w,c
  5662  0016F8  263B               	addwf	___flmul@prod^0,f,c
  5663  0016FA  5031               	movf	(??___flmul+1)^0,w,c
  5664  0016FC  223C               	addwfc	(___flmul@prod+1)^0,f,c
  5665  0016FE  5032               	movf	(??___flmul+2)^0,w,c
  5666  001700  223D               	addwfc	(___flmul@prod+2)^0,f,c
  5667  001702  5033               	movf	(??___flmul+3)^0,w,c
  5668  001704  223E               	addwfc	(___flmul@prod+3)^0,f,c
  5669  001706  C036  F030         	movff	___flmul@grs,??___flmul
  5670  00170A  C037  F031         	movff	___flmul@grs+1,??___flmul+1
  5671  00170E  C038  F032         	movff	___flmul@grs+2,??___flmul+2
  5672  001712  C039  F033         	movff	___flmul@grs+3,??___flmul+3
  5673  001716  0E19               	movlw	25
  5674  001718  EF93  F00B         	goto	u9080
  5675  00171C                     u9085:
  5676  00171C  90D8               	bcf	status,0,c
  5677  00171E  3233               	rrcf	(??___flmul+3)^0,f,c
  5678  001720  3232               	rrcf	(??___flmul+2)^0,f,c
  5679  001722  3231               	rrcf	(??___flmul+1)^0,f,c
  5680  001724  3230               	rrcf	??___flmul^0,f,c
  5681  001726                     u9080:
  5682  001726  2EE8               	decfsz	wreg,f,c
  5683  001728  EF8E  F00B         	goto	u9085
  5684  00172C  5030               	movf	??___flmul^0,w,c
  5685  00172E  263B               	addwf	___flmul@prod^0,f,c
  5686  001730  5031               	movf	(??___flmul+1)^0,w,c
  5687  001732  223C               	addwfc	(___flmul@prod+1)^0,f,c
  5688  001734  5032               	movf	(??___flmul+2)^0,w,c
  5689  001736  223D               	addwfc	(___flmul@prod+2)^0,f,c
  5690  001738  5033               	movf	(??___flmul+3)^0,w,c
  5691  00173A  223E               	addwfc	(___flmul@prod+3)^0,f,c
  5692  00173C  C038  F039         	movff	___flmul@grs+2,___flmul@grs+3
  5693  001740  C037  F038         	movff	___flmul@grs+1,___flmul@grs+2
  5694  001744  C036  F037         	movff	___flmul@grs,___flmul@grs+1
  5695  001748  6A36               	clrf	___flmul@grs^0,c
  5696  00174A  5035               	movf	___flmul@aexp^0,w,c
  5697  00174C  C03A  F030         	movff	___flmul@bexp,??___flmul
  5698  001750  6A31               	clrf	(??___flmul+1)^0,c
  5699  001752  2630               	addwf	??___flmul^0,f,c
  5700  001754  0E00               	movlw	0
  5701  001756  2231               	addwfc	(??___flmul+1)^0,f,c
  5702  001758  0E82               	movlw	130
  5703  00175A  2430               	addwf	??___flmul^0,w,c
  5704  00175C  6E3F               	movwf	___flmul@temp^0,c
  5705  00175E  0EFF               	movlw	255
  5706  001760  2031               	addwfc	(??___flmul+1)^0,w,c
  5707  001762  6E40               	movwf	(___flmul@temp+1)^0,c
  5708  001764  EFC9  F00B         	goto	l9465
  5709  001768                     l9459:
  5710  001768  90D8               	bcf	status,0,c
  5711  00176A  363B               	rlcf	___flmul@prod^0,f,c
  5712  00176C  363C               	rlcf	(___flmul@prod+1)^0,f,c
  5713  00176E  363D               	rlcf	(___flmul@prod+2)^0,f,c
  5714  001770  363E               	rlcf	(___flmul@prod+3)^0,f,c
  5715  001772  AE39               	btfss	(___flmul@grs+3)^0,7,c
  5716  001774  EFBE  F00B         	goto	u9091
  5717  001778  EFC0  F00B         	goto	u9090
  5718  00177C                     u9091:
  5719  00177C  EFC1  F00B         	goto	l2540
  5720  001780                     u9090:
  5721  001780  803B               	bsf	___flmul@prod^0,0,c
  5722  001782                     l2540:
  5723  001782  90D8               	bcf	status,0,c
  5724  001784  3636               	rlcf	___flmul@grs^0,f,c
  5725  001786  3637               	rlcf	(___flmul@grs+1)^0,f,c
  5726  001788  3638               	rlcf	(___flmul@grs+2)^0,f,c
  5727  00178A  3639               	rlcf	(___flmul@grs+3)^0,f,c
  5728  00178C  063F               	decf	___flmul@temp^0,f,c
  5729  00178E  A0D8               	btfss	status,0,c
  5730  001790  0640               	decf	(___flmul@temp+1)^0,f,c
  5731  001792                     l9465:
  5732  001792  AE3D               	btfss	(___flmul@prod+2)^0,7,c
  5733  001794  EFCE  F00B         	goto	u9101
  5734  001798  EFD0  F00B         	goto	u9100
  5735  00179C                     u9101:
  5736  00179C  EFB4  F00B         	goto	l9459
  5737  0017A0                     u9100:
  5738  0017A0  0E00               	movlw	0
  5739  0017A2  6E35               	movwf	___flmul@aexp^0,c
  5740  0017A4  AE39               	btfss	(___flmul@grs+3)^0,7,c
  5741  0017A6  EFD7  F00B         	goto	u9111
  5742  0017AA  EFD9  F00B         	goto	u9110
  5743  0017AE                     u9111:
  5744  0017AE  EFFD  F00B         	goto	l2542
  5745  0017B2                     u9110:
  5746  0017B2  0EFF               	movlw	255
  5747  0017B4  1436               	andwf	___flmul@grs^0,w,c
  5748  0017B6  6E30               	movwf	??___flmul^0,c
  5749  0017B8  0EFF               	movlw	255
  5750  0017BA  1437               	andwf	(___flmul@grs+1)^0,w,c
  5751  0017BC  6E31               	movwf	(??___flmul+1)^0,c
  5752  0017BE  0EFF               	movlw	255
  5753  0017C0  1438               	andwf	(___flmul@grs+2)^0,w,c
  5754  0017C2  6E32               	movwf	(??___flmul+2)^0,c
  5755  0017C4  0E7F               	movlw	127
  5756  0017C6  1439               	andwf	(___flmul@grs+3)^0,w,c
  5757  0017C8  6E33               	movwf	(??___flmul+3)^0,c
  5758  0017CA  5030               	movf	??___flmul^0,w,c
  5759  0017CC  1031               	iorwf	(??___flmul+1)^0,w,c
  5760  0017CE  1032               	iorwf	(??___flmul+2)^0,w,c
  5761  0017D0  1033               	iorwf	(??___flmul+3)^0,w,c
  5762  0017D2  B4D8               	btfsc	status,2,c
  5763  0017D4  EFEE  F00B         	goto	u9121
  5764  0017D8  EFF0  F00B         	goto	u9120
  5765  0017DC                     u9121:
  5766  0017DC  EFF4  F00B         	goto	l2543
  5767  0017E0                     u9120:
  5768  0017E0                     l9473:
  5769  0017E0  0E01               	movlw	1
  5770  0017E2  6E35               	movwf	___flmul@aexp^0,c
  5771  0017E4  EFFD  F00B         	goto	l2542
  5772  0017E8                     l2543:
  5773  0017E8  A03B               	btfss	___flmul@prod^0,0,c
  5774  0017EA  EFF9  F00B         	goto	u9131
  5775  0017EE  EFFB  F00B         	goto	u9130
  5776  0017F2                     u9131:
  5777  0017F2  EFFD  F00B         	goto	l2542
  5778  0017F6                     u9130:
  5779  0017F6  EFF0  F00B         	goto	l9473
  5780  0017FA                     l2542:
  5781  0017FA  5035               	movf	___flmul@aexp^0,w,c
  5782  0017FC  B4D8               	btfsc	status,2,c
  5783  0017FE  EF03  F00C         	goto	u9141
  5784  001802  EF05  F00C         	goto	u9140
  5785  001806                     u9141:
  5786  001806  EF29  F00C         	goto	l9485
  5787  00180A                     u9140:
  5788  00180A  0E01               	movlw	1
  5789  00180C  263B               	addwf	___flmul@prod^0,f,c
  5790  00180E  0E00               	movlw	0
  5791  001810  223C               	addwfc	(___flmul@prod+1)^0,f,c
  5792  001812  223D               	addwfc	(___flmul@prod+2)^0,f,c
  5793  001814  223E               	addwfc	(___flmul@prod+3)^0,f,c
  5794  001816  A03E               	btfss	(___flmul@prod+3)^0,0,c
  5795  001818  EF10  F00C         	goto	u9151
  5796  00181C  EF12  F00C         	goto	u9150
  5797  001820                     u9151:
  5798  001820  EF29  F00C         	goto	l9485
  5799  001824                     u9150:
  5800  001824  C03B  F030         	movff	___flmul@prod,??___flmul
  5801  001828  C03C  F031         	movff	___flmul@prod+1,??___flmul+1
  5802  00182C  C03D  F032         	movff	___flmul@prod+2,??___flmul+2
  5803  001830  C03E  F033         	movff	___flmul@prod+3,??___flmul+3
  5804  001834  3433               	rlcf	(??___flmul+3)^0,w,c
  5805  001836  3233               	rrcf	(??___flmul+3)^0,f,c
  5806  001838  3232               	rrcf	(??___flmul+2)^0,f,c
  5807  00183A  3231               	rrcf	(??___flmul+1)^0,f,c
  5808  00183C  3230               	rrcf	??___flmul^0,f,c
  5809  00183E  C030  F03B         	movff	??___flmul,___flmul@prod
  5810  001842  C031  F03C         	movff	??___flmul+1,___flmul@prod+1
  5811  001846  C032  F03D         	movff	??___flmul+2,___flmul@prod+2
  5812  00184A  C033  F03E         	movff	??___flmul+3,___flmul@prod+3
  5813  00184E  4A3F               	infsnz	___flmul@temp^0,f,c
  5814  001850  2A40               	incf	(___flmul@temp+1)^0,f,c
  5815  001852                     l9485:
  5816  001852  BE40               	btfsc	(___flmul@temp+1)^0,7,c
  5817  001854  EF34  F00C         	goto	u9161
  5818  001858  5040               	movf	(___flmul@temp+1)^0,w,c
  5819  00185A  E108               	bnz	u9160
  5820  00185C  283F               	incf	___flmul@temp^0,w,c
  5821  00185E  A0D8               	btfss	status,0,c
  5822  001860  EF34  F00C         	goto	u9161
  5823  001864  EF36  F00C         	goto	u9160
  5824  001868                     u9161:
  5825  001868  EF40  F00C         	goto	l9489
  5826  00186C                     u9160:
  5827  00186C  0E00               	movlw	0
  5828  00186E  6E3B               	movwf	___flmul@prod^0,c
  5829  001870  0E00               	movlw	0
  5830  001872  6E3C               	movwf	(___flmul@prod+1)^0,c
  5831  001874  0E80               	movlw	128
  5832  001876  6E3D               	movwf	(___flmul@prod+2)^0,c
  5833  001878  0E7F               	movlw	127
  5834  00187A  6E3E               	movwf	(___flmul@prod+3)^0,c
  5835  00187C  EF6E  F00C         	goto	l9501
  5836  001880                     l9489:
  5837  001880  BE40               	btfsc	(___flmul@temp+1)^0,7,c
  5838  001882  EF4D  F00C         	goto	u9170
  5839  001886  5040               	movf	(___flmul@temp+1)^0,w,c
  5840  001888  E106               	bnz	u9171
  5841  00188A  043F               	decf	___flmul@temp^0,w,c
  5842  00188C  B0D8               	btfsc	status,0,c
  5843  00188E  EF4B  F00C         	goto	u9171
  5844  001892  EF4D  F00C         	goto	u9170
  5845  001896                     u9171:
  5846  001896  EF59  F00C         	goto	l2550
  5847  00189A                     u9170:
  5848  00189A  0E00               	movlw	0
  5849  00189C  6E3B               	movwf	___flmul@prod^0,c
  5850  00189E  0E00               	movlw	0
  5851  0018A0  6E3C               	movwf	(___flmul@prod+1)^0,c
  5852  0018A2  0E00               	movlw	0
  5853  0018A4  6E3D               	movwf	(___flmul@prod+2)^0,c
  5854  0018A6  0E00               	movlw	0
  5855  0018A8  6E3E               	movwf	(___flmul@prod+3)^0,c
  5856  0018AA  0E00               	movlw	0
  5857  0018AC  6E34               	movwf	___flmul@sign^0,c
  5858  0018AE  EF6E  F00C         	goto	l9501
  5859  0018B2                     l2550:
  5860  0018B2  C03F  F03A         	movff	___flmul@temp,___flmul@bexp
  5861  0018B6  0EFF               	movlw	255
  5862  0018B8  163B               	andwf	___flmul@prod^0,f,c
  5863  0018BA  0EFF               	movlw	255
  5864  0018BC  163C               	andwf	(___flmul@prod+1)^0,f,c
  5865  0018BE  0E7F               	movlw	127
  5866  0018C0  163D               	andwf	(___flmul@prod+2)^0,f,c
  5867  0018C2  0E00               	movlw	0
  5868  0018C4  163E               	andwf	(___flmul@prod+3)^0,f,c
  5869  0018C6  A03A               	btfss	___flmul@bexp^0,0,c
  5870  0018C8  EF68  F00C         	goto	u9181
  5871  0018CC  EF6A  F00C         	goto	u9180
  5872  0018D0                     u9181:
  5873  0018D0  EF6B  F00C         	goto	l9499
  5874  0018D4                     u9180:
  5875  0018D4  8E3D               	bsf	(___flmul@prod+2)^0,7,c
  5876  0018D6                     l9499:
  5877  0018D6  90D8               	bcf	status,0,c
  5878  0018D8  303A               	rrcf	___flmul@bexp^0,w,c
  5879  0018DA  6E3E               	movwf	(___flmul@prod+3)^0,c
  5880  0018DC                     l9501:
  5881  0018DC  5034               	movf	___flmul@sign^0,w,c
  5882  0018DE  123E               	iorwf	(___flmul@prod+3)^0,f,c
  5883  0018E0  C03B  F028         	movff	___flmul@prod,?___flmul
  5884  0018E4  C03C  F029         	movff	___flmul@prod+1,?___flmul+1
  5885  0018E8  C03D  F02A         	movff	___flmul@prod+2,?___flmul+2
  5886  0018EC  C03E  F02B         	movff	___flmul@prod+3,?___flmul+3
  5887  0018F0                     l2537:
  5888  0018F0  0012               	return		;funcret
  5889  0018F2                     __end_of___flmul:
  5890                           	callstack 0
  5891                           
  5892 ;; *************** function ___fldiv *****************
  5893 ;; Defined at:
  5894 ;;		line 11 in file "C:\Program Files\Microchip\xc8\v2.36\pic\sources\c99\common\sprcdiv.c"
  5895 ;; Parameters:    Size  Location     Type
  5896 ;;  b               4   64[COMRAM] unsigned char 
  5897 ;;  a               4   68[COMRAM] unsigned char 
  5898 ;; Auto vars:     Size  Location     Type
  5899 ;;  grs             4    7[BANK0 ] unsigned long 
  5900 ;;  rem             4    0[BANK0 ] unsigned long 
  5901 ;;  new_exp         2    5[BANK0 ] short 
  5902 ;;  aexp            1   12[BANK0 ] unsigned char 
  5903 ;;  bexp            1   11[BANK0 ] unsigned char 
  5904 ;;  sign            1    4[BANK0 ] unsigned char 
  5905 ;; Return value:  Size  Location     Type
  5906 ;;                  4   64[COMRAM] unsigned char 
  5907 ;; Registers used:
  5908 ;;		wreg, status,2, status,0
  5909 ;; Tracked objects:
  5910 ;;		On entry : 0/0
  5911 ;;		On exit  : 0/0
  5912 ;;		Unchanged: 0/0
  5913 ;; Data sizes:     COMRAM   BANK0   BANK1   BANK2   BANK3   BANK4   BANK5   BANK6   BANK7   BANK8   BANK9  BANK10  BANK1
      +1  BANK12  BANK13  BANK14  BANK15
  5914 ;;      Params:         8       0       0       0       0       0       0       0       0       0       0       0       
      +0       0       0       0       0
  5915 ;;      Locals:         0      13       0       0       0       0       0       0       0       0       0       0       
      +0       0       0       0       0
  5916 ;;      Temps:          4       0       0       0       0       0       0       0       0       0       0       0       
      +0       0       0       0       0
  5917 ;;      Totals:        12      13       0       0       0       0       0       0       0       0       0       0       
      +0       0       0       0       0
  5918 ;;Total ram usage:       25 bytes
  5919 ;; Hardware stack levels used: 1
  5920 ;; Hardware stack levels required when called: 7
  5921 ;; This function calls:
  5922 ;;		Nothing
  5923 ;; This function is called by:
  5924 ;;		_CCP_PWM_Set_Duty
  5925 ;;		_CCP_PWM_Mode_Config
  5926 ;;		_EUSART_Baud_Rate_Calculation
  5927 ;; This function uses a non-reentrant model
  5928 ;;
  5929                           
  5930                           	psect	text38
  5931  0018F2                     __ptext38:
  5932                           	callstack 0
  5933  0018F2                     ___fldiv:
  5934                           	callstack 20
  5935  0018F2  5044               	movf	(___fldiv@b+3)^0,w,c
  5936  0018F4  0B80               	andlw	128
  5937  0018F6  0100               	movlb	0	; () banked
  5938  0018F8  6FC6               	movwf	___fldiv@sign& (0+255),b
  5939  0018FA  5044               	movf	(___fldiv@b+3)^0,w,c
  5940  0018FC  2444               	addwf	(___fldiv@b+3)^0,w,c
  5941  0018FE  6FCD               	movwf	___fldiv@bexp& (0+255),b
  5942  001900                     
  5943                           ; BSR set to: 0
  5944  001900  AE43               	btfss	(___fldiv@b+2)^0,7,c
  5945  001902  EF85  F00C         	goto	u8771
  5946  001906  EF87  F00C         	goto	u8770
  5947  00190A                     u8771:
  5948  00190A  EF88  F00C         	goto	l9245
  5949  00190E                     u8770:
  5950  00190E                     
  5951                           ; BSR set to: 0
  5952  00190E  81CD               	bsf	___fldiv@bexp& (0+255),0,b
  5953  001910                     l9245:
  5954                           
  5955                           ; BSR set to: 0
  5956  001910  51CD               	movf	___fldiv@bexp& (0+255),w,b
  5957  001912  B4D8               	btfsc	status,2,c
  5958  001914  EF8E  F00C         	goto	u8781
  5959  001918  EF90  F00C         	goto	u8780
  5960  00191C                     u8781:
  5961  00191C  EFA5  F00C         	goto	l9255
  5962  001920                     u8780:
  5963  001920                     
  5964                           ; BSR set to: 0
  5965  001920  29CD               	incf	___fldiv@bexp& (0+255),w,b
  5966  001922  A4D8               	btfss	status,2,c
  5967  001924  EF96  F00C         	goto	u8791
  5968  001928  EF98  F00C         	goto	u8790
  5969  00192C                     u8791:
  5970  00192C  EFA0  F00C         	goto	l9251
  5971  001930                     u8790:
  5972  001930                     
  5973                           ; BSR set to: 0
  5974  001930  0E00               	movlw	0
  5975  001932  6E41               	movwf	___fldiv@b^0,c
  5976  001934  0E00               	movlw	0
  5977  001936  6E42               	movwf	(___fldiv@b+1)^0,c
  5978  001938  0E00               	movlw	0
  5979  00193A  6E43               	movwf	(___fldiv@b+2)^0,c
  5980  00193C  0E00               	movlw	0
  5981  00193E  6E44               	movwf	(___fldiv@b+3)^0,c
  5982  001940                     l9251:
  5983                           
  5984                           ; BSR set to: 0
  5985  001940  8E43               	bsf	(___fldiv@b+2)^0,7,c
  5986  001942                     
  5987                           ; BSR set to: 0
  5988  001942  0E00               	movlw	0
  5989  001944  6E44               	movwf	(___fldiv@b+3)^0,c
  5990  001946  EFAD  F00C         	goto	l9257
  5991  00194A                     l9255:
  5992                           
  5993                           ; BSR set to: 0
  5994  00194A  0E00               	movlw	0
  5995  00194C  6E41               	movwf	___fldiv@b^0,c
  5996  00194E  0E00               	movlw	0
  5997  001950  6E42               	movwf	(___fldiv@b+1)^0,c
  5998  001952  0E00               	movlw	0
  5999  001954  6E43               	movwf	(___fldiv@b+2)^0,c
  6000  001956  0E00               	movlw	0
  6001  001958  6E44               	movwf	(___fldiv@b+3)^0,c
  6002  00195A                     l9257:
  6003                           
  6004                           ; BSR set to: 0
  6005  00195A  5048               	movf	(___fldiv@a+3)^0,w,c
  6006  00195C  0B80               	andlw	128
  6007  00195E  1BC6               	xorwf	___fldiv@sign& (0+255),f,b
  6008  001960                     
  6009                           ; BSR set to: 0
  6010  001960  5048               	movf	(___fldiv@a+3)^0,w,c
  6011  001962  2448               	addwf	(___fldiv@a+3)^0,w,c
  6012  001964  6FCE               	movwf	___fldiv@aexp& (0+255),b
  6013  001966                     
  6014                           ; BSR set to: 0
  6015  001966  AE47               	btfss	(___fldiv@a+2)^0,7,c
  6016  001968  EFB8  F00C         	goto	u8801
  6017  00196C  EFBA  F00C         	goto	u8800
  6018  001970                     u8801:
  6019  001970  EFBB  F00C         	goto	l9265
  6020  001974                     u8800:
  6021  001974                     
  6022                           ; BSR set to: 0
  6023  001974  81CE               	bsf	___fldiv@aexp& (0+255),0,b
  6024  001976                     l9265:
  6025                           
  6026                           ; BSR set to: 0
  6027  001976  51CE               	movf	___fldiv@aexp& (0+255),w,b
  6028  001978  B4D8               	btfsc	status,2,c
  6029  00197A  EFC1  F00C         	goto	u8811
  6030  00197E  EFC3  F00C         	goto	u8810
  6031  001982                     u8811:
  6032  001982  EFD8  F00C         	goto	l9275
  6033  001986                     u8810:
  6034  001986                     
  6035                           ; BSR set to: 0
  6036  001986  29CE               	incf	___fldiv@aexp& (0+255),w,b
  6037  001988  A4D8               	btfss	status,2,c
  6038  00198A  EFC9  F00C         	goto	u8821
  6039  00198E  EFCB  F00C         	goto	u8820
  6040  001992                     u8821:
  6041  001992  EFD3  F00C         	goto	l9271
  6042  001996                     u8820:
  6043  001996                     
  6044                           ; BSR set to: 0
  6045  001996  0E00               	movlw	0
  6046  001998  6E45               	movwf	___fldiv@a^0,c
  6047  00199A  0E00               	movlw	0
  6048  00199C  6E46               	movwf	(___fldiv@a+1)^0,c
  6049  00199E  0E00               	movlw	0
  6050  0019A0  6E47               	movwf	(___fldiv@a+2)^0,c
  6051  0019A2  0E00               	movlw	0
  6052  0019A4  6E48               	movwf	(___fldiv@a+3)^0,c
  6053  0019A6                     l9271:
  6054                           
  6055                           ; BSR set to: 0
  6056  0019A6  8E47               	bsf	(___fldiv@a+2)^0,7,c
  6057  0019A8                     
  6058                           ; BSR set to: 0
  6059  0019A8  0E00               	movlw	0
  6060  0019AA  6E48               	movwf	(___fldiv@a+3)^0,c
  6061  0019AC  EFE0  F00C         	goto	l9277
  6062  0019B0                     l9275:
  6063                           
  6064                           ; BSR set to: 0
  6065  0019B0  0E00               	movlw	0
  6066  0019B2  6E45               	movwf	___fldiv@a^0,c
  6067  0019B4  0E00               	movlw	0
  6068  0019B6  6E46               	movwf	(___fldiv@a+1)^0,c
  6069  0019B8  0E00               	movlw	0
  6070  0019BA  6E47               	movwf	(___fldiv@a+2)^0,c
  6071  0019BC  0E00               	movlw	0
  6072  0019BE  6E48               	movwf	(___fldiv@a+3)^0,c
  6073  0019C0                     l9277:
  6074                           
  6075                           ; BSR set to: 0
  6076  0019C0  5045               	movf	___fldiv@a^0,w,c
  6077  0019C2  1046               	iorwf	(___fldiv@a+1)^0,w,c
  6078  0019C4  1047               	iorwf	(___fldiv@a+2)^0,w,c
  6079  0019C6  1048               	iorwf	(___fldiv@a+3)^0,w,c
  6080  0019C8  A4D8               	btfss	status,2,c
  6081  0019CA  EFE9  F00C         	goto	u8831
  6082  0019CE  EFEB  F00C         	goto	u8830
  6083  0019D2                     u8831:
  6084  0019D2  EF03  F00D         	goto	l9289
  6085  0019D6                     u8830:
  6086  0019D6                     
  6087                           ; BSR set to: 0
  6088  0019D6  0E00               	movlw	0
  6089  0019D8  6E41               	movwf	___fldiv@b^0,c
  6090  0019DA  0E00               	movlw	0
  6091  0019DC  6E42               	movwf	(___fldiv@b+1)^0,c
  6092  0019DE  0E00               	movlw	0
  6093  0019E0  6E43               	movwf	(___fldiv@b+2)^0,c
  6094  0019E2  0E00               	movlw	0
  6095  0019E4  6E44               	movwf	(___fldiv@b+3)^0,c
  6096  0019E6                     
  6097                           ; BSR set to: 0
  6098  0019E6  0E80               	movlw	128
  6099  0019E8  1243               	iorwf	(___fldiv@b+2)^0,f,c
  6100  0019EA  0E7F               	movlw	127
  6101  0019EC  1244               	iorwf	(___fldiv@b+3)^0,f,c
  6102  0019EE                     l9283:
  6103                           
  6104                           ; BSR set to: 0
  6105  0019EE  51C6               	movf	___fldiv@sign& (0+255),w,b
  6106  0019F0  1244               	iorwf	(___fldiv@b+3)^0,f,c
  6107  0019F2                     
  6108                           ; BSR set to: 0
  6109  0019F2  C041  F041         	movff	___fldiv@b,?___fldiv
  6110  0019F6  C042  F042         	movff	___fldiv@b+1,?___fldiv+1
  6111  0019FA  C043  F043         	movff	___fldiv@b+2,?___fldiv+2
  6112  0019FE  C044  F044         	movff	___fldiv@b+3,?___fldiv+3
  6113  001A02  EF46  F00E         	goto	l2501
  6114  001A06                     l9289:
  6115                           
  6116                           ; BSR set to: 0
  6117  001A06  51CD               	movf	___fldiv@bexp& (0+255),w,b
  6118  001A08  A4D8               	btfss	status,2,c
  6119  001A0A  EF09  F00D         	goto	u8841
  6120  001A0E  EF0B  F00D         	goto	u8840
  6121  001A12                     u8841:
  6122  001A12  EF15  F00D         	goto	l9297
  6123  001A16                     u8840:
  6124  001A16                     
  6125                           ; BSR set to: 0
  6126  001A16  0E00               	movlw	0
  6127  001A18  6E41               	movwf	?___fldiv^0,c
  6128  001A1A  0E00               	movlw	0
  6129  001A1C  6E42               	movwf	(?___fldiv+1)^0,c
  6130  001A1E  0E00               	movlw	0
  6131  001A20  6E43               	movwf	(?___fldiv+2)^0,c
  6132  001A22  0E00               	movlw	0
  6133  001A24  6E44               	movwf	(?___fldiv+3)^0,c
  6134  001A26  EF46  F00E         	goto	l2501
  6135  001A2A                     l9297:
  6136                           
  6137                           ; BSR set to: 0
  6138  001A2A  51CE               	movf	___fldiv@aexp& (0+255),w,b
  6139  001A2C  C0CD  F049         	movff	___fldiv@bexp,??___fldiv
  6140  001A30  6A4A               	clrf	(??___fldiv+1)^0,c
  6141  001A32  5E49               	subwf	??___fldiv^0,f,c
  6142  001A34  0E00               	movlw	0
  6143  001A36  5A4A               	subwfb	(??___fldiv+1)^0,f,c
  6144  001A38  0E7F               	movlw	127
  6145  001A3A  2449               	addwf	??___fldiv^0,w,c
  6146  001A3C  6FC7               	movwf	___fldiv@new_exp& (0+255),b
  6147  001A3E  0E00               	movlw	0
  6148  001A40  204A               	addwfc	(??___fldiv+1)^0,w,c
  6149  001A42  6FC8               	movwf	(___fldiv@new_exp+1)& (0+255),b
  6150  001A44                     
  6151                           ; BSR set to: 0
  6152  001A44  C041  F0C2         	movff	___fldiv@b,___fldiv@rem
  6153  001A48  C042  F0C3         	movff	___fldiv@b+1,___fldiv@rem+1
  6154  001A4C  C043  F0C4         	movff	___fldiv@b+2,___fldiv@rem+2
  6155  001A50  C044  F0C5         	movff	___fldiv@b+3,___fldiv@rem+3
  6156  001A54                     
  6157                           ; BSR set to: 0
  6158  001A54  0E00               	movlw	0
  6159  001A56  6E41               	movwf	___fldiv@b^0,c
  6160  001A58  0E00               	movlw	0
  6161  001A5A  6E42               	movwf	(___fldiv@b+1)^0,c
  6162  001A5C  0E00               	movlw	0
  6163  001A5E  6E43               	movwf	(___fldiv@b+2)^0,c
  6164  001A60  0E00               	movlw	0
  6165  001A62  6E44               	movwf	(___fldiv@b+3)^0,c
  6166  001A64                     
  6167                           ; BSR set to: 0
  6168  001A64  0E00               	movlw	0
  6169  001A66  6FC9               	movwf	___fldiv@grs& (0+255),b
  6170  001A68  0E00               	movlw	0
  6171  001A6A  6FCA               	movwf	(___fldiv@grs+1)& (0+255),b
  6172  001A6C  0E00               	movlw	0
  6173  001A6E  6FCB               	movwf	(___fldiv@grs+2)& (0+255),b
  6174  001A70  0E00               	movlw	0
  6175  001A72  6FCC               	movwf	(___fldiv@grs+3)& (0+255),b
  6176  001A74                     
  6177                           ; BSR set to: 0
  6178  001A74  0E00               	movlw	0
  6179  001A76  6FCE               	movwf	___fldiv@aexp& (0+255),b
  6180  001A78  EF76  F00D         	goto	l2503
  6181  001A7C                     l9307:
  6182                           
  6183                           ; BSR set to: 0
  6184  001A7C  51CE               	movf	___fldiv@aexp& (0+255),w,b
  6185  001A7E  B4D8               	btfsc	status,2,c
  6186  001A80  EF44  F00D         	goto	u8851
  6187  001A84  EF46  F00D         	goto	u8850
  6188  001A88                     u8851:
  6189  001A88  EF5D  F00D         	goto	l9315
  6190  001A8C                     u8850:
  6191  001A8C                     
  6192                           ; BSR set to: 0
  6193  001A8C  90D8               	bcf	status,0,c
  6194  001A8E  37C2               	rlcf	___fldiv@rem& (0+255),f,b
  6195  001A90  37C3               	rlcf	(___fldiv@rem+1)& (0+255),f,b
  6196  001A92  37C4               	rlcf	(___fldiv@rem+2)& (0+255),f,b
  6197  001A94  37C5               	rlcf	(___fldiv@rem+3)& (0+255),f,b
  6198  001A96  90D8               	bcf	status,0,c
  6199  001A98  3641               	rlcf	___fldiv@b^0,f,c
  6200  001A9A  3642               	rlcf	(___fldiv@b+1)^0,f,c
  6201  001A9C  3643               	rlcf	(___fldiv@b+2)^0,f,c
  6202  001A9E  3644               	rlcf	(___fldiv@b+3)^0,f,c
  6203  001AA0                     
  6204                           ; BSR set to: 0
  6205  001AA0  AFCC               	btfss	(___fldiv@grs+3)& (0+255),7,b
  6206  001AA2  EF55  F00D         	goto	u8861
  6207  001AA6  EF57  F00D         	goto	u8860
  6208  001AAA                     u8861:
  6209  001AAA  EF58  F00D         	goto	l2506
  6210  001AAE                     u8860:
  6211  001AAE                     
  6212                           ; BSR set to: 0
  6213  001AAE  8041               	bsf	___fldiv@b^0,0,c
  6214  001AB0                     l2506:
  6215                           
  6216                           ; BSR set to: 0
  6217  001AB0  90D8               	bcf	status,0,c
  6218  001AB2  37C9               	rlcf	___fldiv@grs& (0+255),f,b
  6219  001AB4  37CA               	rlcf	(___fldiv@grs+1)& (0+255),f,b
  6220  001AB6  37CB               	rlcf	(___fldiv@grs+2)& (0+255),f,b
  6221  001AB8  37CC               	rlcf	(___fldiv@grs+3)& (0+255),f,b
  6222  001ABA                     l9315:
  6223                           
  6224                           ; BSR set to: 0
  6225  001ABA  5045               	movf	___fldiv@a^0,w,c
  6226  001ABC  5DC2               	subwf	___fldiv@rem& (0+255),w,b
  6227  001ABE  5046               	movf	(___fldiv@a+1)^0,w,c
  6228  001AC0  59C3               	subwfb	(___fldiv@rem+1)& (0+255),w,b
  6229  001AC2  5047               	movf	(___fldiv@a+2)^0,w,c
  6230  001AC4  59C4               	subwfb	(___fldiv@rem+2)& (0+255),w,b
  6231  001AC6  5048               	movf	(___fldiv@a+3)^0,w,c
  6232  001AC8  59C5               	subwfb	(___fldiv@rem+3)& (0+255),w,b
  6233  001ACA  A0D8               	btfss	status,0,c
  6234  001ACC  EF6A  F00D         	goto	u8871
  6235  001AD0  EF6C  F00D         	goto	u8870
  6236  001AD4                     u8871:
  6237  001AD4  EF75  F00D         	goto	l9321
  6238  001AD8                     u8870:
  6239  001AD8                     
  6240                           ; BSR set to: 0
  6241  001AD8  8DCC               	bsf	(___fldiv@grs+3)& (0+255),6,b
  6242  001ADA                     
  6243                           ; BSR set to: 0
  6244  001ADA  5045               	movf	___fldiv@a^0,w,c
  6245  001ADC  5FC2               	subwf	___fldiv@rem& (0+255),f,b
  6246  001ADE  5046               	movf	(___fldiv@a+1)^0,w,c
  6247  001AE0  5BC3               	subwfb	(___fldiv@rem+1)& (0+255),f,b
  6248  001AE2  5047               	movf	(___fldiv@a+2)^0,w,c
  6249  001AE4  5BC4               	subwfb	(___fldiv@rem+2)& (0+255),f,b
  6250  001AE6  5048               	movf	(___fldiv@a+3)^0,w,c
  6251  001AE8  5BC5               	subwfb	(___fldiv@rem+3)& (0+255),f,b
  6252  001AEA                     l9321:
  6253                           
  6254                           ; BSR set to: 0
  6255  001AEA  2BCE               	incf	___fldiv@aexp& (0+255),f,b
  6256  001AEC                     l2503:
  6257                           
  6258                           ; BSR set to: 0
  6259  001AEC  0E19               	movlw	25
  6260  001AEE  65CE               	cpfsgt	___fldiv@aexp& (0+255),b
  6261  001AF0  EF7C  F00D         	goto	u8881
  6262  001AF4  EF7E  F00D         	goto	u8880
  6263  001AF8                     u8881:
  6264  001AF8  EF3E  F00D         	goto	l9307
  6265  001AFC                     u8880:
  6266  001AFC                     
  6267                           ; BSR set to: 0
  6268  001AFC  51C2               	movf	___fldiv@rem& (0+255),w,b
  6269  001AFE  11C3               	iorwf	(___fldiv@rem+1)& (0+255),w,b
  6270  001B00  11C4               	iorwf	(___fldiv@rem+2)& (0+255),w,b
  6271  001B02  11C5               	iorwf	(___fldiv@rem+3)& (0+255),w,b
  6272  001B04  B4D8               	btfsc	status,2,c
  6273  001B06  EF87  F00D         	goto	u8891
  6274  001B0A  EF89  F00D         	goto	u8890
  6275  001B0E                     u8891:
  6276  001B0E  EFA1  F00D         	goto	l9333
  6277  001B12                     u8890:
  6278  001B12                     
  6279                           ; BSR set to: 0
  6280  001B12  81C9               	bsf	___fldiv@grs& (0+255),0,b
  6281  001B14  EFA1  F00D         	goto	l9333
  6282  001B18                     l9327:
  6283                           
  6284                           ; BSR set to: 0
  6285  001B18  90D8               	bcf	status,0,c
  6286  001B1A  3641               	rlcf	___fldiv@b^0,f,c
  6287  001B1C  3642               	rlcf	(___fldiv@b+1)^0,f,c
  6288  001B1E  3643               	rlcf	(___fldiv@b+2)^0,f,c
  6289  001B20  3644               	rlcf	(___fldiv@b+3)^0,f,c
  6290  001B22                     
  6291                           ; BSR set to: 0
  6292  001B22  AFCC               	btfss	(___fldiv@grs+3)& (0+255),7,b
  6293  001B24  EF96  F00D         	goto	u8901
  6294  001B28  EF98  F00D         	goto	u8900
  6295  001B2C                     u8901:
  6296  001B2C  EF99  F00D         	goto	l2512
  6297  001B30                     u8900:
  6298  001B30                     
  6299                           ; BSR set to: 0
  6300  001B30  8041               	bsf	___fldiv@b^0,0,c
  6301  001B32                     l2512:
  6302                           
  6303                           ; BSR set to: 0
  6304  001B32  90D8               	bcf	status,0,c
  6305  001B34  37C9               	rlcf	___fldiv@grs& (0+255),f,b
  6306  001B36  37CA               	rlcf	(___fldiv@grs+1)& (0+255),f,b
  6307  001B38  37CB               	rlcf	(___fldiv@grs+2)& (0+255),f,b
  6308  001B3A  37CC               	rlcf	(___fldiv@grs+3)& (0+255),f,b
  6309  001B3C  07C7               	decf	___fldiv@new_exp& (0+255),f,b
  6310  001B3E  A0D8               	btfss	status,0,c
  6311  001B40  07C8               	decf	(___fldiv@new_exp+1)& (0+255),f,b
  6312  001B42                     l9333:
  6313                           
  6314                           ; BSR set to: 0
  6315  001B42  AE43               	btfss	(___fldiv@b+2)^0,7,c
  6316  001B44  EFA6  F00D         	goto	u8911
  6317  001B48  EFA8  F00D         	goto	u8910
  6318  001B4C                     u8911:
  6319  001B4C  EF8C  F00D         	goto	l9327
  6320  001B50                     u8910:
  6321  001B50                     
  6322                           ; BSR set to: 0
  6323  001B50  0E00               	movlw	0
  6324  001B52  6FCE               	movwf	___fldiv@aexp& (0+255),b
  6325  001B54                     
  6326                           ; BSR set to: 0
  6327  001B54  AFCC               	btfss	(___fldiv@grs+3)& (0+255),7,b
  6328  001B56  EFAF  F00D         	goto	u8921
  6329  001B5A  EFB1  F00D         	goto	u8920
  6330  001B5E                     u8921:
  6331  001B5E  EFD5  F00D         	goto	l2514
  6332  001B62                     u8920:
  6333  001B62                     
  6334                           ; BSR set to: 0
  6335  001B62  0EFF               	movlw	255
  6336  001B64  15C9               	andwf	___fldiv@grs& (0+255),w,b
  6337  001B66  6E49               	movwf	??___fldiv^0,c
  6338  001B68  0EFF               	movlw	255
  6339  001B6A  15CA               	andwf	(___fldiv@grs+1)& (0+255),w,b
  6340  001B6C  6E4A               	movwf	(??___fldiv+1)^0,c
  6341  001B6E  0EFF               	movlw	255
  6342  001B70  15CB               	andwf	(___fldiv@grs+2)& (0+255),w,b
  6343  001B72  6E4B               	movwf	(??___fldiv+2)^0,c
  6344  001B74  0E7F               	movlw	127
  6345  001B76  15CC               	andwf	(___fldiv@grs+3)& (0+255),w,b
  6346  001B78  6E4C               	movwf	(??___fldiv+3)^0,c
  6347  001B7A  5049               	movf	??___fldiv^0,w,c
  6348  001B7C  104A               	iorwf	(??___fldiv+1)^0,w,c
  6349  001B7E  104B               	iorwf	(??___fldiv+2)^0,w,c
  6350  001B80  104C               	iorwf	(??___fldiv+3)^0,w,c
  6351  001B82  B4D8               	btfsc	status,2,c
  6352  001B84  EFC6  F00D         	goto	u8931
  6353  001B88  EFC8  F00D         	goto	u8930
  6354  001B8C                     u8931:
  6355  001B8C  EFCC  F00D         	goto	l2515
  6356  001B90                     u8930:
  6357  001B90                     l9341:
  6358                           
  6359                           ; BSR set to: 0
  6360  001B90  0E01               	movlw	1
  6361  001B92  6FCE               	movwf	___fldiv@aexp& (0+255),b
  6362  001B94  EFD5  F00D         	goto	l2514
  6363  001B98                     l2515:
  6364                           
  6365                           ; BSR set to: 0
  6366  001B98  A041               	btfss	___fldiv@b^0,0,c
  6367  001B9A  EFD1  F00D         	goto	u8941
  6368  001B9E  EFD3  F00D         	goto	u8940
  6369  001BA2                     u8941:
  6370  001BA2  EFD5  F00D         	goto	l2514
  6371  001BA6                     u8940:
  6372  001BA6  EFC8  F00D         	goto	l9341
  6373  001BAA                     l2514:
  6374                           
  6375                           ; BSR set to: 0
  6376  001BAA  51CE               	movf	___fldiv@aexp& (0+255),w,b
  6377  001BAC  B4D8               	btfsc	status,2,c
  6378  001BAE  EFDB  F00D         	goto	u8951
  6379  001BB2  EFDD  F00D         	goto	u8950
  6380  001BB6                     u8951:
  6381  001BB6  EF01  F00E         	goto	l9353
  6382  001BBA                     u8950:
  6383  001BBA                     
  6384                           ; BSR set to: 0
  6385  001BBA  0E01               	movlw	1
  6386  001BBC  2641               	addwf	___fldiv@b^0,f,c
  6387  001BBE  0E00               	movlw	0
  6388  001BC0  2242               	addwfc	(___fldiv@b+1)^0,f,c
  6389  001BC2  2243               	addwfc	(___fldiv@b+2)^0,f,c
  6390  001BC4  2244               	addwfc	(___fldiv@b+3)^0,f,c
  6391  001BC6                     
  6392                           ; BSR set to: 0
  6393  001BC6  A044               	btfss	(___fldiv@b+3)^0,0,c
  6394  001BC8  EFE8  F00D         	goto	u8961
  6395  001BCC  EFEA  F00D         	goto	u8960
  6396  001BD0                     u8961:
  6397  001BD0  EF01  F00E         	goto	l9353
  6398  001BD4                     u8960:
  6399  001BD4                     
  6400                           ; BSR set to: 0
  6401  001BD4  C041  F049         	movff	___fldiv@b,??___fldiv
  6402  001BD8  C042  F04A         	movff	___fldiv@b+1,??___fldiv+1
  6403  001BDC  C043  F04B         	movff	___fldiv@b+2,??___fldiv+2
  6404  001BE0  C044  F04C         	movff	___fldiv@b+3,??___fldiv+3
  6405  001BE4  344C               	rlcf	(??___fldiv+3)^0,w,c
  6406  001BE6  324C               	rrcf	(??___fldiv+3)^0,f,c
  6407  001BE8  324B               	rrcf	(??___fldiv+2)^0,f,c
  6408  001BEA  324A               	rrcf	(??___fldiv+1)^0,f,c
  6409  001BEC  3249               	rrcf	??___fldiv^0,f,c
  6410  001BEE  C049  F041         	movff	??___fldiv,___fldiv@b
  6411  001BF2  C04A  F042         	movff	??___fldiv+1,___fldiv@b+1
  6412  001BF6  C04B  F043         	movff	??___fldiv+2,___fldiv@b+2
  6413  001BFA  C04C  F044         	movff	??___fldiv+3,___fldiv@b+3
  6414  001BFE                     
  6415                           ; BSR set to: 0
  6416  001BFE  4BC7               	infsnz	___fldiv@new_exp& (0+255),f,b
  6417  001C00  2BC8               	incf	(___fldiv@new_exp+1)& (0+255),f,b
  6418  001C02                     l9353:
  6419                           
  6420                           ; BSR set to: 0
  6421  001C02  BFC8               	btfsc	(___fldiv@new_exp+1)& (0+255),7,b
  6422  001C04  EF0C  F00E         	goto	u8971
  6423  001C08  51C8               	movf	(___fldiv@new_exp+1)& (0+255),w,b
  6424  001C0A  E108               	bnz	u8970
  6425  001C0C  29C7               	incf	___fldiv@new_exp& (0+255),w,b
  6426  001C0E  A0D8               	btfss	status,0,c
  6427  001C10  EF0C  F00E         	goto	u8971
  6428  001C14  EF0E  F00E         	goto	u8970
  6429  001C18                     u8971:
  6430  001C18  EF19  F00E         	goto	l9357
  6431  001C1C                     u8970:
  6432  001C1C                     
  6433                           ; BSR set to: 0
  6434  001C1C  0E00               	movlw	0
  6435  001C1E  6FC8               	movwf	(___fldiv@new_exp+1)& (0+255),b
  6436  001C20  69C7               	setf	___fldiv@new_exp& (0+255),b
  6437  001C22  0E00               	movlw	0
  6438  001C24  6E41               	movwf	___fldiv@b^0,c
  6439  001C26  0E00               	movlw	0
  6440  001C28  6E42               	movwf	(___fldiv@b+1)^0,c
  6441  001C2A  0E00               	movlw	0
  6442  001C2C  6E43               	movwf	(___fldiv@b+2)^0,c
  6443  001C2E  0E00               	movlw	0
  6444  001C30  6E44               	movwf	(___fldiv@b+3)^0,c
  6445  001C32                     l9357:
  6446                           
  6447                           ; BSR set to: 0
  6448  001C32  BFC8               	btfsc	(___fldiv@new_exp+1)& (0+255),7,b
  6449  001C34  EF26  F00E         	goto	u8980
  6450  001C38  51C8               	movf	(___fldiv@new_exp+1)& (0+255),w,b
  6451  001C3A  E106               	bnz	u8981
  6452  001C3C  05C7               	decf	___fldiv@new_exp& (0+255),w,b
  6453  001C3E  B0D8               	btfsc	status,0,c
  6454  001C40  EF24  F00E         	goto	u8981
  6455  001C44  EF26  F00E         	goto	u8980
  6456  001C48                     u8981:
  6457  001C48  EF34  F00E         	goto	l9361
  6458  001C4C                     u8980:
  6459  001C4C                     
  6460                           ; BSR set to: 0
  6461  001C4C  0E00               	movlw	0
  6462  001C4E  6FC8               	movwf	(___fldiv@new_exp+1)& (0+255),b
  6463  001C50  0E00               	movlw	0
  6464  001C52  6FC7               	movwf	___fldiv@new_exp& (0+255),b
  6465  001C54  0E00               	movlw	0
  6466  001C56  6E41               	movwf	___fldiv@b^0,c
  6467  001C58  0E00               	movlw	0
  6468  001C5A  6E42               	movwf	(___fldiv@b+1)^0,c
  6469  001C5C  0E00               	movlw	0
  6470  001C5E  6E43               	movwf	(___fldiv@b+2)^0,c
  6471  001C60  0E00               	movlw	0
  6472  001C62  6E44               	movwf	(___fldiv@b+3)^0,c
  6473  001C64  0E00               	movlw	0
  6474  001C66  6FC6               	movwf	___fldiv@sign& (0+255),b
  6475  001C68                     l9361:
  6476                           
  6477                           ; BSR set to: 0
  6478  001C68  C0C7  F0CD         	movff	___fldiv@new_exp,___fldiv@bexp
  6479  001C6C                     
  6480                           ; BSR set to: 0
  6481  001C6C  A1CD               	btfss	___fldiv@bexp& (0+255),0,b
  6482  001C6E  EF3B  F00E         	goto	u8991
  6483  001C72  EF3D  F00E         	goto	u8990
  6484  001C76                     u8991:
  6485  001C76  EF40  F00E         	goto	l9367
  6486  001C7A                     u8990:
  6487  001C7A                     
  6488                           ; BSR set to: 0
  6489  001C7A  8E43               	bsf	(___fldiv@b+2)^0,7,c
  6490  001C7C  EF41  F00E         	goto	l9369
  6491  001C80                     l9367:
  6492                           
  6493                           ; BSR set to: 0
  6494  001C80  9E43               	bcf	(___fldiv@b+2)^0,7,c
  6495  001C82                     l9369:
  6496                           
  6497                           ; BSR set to: 0
  6498  001C82  90D8               	bcf	status,0,c
  6499  001C84  31CD               	rrcf	___fldiv@bexp& (0+255),w,b
  6500  001C86  6E44               	movwf	(___fldiv@b+3)^0,c
  6501  001C88  EFF7  F00C         	goto	l9283
  6502  001C8C                     l2501:
  6503                           
  6504                           ; BSR set to: 0
  6505  001C8C  0012               	return		;funcret
  6506  001C8E                     __end_of___fldiv:
  6507                           	callstack 0
  6508                           
  6509 ;; *************** function ___fladd *****************
  6510 ;; Defined at:
  6511 ;;		line 10 in file "C:\Program Files\Microchip\xc8\v2.36\pic\sources\c99\common\sprcadd.c"
  6512 ;; Parameters:    Size  Location     Type
  6513 ;;  b               4   13[BANK0 ] unsigned char 
  6514 ;;  a               4   17[BANK0 ] unsigned char 
  6515 ;; Auto vars:     Size  Location     Type
  6516 ;;  grs             1   28[BANK0 ] unsigned char 
  6517 ;;  bexp            1   27[BANK0 ] unsigned char 
  6518 ;;  aexp            1   26[BANK0 ] unsigned char 
  6519 ;;  signs           1   25[BANK0 ] unsigned char 
  6520 ;; Return value:  Size  Location     Type
  6521 ;;                  4   13[BANK0 ] unsigned char 
  6522 ;; Registers used:
  6523 ;;		wreg, status,2, status,0
  6524 ;; Tracked objects:
  6525 ;;		On entry : 0/0
  6526 ;;		On exit  : 0/0
  6527 ;;		Unchanged: 0/0
  6528 ;; Data sizes:     COMRAM   BANK0   BANK1   BANK2   BANK3   BANK4   BANK5   BANK6   BANK7   BANK8   BANK9  BANK10  BANK1
      +1  BANK12  BANK13  BANK14  BANK15
  6529 ;;      Params:         0       8       0       0       0       0       0       0       0       0       0       0       
      +0       0       0       0       0
  6530 ;;      Locals:         0       4       0       0       0       0       0       0       0       0       0       0       
      +0       0       0       0       0
  6531 ;;      Temps:          0       4       0       0       0       0       0       0       0       0       0       0       
      +0       0       0       0       0
  6532 ;;      Totals:         0      16       0       0       0       0       0       0       0       0       0       0       
      +0       0       0       0       0
  6533 ;;Total ram usage:       16 bytes
  6534 ;; Hardware stack levels used: 1
  6535 ;; Hardware stack levels required when called: 7
  6536 ;; This function calls:
  6537 ;;		Nothing
  6538 ;; This function is called by:
  6539 ;;		_CCP_PWM_Set_Duty
  6540 ;;		_CCP_PWM_Mode_Config
  6541 ;;		_EUSART_Baud_Rate_Calculation
  6542 ;; This function uses a non-reentrant model
  6543 ;;
  6544                           
  6545                           	psect	text39
  6546  001006                     __ptext39:
  6547                           	callstack 0
  6548  001006                     ___fladd:
  6549                           	callstack 20
  6550  001006  0100               	movlb	0	; () banked
  6551  001008  51D2               	movf	(___fladd@b+3)& (0+255),w,b
  6552  00100A  0B80               	andlw	128
  6553  00100C  6FDB               	movwf	___fladd@signs& (0+255),b
  6554  00100E  51D2               	movf	(___fladd@b+3)& (0+255),w,b
  6555  001010  25D2               	addwf	(___fladd@b+3)& (0+255),w,b
  6556  001012  6FDD               	movwf	___fladd@bexp& (0+255),b
  6557  001014                     
  6558                           ; BSR set to: 0
  6559  001014  AFD1               	btfss	(___fladd@b+2)& (0+255),7,b
  6560  001016  EF0F  F008         	goto	u8381
  6561  00101A  EF11  F008         	goto	u8380
  6562  00101E                     u8381:
  6563  00101E  EF12  F008         	goto	l9043
  6564  001022                     u8380:
  6565  001022                     
  6566                           ; BSR set to: 0
  6567  001022  81DD               	bsf	___fladd@bexp& (0+255),0,b
  6568  001024                     l9043:
  6569                           
  6570                           ; BSR set to: 0
  6571  001024  51DD               	movf	___fladd@bexp& (0+255),w,b
  6572  001026  B4D8               	btfsc	status,2,c
  6573  001028  EF18  F008         	goto	u8391
  6574  00102C  EF1A  F008         	goto	u8390
  6575  001030                     u8391:
  6576  001030  EF2F  F008         	goto	l9053
  6577  001034                     u8390:
  6578  001034                     
  6579                           ; BSR set to: 0
  6580  001034  29DD               	incf	___fladd@bexp& (0+255),w,b
  6581  001036  A4D8               	btfss	status,2,c
  6582  001038  EF20  F008         	goto	u8401
  6583  00103C  EF22  F008         	goto	u8400
  6584  001040                     u8401:
  6585  001040  EF2A  F008         	goto	l9049
  6586  001044                     u8400:
  6587  001044                     
  6588                           ; BSR set to: 0
  6589  001044  0E00               	movlw	0
  6590  001046  6FCF               	movwf	___fladd@b& (0+255),b
  6591  001048  0E00               	movlw	0
  6592  00104A  6FD0               	movwf	(___fladd@b+1)& (0+255),b
  6593  00104C  0E00               	movlw	0
  6594  00104E  6FD1               	movwf	(___fladd@b+2)& (0+255),b
  6595  001050  0E00               	movlw	0
  6596  001052  6FD2               	movwf	(___fladd@b+3)& (0+255),b
  6597  001054                     l9049:
  6598                           
  6599                           ; BSR set to: 0
  6600  001054  8FD1               	bsf	(___fladd@b+2)& (0+255),7,b
  6601  001056                     
  6602                           ; BSR set to: 0
  6603  001056  0E00               	movlw	0
  6604  001058  6FD2               	movwf	(___fladd@b+3)& (0+255),b
  6605  00105A  EF37  F008         	goto	l9055
  6606  00105E                     l9053:
  6607                           
  6608                           ; BSR set to: 0
  6609  00105E  0E00               	movlw	0
  6610  001060  6FCF               	movwf	___fladd@b& (0+255),b
  6611  001062  0E00               	movlw	0
  6612  001064  6FD0               	movwf	(___fladd@b+1)& (0+255),b
  6613  001066  0E00               	movlw	0
  6614  001068  6FD1               	movwf	(___fladd@b+2)& (0+255),b
  6615  00106A  0E00               	movlw	0
  6616  00106C  6FD2               	movwf	(___fladd@b+3)& (0+255),b
  6617  00106E                     l9055:
  6618                           
  6619                           ; BSR set to: 0
  6620  00106E  51D6               	movf	(___fladd@a+3)& (0+255),w,b
  6621  001070  0B80               	andlw	128
  6622  001072  6FDC               	movwf	___fladd@aexp& (0+255),b
  6623  001074                     
  6624                           ; BSR set to: 0
  6625  001074  51DB               	movf	___fladd@signs& (0+255),w,b
  6626  001076  19DC               	xorwf	___fladd@aexp& (0+255),w,b
  6627  001078  B4D8               	btfsc	status,2,c
  6628  00107A  EF41  F008         	goto	u8411
  6629  00107E  EF43  F008         	goto	u8410
  6630  001082                     u8411:
  6631  001082  EF44  F008         	goto	l9061
  6632  001086                     u8410:
  6633  001086                     
  6634                           ; BSR set to: 0
  6635  001086  8DDB               	bsf	___fladd@signs& (0+255),6,b
  6636  001088                     l9061:
  6637                           
  6638                           ; BSR set to: 0
  6639  001088  51D6               	movf	(___fladd@a+3)& (0+255),w,b
  6640  00108A  25D6               	addwf	(___fladd@a+3)& (0+255),w,b
  6641  00108C  6FDC               	movwf	___fladd@aexp& (0+255),b
  6642  00108E                     
  6643                           ; BSR set to: 0
  6644  00108E  AFD5               	btfss	(___fladd@a+2)& (0+255),7,b
  6645  001090  EF4C  F008         	goto	u8421
  6646  001094  EF4E  F008         	goto	u8420
  6647  001098                     u8421:
  6648  001098  EF4F  F008         	goto	l9067
  6649  00109C                     u8420:
  6650  00109C                     
  6651                           ; BSR set to: 0
  6652  00109C  81DC               	bsf	___fladd@aexp& (0+255),0,b
  6653  00109E                     l9067:
  6654                           
  6655                           ; BSR set to: 0
  6656  00109E  51DC               	movf	___fladd@aexp& (0+255),w,b
  6657  0010A0  B4D8               	btfsc	status,2,c
  6658  0010A2  EF55  F008         	goto	u8431
  6659  0010A6  EF57  F008         	goto	u8430
  6660  0010AA                     u8431:
  6661  0010AA  EF6C  F008         	goto	l9077
  6662  0010AE                     u8430:
  6663  0010AE                     
  6664                           ; BSR set to: 0
  6665  0010AE  29DC               	incf	___fladd@aexp& (0+255),w,b
  6666  0010B0  A4D8               	btfss	status,2,c
  6667  0010B2  EF5D  F008         	goto	u8441
  6668  0010B6  EF5F  F008         	goto	u8440
  6669  0010BA                     u8441:
  6670  0010BA  EF67  F008         	goto	l9073
  6671  0010BE                     u8440:
  6672  0010BE                     
  6673                           ; BSR set to: 0
  6674  0010BE  0E00               	movlw	0
  6675  0010C0  6FD3               	movwf	___fladd@a& (0+255),b
  6676  0010C2  0E00               	movlw	0
  6677  0010C4  6FD4               	movwf	(___fladd@a+1)& (0+255),b
  6678  0010C6  0E00               	movlw	0
  6679  0010C8  6FD5               	movwf	(___fladd@a+2)& (0+255),b
  6680  0010CA  0E00               	movlw	0
  6681  0010CC  6FD6               	movwf	(___fladd@a+3)& (0+255),b
  6682  0010CE                     l9073:
  6683                           
  6684                           ; BSR set to: 0
  6685  0010CE  8FD5               	bsf	(___fladd@a+2)& (0+255),7,b
  6686  0010D0                     
  6687                           ; BSR set to: 0
  6688  0010D0  0E00               	movlw	0
  6689  0010D2  6FD6               	movwf	(___fladd@a+3)& (0+255),b
  6690  0010D4  EF74  F008         	goto	l9079
  6691  0010D8                     l9077:
  6692                           
  6693                           ; BSR set to: 0
  6694  0010D8  0E00               	movlw	0
  6695  0010DA  6FD3               	movwf	___fladd@a& (0+255),b
  6696  0010DC  0E00               	movlw	0
  6697  0010DE  6FD4               	movwf	(___fladd@a+1)& (0+255),b
  6698  0010E0  0E00               	movlw	0
  6699  0010E2  6FD5               	movwf	(___fladd@a+2)& (0+255),b
  6700  0010E4  0E00               	movlw	0
  6701  0010E6  6FD6               	movwf	(___fladd@a+3)& (0+255),b
  6702  0010E8                     l9079:
  6703                           
  6704                           ; BSR set to: 0
  6705  0010E8  51DD               	movf	___fladd@bexp& (0+255),w,b
  6706  0010EA  5DDC               	subwf	___fladd@aexp& (0+255),w,b
  6707  0010EC  B0D8               	btfsc	status,0,c
  6708  0010EE  EF7B  F008         	goto	u8451
  6709  0010F2  EF7D  F008         	goto	u8450
  6710  0010F6                     u8451:
  6711  0010F6  EFA4  F008         	goto	l9115
  6712  0010FA                     u8450:
  6713  0010FA                     
  6714                           ; BSR set to: 0
  6715  0010FA  ADDB               	btfss	___fladd@signs& (0+255),6,b
  6716  0010FC  EF82  F008         	goto	u8461
  6717  001100  EF84  F008         	goto	u8460
  6718  001104                     u8461:
  6719  001104  EF86  F008         	goto	l9085
  6720  001108                     u8460:
  6721  001108                     
  6722                           ; BSR set to: 0
  6723  001108  0E80               	movlw	128
  6724  00110A  1BDB               	xorwf	___fladd@signs& (0+255),f,b
  6725  00110C                     l9085:
  6726                           
  6727                           ; BSR set to: 0
  6728  00110C  C0DD  F0DE         	movff	___fladd@bexp,___fladd@grs
  6729  001110                     
  6730                           ; BSR set to: 0
  6731  001110  C0DC  F0DD         	movff	___fladd@aexp,___fladd@bexp
  6732  001114                     
  6733                           ; BSR set to: 0
  6734  001114  C0DE  F0DC         	movff	___fladd@grs,___fladd@aexp
  6735  001118                     
  6736                           ; BSR set to: 0
  6737  001118  C0CF  F0DE         	movff	___fladd@b,___fladd@grs
  6738  00111C                     
  6739                           ; BSR set to: 0
  6740  00111C  C0D3  F0CF         	movff	___fladd@a,___fladd@b
  6741  001120                     
  6742                           ; BSR set to: 0
  6743  001120  C0DE  F0D3         	movff	___fladd@grs,___fladd@a
  6744  001124                     
  6745                           ; BSR set to: 0
  6746  001124  C0D0  F0DE         	movff	___fladd@b+1,___fladd@grs
  6747  001128                     
  6748                           ; BSR set to: 0
  6749  001128  C0D4  F0D0         	movff	___fladd@a+1,___fladd@b+1
  6750  00112C                     
  6751                           ; BSR set to: 0
  6752  00112C  C0DE  F0D4         	movff	___fladd@grs,___fladd@a+1
  6753  001130                     
  6754                           ; BSR set to: 0
  6755  001130  C0D1  F0DE         	movff	___fladd@b+2,___fladd@grs
  6756  001134                     
  6757                           ; BSR set to: 0
  6758  001134  C0D5  F0D1         	movff	___fladd@a+2,___fladd@b+2
  6759  001138                     
  6760                           ; BSR set to: 0
  6761  001138  C0DE  F0D5         	movff	___fladd@grs,___fladd@a+2
  6762  00113C                     
  6763                           ; BSR set to: 0
  6764  00113C  C0D2  F0DE         	movff	___fladd@b+3,___fladd@grs
  6765  001140                     
  6766                           ; BSR set to: 0
  6767  001140  C0D6  F0D2         	movff	___fladd@a+3,___fladd@b+3
  6768  001144                     
  6769                           ; BSR set to: 0
  6770  001144  C0DE  F0D6         	movff	___fladd@grs,___fladd@a+3
  6771  001148                     l9115:
  6772                           
  6773                           ; BSR set to: 0
  6774  001148  0E00               	movlw	0
  6775  00114A  6FDE               	movwf	___fladd@grs& (0+255),b
  6776  00114C                     
  6777                           ; BSR set to: 0
  6778  00114C  51DD               	movf	___fladd@bexp& (0+255),w,b
  6779  00114E  C0DC  F0D7         	movff	___fladd@aexp,??___fladd
  6780  001152  6BD8               	clrf	(??___fladd+1)& (0+255),b
  6781  001154  5FD7               	subwf	??___fladd& (0+255),f,b
  6782  001156  0E00               	movlw	0
  6783  001158  5BD8               	subwfb	(??___fladd+1)& (0+255),f,b
  6784  00115A  BFD8               	btfsc	(??___fladd+1)& (0+255),7,b
  6785  00115C  EFB9  F008         	goto	u8471
  6786  001160  51D8               	movf	(??___fladd+1)& (0+255),w,b
  6787  001162  E109               	bnz	u8470
  6788  001164  0E1A               	movlw	26
  6789  001166  5DD7               	subwf	??___fladd& (0+255),w,b
  6790  001168  A0D8               	btfss	status,0,c
  6791  00116A  EFB9  F008         	goto	u8471
  6792  00116E  EFBB  F008         	goto	u8470
  6793  001172                     u8471:
  6794  001172  EFF2  F008         	goto	l2448
  6795  001176                     u8470:
  6796  001176                     
  6797                           ; BSR set to: 0
  6798  001176  51CF               	movf	___fladd@b& (0+255),w,b
  6799  001178  11D0               	iorwf	(___fladd@b+1)& (0+255),w,b
  6800  00117A  11D1               	iorwf	(___fladd@b+2)& (0+255),w,b
  6801  00117C  11D2               	iorwf	(___fladd@b+3)& (0+255),w,b
  6802  00117E  A4D8               	btfss	status,2,c
  6803  001180  EFC4  F008         	goto	u8481
  6804  001184  EFC7  F008         	goto	u8480
  6805  001188                     u8481:
  6806  001188  0E01               	movlw	1
  6807  00118A  EFC8  F008         	goto	u8490
  6808  00118E                     u8480:
  6809  00118E  0E00               	movlw	0
  6810  001190                     u8490:
  6811  001190  6FDE               	movwf	___fladd@grs& (0+255),b
  6812  001192                     
  6813                           ; BSR set to: 0
  6814  001192  0E00               	movlw	0
  6815  001194  6FCF               	movwf	___fladd@b& (0+255),b
  6816  001196  0E00               	movlw	0
  6817  001198  6FD0               	movwf	(___fladd@b+1)& (0+255),b
  6818  00119A  0E00               	movlw	0
  6819  00119C  6FD1               	movwf	(___fladd@b+2)& (0+255),b
  6820  00119E  0E00               	movlw	0
  6821  0011A0  6FD2               	movwf	(___fladd@b+3)& (0+255),b
  6822  0011A2                     
  6823                           ; BSR set to: 0
  6824  0011A2  C0DC  F0DD         	movff	___fladd@aexp,___fladd@bexp
  6825  0011A6  EFFB  F008         	goto	l2447
  6826  0011AA                     l2449:
  6827                           
  6828                           ; BSR set to: 0
  6829  0011AA  A1DE               	btfss	___fladd@grs& (0+255),0,b
  6830  0011AC  EFDA  F008         	goto	u8501
  6831  0011B0  EFDC  F008         	goto	u8500
  6832  0011B4                     u8501:
  6833  0011B4  EFE2  F008         	goto	l9127
  6834  0011B8                     u8500:
  6835  0011B8                     
  6836                           ; BSR set to: 0
  6837  0011B8  90D8               	bcf	status,0,c
  6838  0011BA  31DE               	rrcf	___fladd@grs& (0+255),w,b
  6839  0011BC  0901               	iorlw	1
  6840  0011BE  6FDE               	movwf	___fladd@grs& (0+255),b
  6841  0011C0  EFE4  F008         	goto	l9129
  6842  0011C4                     l9127:
  6843                           
  6844                           ; BSR set to: 0
  6845  0011C4  90D8               	bcf	status,0,c
  6846  0011C6  33DE               	rrcf	___fladd@grs& (0+255),f,b
  6847  0011C8                     l9129:
  6848                           
  6849                           ; BSR set to: 0
  6850  0011C8  A1CF               	btfss	___fladd@b& (0+255),0,b
  6851  0011CA  EFE9  F008         	goto	u8511
  6852  0011CE  EFEB  F008         	goto	u8510
  6853  0011D2                     u8511:
  6854  0011D2  EFEC  F008         	goto	l9133
  6855  0011D6                     u8510:
  6856  0011D6                     
  6857                           ; BSR set to: 0
  6858  0011D6  8FDE               	bsf	___fladd@grs& (0+255),7,b
  6859  0011D8                     l9133:
  6860                           
  6861                           ; BSR set to: 0
  6862  0011D8  35D2               	rlcf	(___fladd@b+3)& (0+255),w,b
  6863  0011DA  33D2               	rrcf	(___fladd@b+3)& (0+255),f,b
  6864  0011DC  33D1               	rrcf	(___fladd@b+2)& (0+255),f,b
  6865  0011DE  33D0               	rrcf	(___fladd@b+1)& (0+255),f,b
  6866  0011E0  33CF               	rrcf	___fladd@b& (0+255),f,b
  6867  0011E2                     
  6868                           ; BSR set to: 0
  6869  0011E2  2BDD               	incf	___fladd@bexp& (0+255),f,b
  6870  0011E4                     l2448:
  6871                           
  6872                           ; BSR set to: 0
  6873  0011E4  51DC               	movf	___fladd@aexp& (0+255),w,b
  6874  0011E6  5DDD               	subwf	___fladd@bexp& (0+255),w,b
  6875  0011E8  A0D8               	btfss	status,0,c
  6876  0011EA  EFF9  F008         	goto	u8521
  6877  0011EE  EFFB  F008         	goto	u8520
  6878  0011F2                     u8521:
  6879  0011F2  EFD5  F008         	goto	l2449
  6880  0011F6                     u8520:
  6881  0011F6                     l2447:
  6882                           
  6883                           ; BSR set to: 0
  6884  0011F6  BDDB               	btfsc	___fladd@signs& (0+255),6,b
  6885  0011F8  EF00  F009         	goto	u8531
  6886  0011FC  EF02  F009         	goto	u8530
  6887  001200                     u8531:
  6888  001200  EF42  F009         	goto	l9161
  6889  001204                     u8530:
  6890  001204                     
  6891                           ; BSR set to: 0
  6892  001204  51DD               	movf	___fladd@bexp& (0+255),w,b
  6893  001206  A4D8               	btfss	status,2,c
  6894  001208  EF08  F009         	goto	u8541
  6895  00120C  EF0A  F009         	goto	u8540
  6896  001210                     u8541:
  6897  001210  EF14  F009         	goto	l9143
  6898  001214                     u8540:
  6899  001214                     
  6900                           ; BSR set to: 0
  6901  001214  0E00               	movlw	0
  6902  001216  6FCF               	movwf	?___fladd& (0+255),b
  6903  001218  0E00               	movlw	0
  6904  00121A  6FD0               	movwf	(?___fladd+1)& (0+255),b
  6905  00121C  0E00               	movlw	0
  6906  00121E  6FD1               	movwf	(?___fladd+2)& (0+255),b
  6907  001220  0E00               	movlw	0
  6908  001222  6FD2               	movwf	(?___fladd+3)& (0+255),b
  6909  001224  EF63  F00A         	goto	l2456
  6910  001228                     l9143:
  6911                           
  6912                           ; BSR set to: 0
  6913  001228  51D3               	movf	___fladd@a& (0+255),w,b
  6914  00122A  27CF               	addwf	___fladd@b& (0+255),f,b
  6915  00122C  51D4               	movf	(___fladd@a+1)& (0+255),w,b
  6916  00122E  23D0               	addwfc	(___fladd@b+1)& (0+255),f,b
  6917  001230  51D5               	movf	(___fladd@a+2)& (0+255),w,b
  6918  001232  23D1               	addwfc	(___fladd@b+2)& (0+255),f,b
  6919  001234  51D6               	movf	(___fladd@a+3)& (0+255),w,b
  6920  001236  23D2               	addwfc	(___fladd@b+3)& (0+255),f,b
  6921  001238                     
  6922                           ; BSR set to: 0
  6923  001238  A1D2               	btfss	(___fladd@b+3)& (0+255),0,b
  6924  00123A  EF21  F009         	goto	u8551
  6925  00123E  EF23  F009         	goto	u8550
  6926  001242                     u8551:
  6927  001242  EFCF  F009         	goto	l9197
  6928  001246                     u8550:
  6929  001246                     
  6930                           ; BSR set to: 0
  6931  001246  A1DE               	btfss	___fladd@grs& (0+255),0,b
  6932  001248  EF28  F009         	goto	u8561
  6933  00124C  EF2A  F009         	goto	u8560
  6934  001250                     u8561:
  6935  001250  EF30  F009         	goto	l9151
  6936  001254                     u8560:
  6937  001254                     
  6938                           ; BSR set to: 0
  6939  001254  90D8               	bcf	status,0,c
  6940  001256  31DE               	rrcf	___fladd@grs& (0+255),w,b
  6941  001258  0901               	iorlw	1
  6942  00125A  6FDE               	movwf	___fladd@grs& (0+255),b
  6943  00125C  EF32  F009         	goto	l9153
  6944  001260                     l9151:
  6945                           
  6946                           ; BSR set to: 0
  6947  001260  90D8               	bcf	status,0,c
  6948  001262  33DE               	rrcf	___fladd@grs& (0+255),f,b
  6949  001264                     l9153:
  6950                           
  6951                           ; BSR set to: 0
  6952  001264  A1CF               	btfss	___fladd@b& (0+255),0,b
  6953  001266  EF37  F009         	goto	u8571
  6954  00126A  EF39  F009         	goto	u8570
  6955  00126E                     u8571:
  6956  00126E  EF3A  F009         	goto	l9157
  6957  001272                     u8570:
  6958  001272                     
  6959                           ; BSR set to: 0
  6960  001272  8FDE               	bsf	___fladd@grs& (0+255),7,b
  6961  001274                     l9157:
  6962                           
  6963                           ; BSR set to: 0
  6964  001274  35D2               	rlcf	(___fladd@b+3)& (0+255),w,b
  6965  001276  33D2               	rrcf	(___fladd@b+3)& (0+255),f,b
  6966  001278  33D1               	rrcf	(___fladd@b+2)& (0+255),f,b
  6967  00127A  33D0               	rrcf	(___fladd@b+1)& (0+255),f,b
  6968  00127C  33CF               	rrcf	___fladd@b& (0+255),f,b
  6969  00127E                     
  6970                           ; BSR set to: 0
  6971  00127E  2BDD               	incf	___fladd@bexp& (0+255),f,b
  6972  001280  EFCF  F009         	goto	l9197
  6973  001284                     l9161:
  6974                           
  6975                           ; BSR set to: 0
  6976  001284  51D3               	movf	___fladd@a& (0+255),w,b
  6977  001286  5DCF               	subwf	___fladd@b& (0+255),w,b
  6978  001288  51D4               	movf	(___fladd@a+1)& (0+255),w,b
  6979  00128A  59D0               	subwfb	(___fladd@b+1)& (0+255),w,b
  6980  00128C  51D5               	movf	(___fladd@a+2)& (0+255),w,b
  6981  00128E  59D1               	subwfb	(___fladd@b+2)& (0+255),w,b
  6982  001290  51D2               	movf	(___fladd@b+3)& (0+255),w,b
  6983  001292  0A80               	xorlw	128
  6984  001294  6FD7               	movwf	??___fladd& (0+255),b
  6985  001296  51D6               	movf	(___fladd@a+3)& (0+255),w,b
  6986  001298  0A80               	xorlw	128
  6987  00129A  59D7               	subwfb	??___fladd& (0+255),w,b
  6988  00129C  B0D8               	btfsc	status,0,c
  6989  00129E  EF53  F009         	goto	u8581
  6990  0012A2  EF55  F009         	goto	u8580
  6991  0012A6                     u8581:
  6992  0012A6  EF80  F009         	goto	l9171
  6993  0012AA                     u8580:
  6994  0012AA                     
  6995                           ; BSR set to: 0
  6996  0012AA  51CF               	movf	___fladd@b& (0+255),w,b
  6997  0012AC  5DD3               	subwf	___fladd@a& (0+255),w,b
  6998  0012AE  6FD7               	movwf	??___fladd& (0+255),b
  6999  0012B0  51D0               	movf	(___fladd@b+1)& (0+255),w,b
  7000  0012B2  59D4               	subwfb	(___fladd@a+1)& (0+255),w,b
  7001  0012B4  6FD8               	movwf	(??___fladd+1)& (0+255),b
  7002  0012B6  51D1               	movf	(___fladd@b+2)& (0+255),w,b
  7003  0012B8  59D5               	subwfb	(___fladd@a+2)& (0+255),w,b
  7004  0012BA  6FD9               	movwf	(??___fladd+2)& (0+255),b
  7005  0012BC  51D2               	movf	(___fladd@b+3)& (0+255),w,b
  7006  0012BE  59D6               	subwfb	(___fladd@a+3)& (0+255),w,b
  7007  0012C0  6FDA               	movwf	(??___fladd+3)& (0+255),b
  7008  0012C2  0EFF               	movlw	255
  7009  0012C4  25D7               	addwf	??___fladd& (0+255),w,b
  7010  0012C6  6FCF               	movwf	___fladd@b& (0+255),b
  7011  0012C8  0EFF               	movlw	255
  7012  0012CA  21D8               	addwfc	(??___fladd+1)& (0+255),w,b
  7013  0012CC  6FD0               	movwf	(___fladd@b+1)& (0+255),b
  7014  0012CE  0EFF               	movlw	255
  7015  0012D0  21D9               	addwfc	(??___fladd+2)& (0+255),w,b
  7016  0012D2  6FD1               	movwf	(___fladd@b+2)& (0+255),b
  7017  0012D4  0EFF               	movlw	255
  7018  0012D6  21DA               	addwfc	(??___fladd+3)& (0+255),w,b
  7019  0012D8  6FD2               	movwf	(___fladd@b+3)& (0+255),b
  7020  0012DA  0E80               	movlw	128
  7021  0012DC  1BDB               	xorwf	___fladd@signs& (0+255),f,b
  7022  0012DE                     
  7023                           ; BSR set to: 0
  7024  0012DE  6DDE               	negf	___fladd@grs& (0+255),b
  7025  0012E0                     
  7026                           ; BSR set to: 0
  7027  0012E0  51DE               	movf	___fladd@grs& (0+255),w,b
  7028  0012E2  A4D8               	btfss	status,2,c
  7029  0012E4  EF76  F009         	goto	u8591
  7030  0012E8  EF78  F009         	goto	u8590
  7031  0012EC                     u8591:
  7032  0012EC  EF88  F009         	goto	l2464
  7033  0012F0                     u8590:
  7034  0012F0                     
  7035                           ; BSR set to: 0
  7036  0012F0  0E01               	movlw	1
  7037  0012F2  27CF               	addwf	___fladd@b& (0+255),f,b
  7038  0012F4  0E00               	movlw	0
  7039  0012F6  23D0               	addwfc	(___fladd@b+1)& (0+255),f,b
  7040  0012F8  23D1               	addwfc	(___fladd@b+2)& (0+255),f,b
  7041  0012FA  23D2               	addwfc	(___fladd@b+3)& (0+255),f,b
  7042  0012FC  EF88  F009         	goto	l2464
  7043  001300                     l9171:
  7044                           
  7045                           ; BSR set to: 0
  7046  001300  51D3               	movf	___fladd@a& (0+255),w,b
  7047  001302  5FCF               	subwf	___fladd@b& (0+255),f,b
  7048  001304  51D4               	movf	(___fladd@a+1)& (0+255),w,b
  7049  001306  5BD0               	subwfb	(___fladd@b+1)& (0+255),f,b
  7050  001308  51D5               	movf	(___fladd@a+2)& (0+255),w,b
  7051  00130A  5BD1               	subwfb	(___fladd@b+2)& (0+255),f,b
  7052  00130C  51D6               	movf	(___fladd@a+3)& (0+255),w,b
  7053  00130E  5BD2               	subwfb	(___fladd@b+3)& (0+255),f,b
  7054  001310                     l2464:
  7055                           
  7056                           ; BSR set to: 0
  7057  001310  51CF               	movf	___fladd@b& (0+255),w,b
  7058  001312  11D0               	iorwf	(___fladd@b+1)& (0+255),w,b
  7059  001314  11D1               	iorwf	(___fladd@b+2)& (0+255),w,b
  7060  001316  11D2               	iorwf	(___fladd@b+3)& (0+255),w,b
  7061  001318  A4D8               	btfss	status,2,c
  7062  00131A  EF91  F009         	goto	u8601
  7063  00131E  EF93  F009         	goto	u8600
  7064  001322                     u8601:
  7065  001322  EFC8  F009         	goto	l9195
  7066  001326                     u8600:
  7067  001326                     
  7068                           ; BSR set to: 0
  7069  001326  51DE               	movf	___fladd@grs& (0+255),w,b
  7070  001328  A4D8               	btfss	status,2,c
  7071  00132A  EF99  F009         	goto	u8611
  7072  00132E  EF9B  F009         	goto	u8610
  7073  001332                     u8611:
  7074  001332  EFC8  F009         	goto	l9195
  7075  001336                     u8610:
  7076  001336                     
  7077                           ; BSR set to: 0
  7078  001336  0E00               	movlw	0
  7079  001338  6FCF               	movwf	?___fladd& (0+255),b
  7080  00133A  0E00               	movlw	0
  7081  00133C  6FD0               	movwf	(?___fladd+1)& (0+255),b
  7082  00133E  0E00               	movlw	0
  7083  001340  6FD1               	movwf	(?___fladd+2)& (0+255),b
  7084  001342  0E00               	movlw	0
  7085  001344  6FD2               	movwf	(?___fladd+3)& (0+255),b
  7086  001346  EF63  F00A         	goto	l2456
  7087  00134A                     l9179:
  7088                           
  7089                           ; BSR set to: 0
  7090  00134A  90D8               	bcf	status,0,c
  7091  00134C  37CF               	rlcf	___fladd@b& (0+255),f,b
  7092  00134E  37D0               	rlcf	(___fladd@b+1)& (0+255),f,b
  7093  001350  37D1               	rlcf	(___fladd@b+2)& (0+255),f,b
  7094  001352  37D2               	rlcf	(___fladd@b+3)& (0+255),f,b
  7095  001354                     
  7096                           ; BSR set to: 0
  7097  001354  AFDE               	btfss	___fladd@grs& (0+255),7,b
  7098  001356  EFAF  F009         	goto	u8621
  7099  00135A  EFB1  F009         	goto	u8620
  7100  00135E                     u8621:
  7101  00135E  EFB2  F009         	goto	l9185
  7102  001362                     u8620:
  7103  001362                     
  7104                           ; BSR set to: 0
  7105  001362  81CF               	bsf	___fladd@b& (0+255),0,b
  7106  001364                     l9185:
  7107                           
  7108                           ; BSR set to: 0
  7109  001364  A1DE               	btfss	___fladd@grs& (0+255),0,b
  7110  001366  EFB7  F009         	goto	u8631
  7111  00136A  EFB9  F009         	goto	u8630
  7112  00136E                     u8631:
  7113  00136E  EFBD  F009         	goto	l9189
  7114  001372                     u8630:
  7115  001372                     
  7116                           ; BSR set to: 0
  7117  001372  80D8               	bsf	status,0,c
  7118  001374  37DE               	rlcf	___fladd@grs& (0+255),f,b
  7119  001376  EFBF  F009         	goto	l9191
  7120  00137A                     l9189:
  7121                           
  7122                           ; BSR set to: 0
  7123  00137A  90D8               	bcf	status,0,c
  7124  00137C  37DE               	rlcf	___fladd@grs& (0+255),f,b
  7125  00137E                     l9191:
  7126                           
  7127                           ; BSR set to: 0
  7128  00137E  51DD               	movf	___fladd@bexp& (0+255),w,b
  7129  001380  B4D8               	btfsc	status,2,c
  7130  001382  EFC5  F009         	goto	u8641
  7131  001386  EFC7  F009         	goto	u8640
  7132  00138A                     u8641:
  7133  00138A  EFC8  F009         	goto	l9195
  7134  00138E                     u8640:
  7135  00138E                     
  7136                           ; BSR set to: 0
  7137  00138E  07DD               	decf	___fladd@bexp& (0+255),f,b
  7138  001390                     l9195:
  7139                           
  7140                           ; BSR set to: 0
  7141  001390  AFD1               	btfss	(___fladd@b+2)& (0+255),7,b
  7142  001392  EFCD  F009         	goto	u8651
  7143  001396  EFCF  F009         	goto	u8650
  7144  00139A                     u8651:
  7145  00139A  EFA5  F009         	goto	l9179
  7146  00139E                     u8650:
  7147  00139E                     l9197:
  7148                           
  7149                           ; BSR set to: 0
  7150  00139E  0E00               	movlw	0
  7151  0013A0  6FDC               	movwf	___fladd@aexp& (0+255),b
  7152  0013A2                     
  7153                           ; BSR set to: 0
  7154  0013A2  AFDE               	btfss	___fladd@grs& (0+255),7,b
  7155  0013A4  EFD6  F009         	goto	u8661
  7156  0013A8  EFD8  F009         	goto	u8660
  7157  0013AC                     u8661:
  7158  0013AC  EFF0  F009         	goto	l2473
  7159  0013B0                     u8660:
  7160  0013B0                     
  7161                           ; BSR set to: 0
  7162  0013B0  C0DE  F0D7         	movff	___fladd@grs,??___fladd
  7163  0013B4  0E7F               	movlw	127
  7164  0013B6  17D7               	andwf	??___fladd& (0+255),f,b
  7165  0013B8  B4D8               	btfsc	status,2,c
  7166  0013BA  EFE1  F009         	goto	u8671
  7167  0013BE  EFE3  F009         	goto	u8670
  7168  0013C2                     u8671:
  7169  0013C2  EFE7  F009         	goto	l2474
  7170  0013C6                     u8670:
  7171  0013C6                     l9203:
  7172                           
  7173                           ; BSR set to: 0
  7174  0013C6  0E01               	movlw	1
  7175  0013C8  6FDC               	movwf	___fladd@aexp& (0+255),b
  7176  0013CA  EFF0  F009         	goto	l2473
  7177  0013CE                     l2474:
  7178                           
  7179                           ; BSR set to: 0
  7180  0013CE  A1CF               	btfss	___fladd@b& (0+255),0,b
  7181  0013D0  EFEC  F009         	goto	u8681
  7182  0013D4  EFEE  F009         	goto	u8680
  7183  0013D8                     u8681:
  7184  0013D8  EFF0  F009         	goto	l2473
  7185  0013DC                     u8680:
  7186  0013DC  EFE3  F009         	goto	l9203
  7187  0013E0                     l2473:
  7188                           
  7189                           ; BSR set to: 0
  7190  0013E0  51DC               	movf	___fladd@aexp& (0+255),w,b
  7191  0013E2  B4D8               	btfsc	status,2,c
  7192  0013E4  EFF6  F009         	goto	u8691
  7193  0013E8  EFF8  F009         	goto	u8690
  7194  0013EC                     u8691:
  7195  0013EC  EF23  F00A         	goto	l9215
  7196  0013F0                     u8690:
  7197  0013F0                     
  7198                           ; BSR set to: 0
  7199  0013F0  0E01               	movlw	1
  7200  0013F2  27CF               	addwf	___fladd@b& (0+255),f,b
  7201  0013F4  0E00               	movlw	0
  7202  0013F6  23D0               	addwfc	(___fladd@b+1)& (0+255),f,b
  7203  0013F8  23D1               	addwfc	(___fladd@b+2)& (0+255),f,b
  7204  0013FA  23D2               	addwfc	(___fladd@b+3)& (0+255),f,b
  7205  0013FC                     
  7206                           ; BSR set to: 0
  7207  0013FC  A1D2               	btfss	(___fladd@b+3)& (0+255),0,b
  7208  0013FE  EF03  F00A         	goto	u8701
  7209  001402  EF05  F00A         	goto	u8700
  7210  001406                     u8701:
  7211  001406  EF23  F00A         	goto	l9215
  7212  00140A                     u8700:
  7213  00140A                     
  7214                           ; BSR set to: 0
  7215  00140A  C0CF  F0D7         	movff	___fladd@b,??___fladd
  7216  00140E  C0D0  F0D8         	movff	___fladd@b+1,??___fladd+1
  7217  001412  C0D1  F0D9         	movff	___fladd@b+2,??___fladd+2
  7218  001416  C0D2  F0DA         	movff	___fladd@b+3,??___fladd+3
  7219  00141A  35DA               	rlcf	(??___fladd+3)& (0+255),w,b
  7220  00141C  33DA               	rrcf	(??___fladd+3)& (0+255),f,b
  7221  00141E  33D9               	rrcf	(??___fladd+2)& (0+255),f,b
  7222  001420  33D8               	rrcf	(??___fladd+1)& (0+255),f,b
  7223  001422  33D7               	rrcf	??___fladd& (0+255),f,b
  7224  001424  C0D7  F0CF         	movff	??___fladd,___fladd@b
  7225  001428  C0D8  F0D0         	movff	??___fladd+1,___fladd@b+1
  7226  00142C  C0D9  F0D1         	movff	??___fladd+2,___fladd@b+2
  7227  001430  C0DA  F0D2         	movff	??___fladd+3,___fladd@b+3
  7228  001434  29DD               	incf	___fladd@bexp& (0+255),w,b
  7229  001436  B4D8               	btfsc	status,2,c
  7230  001438  EF20  F00A         	goto	u8711
  7231  00143C  EF22  F00A         	goto	u8710
  7232  001440                     u8711:
  7233  001440  EF23  F00A         	goto	l9215
  7234  001444                     u8710:
  7235  001444                     
  7236                           ; BSR set to: 0
  7237  001444  2BDD               	incf	___fladd@bexp& (0+255),f,b
  7238  001446                     l9215:
  7239                           
  7240                           ; BSR set to: 0
  7241  001446  29DD               	incf	___fladd@bexp& (0+255),w,b
  7242  001448  B4D8               	btfsc	status,2,c
  7243  00144A  EF29  F00A         	goto	u8721
  7244  00144E  EF2B  F00A         	goto	u8720
  7245  001452                     u8721:
  7246  001452  EF33  F00A         	goto	l9219
  7247  001456                     u8720:
  7248  001456                     
  7249                           ; BSR set to: 0
  7250  001456  51DD               	movf	___fladd@bexp& (0+255),w,b
  7251  001458  A4D8               	btfss	status,2,c
  7252  00145A  EF31  F00A         	goto	u8731
  7253  00145E  EF33  F00A         	goto	u8730
  7254  001462                     u8731:
  7255  001462  EF45  F00A         	goto	l9223
  7256  001466                     u8730:
  7257  001466                     l9219:
  7258                           
  7259                           ; BSR set to: 0
  7260  001466  0E00               	movlw	0
  7261  001468  6FCF               	movwf	___fladd@b& (0+255),b
  7262  00146A  0E00               	movlw	0
  7263  00146C  6FD0               	movwf	(___fladd@b+1)& (0+255),b
  7264  00146E  0E00               	movlw	0
  7265  001470  6FD1               	movwf	(___fladd@b+2)& (0+255),b
  7266  001472  0E00               	movlw	0
  7267  001474  6FD2               	movwf	(___fladd@b+3)& (0+255),b
  7268  001476  51DD               	movf	___fladd@bexp& (0+255),w,b
  7269  001478  A4D8               	btfss	status,2,c
  7270  00147A  EF41  F00A         	goto	u8741
  7271  00147E  EF43  F00A         	goto	u8740
  7272  001482                     u8741:
  7273  001482  EF45  F00A         	goto	l9223
  7274  001486                     u8740:
  7275  001486                     
  7276                           ; BSR set to: 0
  7277  001486  0E00               	movlw	0
  7278  001488  6FDB               	movwf	___fladd@signs& (0+255),b
  7279  00148A                     l9223:
  7280                           
  7281                           ; BSR set to: 0
  7282  00148A  A1DD               	btfss	___fladd@bexp& (0+255),0,b
  7283  00148C  EF4A  F00A         	goto	u8751
  7284  001490  EF4C  F00A         	goto	u8750
  7285  001494                     u8751:
  7286  001494  EF4F  F00A         	goto	l9227
  7287  001498                     u8750:
  7288  001498                     
  7289                           ; BSR set to: 0
  7290  001498  8FD1               	bsf	(___fladd@b+2)& (0+255),7,b
  7291  00149A  EF50  F00A         	goto	l9229
  7292  00149E                     l9227:
  7293                           
  7294                           ; BSR set to: 0
  7295  00149E  9FD1               	bcf	(___fladd@b+2)& (0+255),7,b
  7296  0014A0                     l9229:
  7297                           
  7298                           ; BSR set to: 0
  7299  0014A0  90D8               	bcf	status,0,c
  7300  0014A2  31DD               	rrcf	___fladd@bexp& (0+255),w,b
  7301  0014A4  6FD2               	movwf	(___fladd@b+3)& (0+255),b
  7302  0014A6                     
  7303                           ; BSR set to: 0
  7304  0014A6  AFDB               	btfss	___fladd@signs& (0+255),7,b
  7305  0014A8  EF58  F00A         	goto	u8761
  7306  0014AC  EF5A  F00A         	goto	u8760
  7307  0014B0                     u8761:
  7308  0014B0  EF5B  F00A         	goto	l9235
  7309  0014B4                     u8760:
  7310  0014B4                     
  7311                           ; BSR set to: 0
  7312  0014B4  8FD2               	bsf	(___fladd@b+3)& (0+255),7,b
  7313  0014B6                     l9235:
  7314                           
  7315                           ; BSR set to: 0
  7316  0014B6  C0CF  F0CF         	movff	___fladd@b,?___fladd
  7317  0014BA  C0D0  F0D0         	movff	___fladd@b+1,?___fladd+1
  7318  0014BE  C0D1  F0D1         	movff	___fladd@b+2,?___fladd+2
  7319  0014C2  C0D2  F0D2         	movff	___fladd@b+3,?___fladd+3
  7320  0014C6                     l2456:
  7321                           
  7322                           ; BSR set to: 0
  7323  0014C6  0012               	return		;funcret
  7324  0014C8                     __end_of___fladd:
  7325                           	callstack 0
  7326                           
  7327 ;; *************** function _INTERRUPT_InterruptManager *****************
  7328 ;; Defined at:
  7329 ;;		line 60 in file "mcc_generated_files/interrupt_manager.c"
  7330 ;; Parameters:    Size  Location     Type
  7331 ;;		None
  7332 ;; Auto vars:     Size  Location     Type
  7333 ;;		None
  7334 ;; Return value:  Size  Location     Type
  7335 ;;                  1    wreg      void 
  7336 ;; Registers used:
  7337 ;;		wreg, fsr2l, fsr2h, status,2, status,0, pcl, pclath, pclatu, tosl, prodl, prodh, cstack
  7338 ;; Tracked objects:
  7339 ;;		On entry : 0/0
  7340 ;;		On exit  : 0/0
  7341 ;;		Unchanged: 0/0
  7342 ;; Data sizes:     COMRAM   BANK0   BANK1   BANK2   BANK3   BANK4   BANK5   BANK6   BANK7   BANK8   BANK9  BANK10  BANK1
      +1  BANK12  BANK13  BANK14  BANK15
  7343 ;;      Params:         0       0       0       0       0       0       0       0       0       0       0       0       
      +0       0       0       0       0
  7344 ;;      Locals:         0       0       0       0       0       0       0       0       0       0       0       0       
      +0       0       0       0       0
  7345 ;;      Temps:          6       0       0       0       0       0       0       0       0       0       0       0       
      +0       0       0       0       0
  7346 ;;      Totals:         6       0       0       0       0       0       0       0       0       0       0       0       
      +0       0       0       0       0
  7347 ;;Total ram usage:        6 bytes
  7348 ;; Hardware stack levels used: 1
  7349 ;; Hardware stack levels required when called: 6
  7350 ;; This function calls:
  7351 ;;		Absolute function
  7352 ;;		_ADC_ISR
  7353 ;;		_I2C_Isr
  7354 ;;		_INT0_ISR
  7355 ;;		_INT1_ISR
  7356 ;;		_INT2_ISR
  7357 ;;		_RB4_ISR
  7358 ;;		_RB5_ISR
  7359 ;;		_RB6_ISR
  7360 ;;		_TMR0_ISR
  7361 ;; This function is called by:
  7362 ;;		Interrupt level 2
  7363 ;; This function uses a non-reentrant model
  7364 ;;
  7365                           
  7366                           	psect	intcode
  7367  000008                     __pintcode:
  7368                           	callstack 0
  7369  000008                     _INTERRUPT_InterruptManager:
  7370                           	callstack 20
  7371                           
  7372                           ; BSR set to: 0
  7373                           ;incstack = 0
  7374  000008  8266               	bsf	int$flags,1,c	;set compiler interrupt flag (level 2)
  7375  00000A  ED47  F00E         	call	int_func,f	;refresh shadow registers
  7376                           
  7377                           	psect	intcode_body
  7378  001C8E                     __pintcode_body:
  7379                           	callstack 20
  7380  001C8E                     int_func:
  7381                           	callstack 20
  7382  001C8E  0006               	pop		; remove dummy address from shadow register refresh
  7383  001C90  CFFA F014          	movff	pclath,??_INTERRUPT_InterruptManager
  7384  001C94  CFFB F015          	movff	pclatu,??_INTERRUPT_InterruptManager+1
  7385  001C98  CFD9 F016          	movff	fsr2l,??_INTERRUPT_InterruptManager+2
  7386  001C9C  CFDA F017          	movff	fsr2h,??_INTERRUPT_InterruptManager+3
  7387  001CA0  CFF3 F018          	movff	prodl,??_INTERRUPT_InterruptManager+4
  7388  001CA4  CFF4 F019          	movff	prodh,??_INTERRUPT_InterruptManager+5
  7389  001CA8                     
  7390                           ;mcc_generated_files/interrupt_manager.c: 63:     if((1 == INTCONbits.INT0IE) && (1 == I
      +                          NTCONbits.INT0IF)){
  7391  001CA8  A8F2               	btfss	242,4,c	;volatile
  7392  001CAA  EF59  F00E         	goto	i2u775_41
  7393  001CAE  EF5B  F00E         	goto	i2u775_40
  7394  001CB2                     i2u775_41:
  7395  001CB2  EF64  F00E         	goto	i2l8643
  7396  001CB6                     i2u775_40:
  7397  001CB6  A2F2               	btfss	242,1,c	;volatile
  7398  001CB8  EF60  F00E         	goto	i2u776_41
  7399  001CBC  EF62  F00E         	goto	i2u776_40
  7400  001CC0                     i2u776_41:
  7401  001CC0  EF64  F00E         	goto	i2l8643
  7402  001CC4                     i2u776_40:
  7403  001CC4                     
  7404                           ;mcc_generated_files/interrupt_manager.c: 64:         INT0_ISR();
  7405  001CC4  ECFE  F01C         	call	_INT0_ISR	;wreg free
  7406  001CC8                     i2l8643:
  7407                           
  7408                           ;mcc_generated_files/interrupt_manager.c: 66:     if((1 == INTCON3bits.INT1E) && (1 == I
      +                          NTCON3bits.INT1F)){
  7409  001CC8  A6F0               	btfss	240,3,c	;volatile
  7410  001CCA  EF69  F00E         	goto	i2u777_41
  7411  001CCE  EF6B  F00E         	goto	i2u777_40
  7412  001CD2                     i2u777_41:
  7413  001CD2  EF74  F00E         	goto	i2l8649
  7414  001CD6                     i2u777_40:
  7415  001CD6  A0F0               	btfss	240,0,c	;volatile
  7416  001CD8  EF70  F00E         	goto	i2u778_41
  7417  001CDC  EF72  F00E         	goto	i2u778_40
  7418  001CE0                     i2u778_41:
  7419  001CE0  EF74  F00E         	goto	i2l8649
  7420  001CE4                     i2u778_40:
  7421  001CE4                     
  7422                           ;mcc_generated_files/interrupt_manager.c: 67:         INT1_ISR();
  7423  001CE4  ECFC  F01C         	call	_INT1_ISR	;wreg free
  7424  001CE8                     i2l8649:
  7425                           
  7426                           ;mcc_generated_files/interrupt_manager.c: 69:     if((1 == INTCON3bits.INT2IE) && (1 == 
      +                          INTCON3bits.INT2IF)){
  7427  001CE8  A8F0               	btfss	240,4,c	;volatile
  7428  001CEA  EF79  F00E         	goto	i2u779_41
  7429  001CEE  EF7B  F00E         	goto	i2u779_40
  7430  001CF2                     i2u779_41:
  7431  001CF2  EF84  F00E         	goto	i2l8655
  7432  001CF6                     i2u779_40:
  7433  001CF6  A2F0               	btfss	240,1,c	;volatile
  7434  001CF8  EF80  F00E         	goto	i2u780_41
  7435  001CFC  EF82  F00E         	goto	i2u780_40
  7436  001D00                     i2u780_41:
  7437  001D00  EF84  F00E         	goto	i2l8655
  7438  001D04                     i2u780_40:
  7439  001D04                     
  7440                           ;mcc_generated_files/interrupt_manager.c: 70:         INT2_ISR();
  7441  001D04  ECFA  F01C         	call	_INT2_ISR	;wreg free
  7442  001D08                     i2l8655:
  7443                           
  7444                           ;mcc_generated_files/interrupt_manager.c: 74:     if(INTCONbits.PEIE == 1)
  7445  001D08  ACF2               	btfss	242,6,c	;volatile
  7446  001D0A  EF89  F00E         	goto	i2u781_41
  7447  001D0E  EF8B  F00E         	goto	i2u781_40
  7448  001D12                     i2u781_41:
  7449  001D12  EFB8  F00E         	goto	i2l1495
  7450  001D16                     i2u781_40:
  7451  001D16                     
  7452                           ;mcc_generated_files/interrupt_manager.c: 75:     {;mcc_generated_files/interrupt_manage
      +                          r.c: 76:         if(PIE2bits.BCLIE == 1 && PIR2bits.BCLIF == 1)
  7453  001D16  A6A0               	btfss	160,3,c	;volatile
  7454  001D18  EF90  F00E         	goto	i2u782_41
  7455  001D1C  EF92  F00E         	goto	i2u782_40
  7456  001D20                     i2u782_41:
  7457  001D20  EFA8  F00E         	goto	i2l1491
  7458  001D24                     i2u782_40:
  7459  001D24  A6A1               	btfss	161,3,c	;volatile
  7460  001D26  EF97  F00E         	goto	i2u783_41
  7461  001D2A  EF99  F00E         	goto	i2u783_40
  7462  001D2E                     i2u783_41:
  7463  001D2E  EFA8  F00E         	goto	i2l1491
  7464  001D32                     i2u783_40:
  7465  001D32                     i2l8661:
  7466                           
  7467                           ;mcc_generated_files/interrupt_manager.c: 77:         {;mcc_generated_files/interrupt_ma
      +                          nager.c: 78:             MSSP_InterruptHandler();
  7468  001D32  D802               	call	i2u784_48
  7469  001D34  EFA6  F00E         	goto	i2u784_49
  7470  001D38                     i2u784_48:
  7471  001D38  0005               	push	
  7472  001D3A  6EFA               	movwf	pclath,c
  7473  001D3C  0100               	movlb	0	; () banked
  7474  001D3E  518A               	movf	_MSSP_InterruptHandler& (0+255),w,b
  7475  001D40  6EFD               	movwf	tosl,c
  7476  001D42  518B               	movf	(_MSSP_InterruptHandler+1)& (0+255),w,b
  7477  001D44  6EFE               	movwf	tosh,c
  7478  001D46  6AFF               	clrf	tosu,c
  7479  001D48  50FA               	movf	pclath,w,c
  7480  001D4A  0012               	return		;indir
  7481  001D4C                     i2u784_49:
  7482                           
  7483                           ;mcc_generated_files/interrupt_manager.c: 79:         }
  7484  001D4C  EFB8  F00E         	goto	i2l1495
  7485  001D50                     i2l1491:
  7486  001D50  A69D               	btfss	157,3,c	;volatile
  7487  001D52  EFAD  F00E         	goto	i2u785_41
  7488  001D56  EFAF  F00E         	goto	i2u785_40
  7489  001D5A                     i2u785_41:
  7490  001D5A  EFB8  F00E         	goto	i2l1495
  7491  001D5E                     i2u785_40:
  7492  001D5E  A69E               	btfss	158,3,c	;volatile
  7493  001D60  EFB4  F00E         	goto	i2u786_41
  7494  001D64  EFB6  F00E         	goto	i2u786_40
  7495  001D68                     i2u786_41:
  7496  001D68  EFB8  F00E         	goto	i2l1495
  7497  001D6C                     i2u786_40:
  7498  001D6C  EF99  F00E         	goto	i2l8661
  7499  001D70                     i2l1495:
  7500                           
  7501                           ;mcc_generated_files/interrupt_manager.c: 97:     if((1 == INTCONbits.RBIE) && (1 == INT
      +                          CONbits.RBIF) &&
  7502  001D70  A6F2               	btfss	242,3,c	;volatile
  7503  001D72  EFBD  F00E         	goto	i2u787_41
  7504  001D76  EFBF  F00E         	goto	i2u787_40
  7505  001D7A                     i2u787_41:
  7506  001D7A  EFDA  F00E         	goto	i2l8677
  7507  001D7E                     i2u787_40:
  7508  001D7E  A0F2               	btfss	242,0,c	;volatile
  7509  001D80  EFC4  F00E         	goto	i2u788_41
  7510  001D84  EFC6  F00E         	goto	i2u788_40
  7511  001D88                     i2u788_41:
  7512  001D88  EFDA  F00E         	goto	i2l8677
  7513  001D8C                     i2u788_40:
  7514  001D8C  A881               	btfss	129,4,c	;volatile
  7515  001D8E  EFCB  F00E         	goto	i2u789_41
  7516  001D92  EFCD  F00E         	goto	i2u789_40
  7517  001D96                     i2u789_41:
  7518  001D96  EFDA  F00E         	goto	i2l8677
  7519  001D9A                     i2u789_40:
  7520  001D9A  045D               	decf	_RB4_Flag^0,w,c	;volatile
  7521  001D9C  A4D8               	btfss	status,2,c
  7522  001D9E  EFD3  F00E         	goto	i2u790_41
  7523  001DA2  EFD5  F00E         	goto	i2u790_40
  7524  001DA6                     i2u790_41:
  7525  001DA6  EFDA  F00E         	goto	i2l8677
  7526  001DAA                     i2u790_40:
  7527  001DAA                     
  7528                           ;mcc_generated_files/interrupt_manager.c: 98:        (PORTBbits.RB4 == HIGH) && (RB4_Fla
      +                          g == 1)){;mcc_generated_files/interrupt_manager.c: 99:         RB4_Flag = 0;
  7529  001DAA  0E00               	movlw	0
  7530  001DAC  6E5D               	movwf	_RB4_Flag^0,c	;volatile
  7531  001DAE                     
  7532                           ;mcc_generated_files/interrupt_manager.c: 100:         RB4_ISR(0);
  7533  001DAE  0E00               	movlw	0
  7534  001DB0  EC78  F01C         	call	_RB4_ISR
  7535  001DB4                     i2l8677:
  7536                           
  7537                           ;mcc_generated_files/interrupt_manager.c: 102:     if((1 == INTCONbits.RBIE) && (1 == IN
      +                          TCONbits.RBIF) &&
  7538  001DB4  A6F2               	btfss	242,3,c	;volatile
  7539  001DB6  EFDF  F00E         	goto	i2u791_41
  7540  001DBA  EFE1  F00E         	goto	i2u791_40
  7541  001DBE                     i2u791_41:
  7542  001DBE  EFFC  F00E         	goto	i2l8689
  7543  001DC2                     i2u791_40:
  7544  001DC2  A0F2               	btfss	242,0,c	;volatile
  7545  001DC4  EFE6  F00E         	goto	i2u792_41
  7546  001DC8  EFE8  F00E         	goto	i2u792_40
  7547  001DCC                     i2u792_41:
  7548  001DCC  EFFC  F00E         	goto	i2l8689
  7549  001DD0                     i2u792_40:
  7550  001DD0  B881               	btfsc	129,4,c	;volatile
  7551  001DD2  EFED  F00E         	goto	i2u793_41
  7552  001DD6  EFEF  F00E         	goto	i2u793_40
  7553  001DDA                     i2u793_41:
  7554  001DDA  EFFC  F00E         	goto	i2l8689
  7555  001DDE                     i2u793_40:
  7556  001DDE  505D               	movf	_RB4_Flag^0,w,c	;volatile
  7557  001DE0  A4D8               	btfss	status,2,c
  7558  001DE2  EFF5  F00E         	goto	i2u794_41
  7559  001DE6  EFF7  F00E         	goto	i2u794_40
  7560  001DEA                     i2u794_41:
  7561  001DEA  EFFC  F00E         	goto	i2l8689
  7562  001DEE                     i2u794_40:
  7563  001DEE                     
  7564                           ;mcc_generated_files/interrupt_manager.c: 103:        (PORTBbits.RB4 == LOW) && (RB4_Fla
      +                          g == 0)){;mcc_generated_files/interrupt_manager.c: 104:         RB4_Flag = 1;
  7565  001DEE  0E01               	movlw	1
  7566  001DF0  6E5D               	movwf	_RB4_Flag^0,c	;volatile
  7567  001DF2                     
  7568                           ;mcc_generated_files/interrupt_manager.c: 105:         RB4_ISR(1);
  7569  001DF2  0E01               	movlw	1
  7570  001DF4  EC78  F01C         	call	_RB4_ISR
  7571  001DF8                     i2l8689:
  7572                           
  7573                           ;mcc_generated_files/interrupt_manager.c: 107:     if((1 == INTCONbits.RBIE) && (1 == IN
      +                          TCONbits.RBIF) &&
  7574  001DF8  A6F2               	btfss	242,3,c	;volatile
  7575  001DFA  EF01  F00F         	goto	i2u795_41
  7576  001DFE  EF03  F00F         	goto	i2u795_40
  7577  001E02                     i2u795_41:
  7578  001E02  EF1E  F00F         	goto	i2l8701
  7579  001E06                     i2u795_40:
  7580  001E06  A0F2               	btfss	242,0,c	;volatile
  7581  001E08  EF08  F00F         	goto	i2u796_41
  7582  001E0C  EF0A  F00F         	goto	i2u796_40
  7583  001E10                     i2u796_41:
  7584  001E10  EF1E  F00F         	goto	i2l8701
  7585  001E14                     i2u796_40:
  7586  001E14  AA81               	btfss	129,5,c	;volatile
  7587  001E16  EF0F  F00F         	goto	i2u797_41
  7588  001E1A  EF11  F00F         	goto	i2u797_40
  7589  001E1E                     i2u797_41:
  7590  001E1E  EF1E  F00F         	goto	i2l8701
  7591  001E22                     i2u797_40:
  7592  001E22  045C               	decf	_RB5_Flag^0,w,c	;volatile
  7593  001E24  A4D8               	btfss	status,2,c
  7594  001E26  EF17  F00F         	goto	i2u798_41
  7595  001E2A  EF19  F00F         	goto	i2u798_40
  7596  001E2E                     i2u798_41:
  7597  001E2E  EF1E  F00F         	goto	i2l8701
  7598  001E32                     i2u798_40:
  7599  001E32                     
  7600                           ;mcc_generated_files/interrupt_manager.c: 108:        (PORTBbits.RB5 == HIGH) && (RB5_Fl
      +                          ag == 1)){;mcc_generated_files/interrupt_manager.c: 109:         RB5_Flag = 0;
  7601  001E32  0E00               	movlw	0
  7602  001E34  6E5C               	movwf	_RB5_Flag^0,c	;volatile
  7603  001E36                     
  7604                           ;mcc_generated_files/interrupt_manager.c: 110:         RB5_ISR(0);
  7605  001E36  0E00               	movlw	0
  7606  001E38  EC6B  F01C         	call	_RB5_ISR
  7607  001E3C                     i2l8701:
  7608                           
  7609                           ;mcc_generated_files/interrupt_manager.c: 112:     if((1 == INTCONbits.RBIE) && (1 == IN
      +                          TCONbits.RBIF) &&
  7610  001E3C  A6F2               	btfss	242,3,c	;volatile
  7611  001E3E  EF23  F00F         	goto	i2u799_41
  7612  001E42  EF25  F00F         	goto	i2u799_40
  7613  001E46                     i2u799_41:
  7614  001E46  EF40  F00F         	goto	i2l8713
  7615  001E4A                     i2u799_40:
  7616  001E4A  A0F2               	btfss	242,0,c	;volatile
  7617  001E4C  EF2A  F00F         	goto	i2u800_41
  7618  001E50  EF2C  F00F         	goto	i2u800_40
  7619  001E54                     i2u800_41:
  7620  001E54  EF40  F00F         	goto	i2l8713
  7621  001E58                     i2u800_40:
  7622  001E58  BA81               	btfsc	129,5,c	;volatile
  7623  001E5A  EF31  F00F         	goto	i2u801_41
  7624  001E5E  EF33  F00F         	goto	i2u801_40
  7625  001E62                     i2u801_41:
  7626  001E62  EF40  F00F         	goto	i2l8713
  7627  001E66                     i2u801_40:
  7628  001E66  505C               	movf	_RB5_Flag^0,w,c	;volatile
  7629  001E68  A4D8               	btfss	status,2,c
  7630  001E6A  EF39  F00F         	goto	i2u802_41
  7631  001E6E  EF3B  F00F         	goto	i2u802_40
  7632  001E72                     i2u802_41:
  7633  001E72  EF40  F00F         	goto	i2l8713
  7634  001E76                     i2u802_40:
  7635  001E76                     
  7636                           ;mcc_generated_files/interrupt_manager.c: 113:        (PORTBbits.RB5 == LOW) && (RB5_Fla
      +                          g == 0)){;mcc_generated_files/interrupt_manager.c: 114:         RB5_Flag = 1;
  7637  001E76  0E01               	movlw	1
  7638  001E78  6E5C               	movwf	_RB5_Flag^0,c	;volatile
  7639  001E7A                     
  7640                           ;mcc_generated_files/interrupt_manager.c: 115:         RB5_ISR(1);
  7641  001E7A  0E01               	movlw	1
  7642  001E7C  EC6B  F01C         	call	_RB5_ISR
  7643  001E80                     i2l8713:
  7644                           
  7645                           ;mcc_generated_files/interrupt_manager.c: 117:     if((1 == INTCONbits.RBIE) && (1 == IN
      +                          TCONbits.RBIF) &&
  7646  001E80  A6F2               	btfss	242,3,c	;volatile
  7647  001E82  EF45  F00F         	goto	i2u803_41
  7648  001E86  EF47  F00F         	goto	i2u803_40
  7649  001E8A                     i2u803_41:
  7650  001E8A  EF62  F00F         	goto	i2l8725
  7651  001E8E                     i2u803_40:
  7652  001E8E  A0F2               	btfss	242,0,c	;volatile
  7653  001E90  EF4C  F00F         	goto	i2u804_41
  7654  001E94  EF4E  F00F         	goto	i2u804_40
  7655  001E98                     i2u804_41:
  7656  001E98  EF62  F00F         	goto	i2l8725
  7657  001E9C                     i2u804_40:
  7658  001E9C  AC81               	btfss	129,6,c	;volatile
  7659  001E9E  EF53  F00F         	goto	i2u805_41
  7660  001EA2  EF55  F00F         	goto	i2u805_40
  7661  001EA6                     i2u805_41:
  7662  001EA6  EF62  F00F         	goto	i2l8725
  7663  001EAA                     i2u805_40:
  7664  001EAA  045B               	decf	_RB6_Flag^0,w,c	;volatile
  7665  001EAC  A4D8               	btfss	status,2,c
  7666  001EAE  EF5B  F00F         	goto	i2u806_41
  7667  001EB2  EF5D  F00F         	goto	i2u806_40
  7668  001EB6                     i2u806_41:
  7669  001EB6  EF62  F00F         	goto	i2l8725
  7670  001EBA                     i2u806_40:
  7671  001EBA                     
  7672                           ;mcc_generated_files/interrupt_manager.c: 118:        (PORTBbits.RB6 == HIGH) && (RB6_Fl
      +                          ag == 1)){;mcc_generated_files/interrupt_manager.c: 119:         RB6_Flag = 0;
  7673  001EBA  0E00               	movlw	0
  7674  001EBC  6E5B               	movwf	_RB6_Flag^0,c	;volatile
  7675  001EBE                     
  7676                           ;mcc_generated_files/interrupt_manager.c: 120:         RB6_ISR(0);
  7677  001EBE  0E00               	movlw	0
  7678  001EC0  EC5E  F01C         	call	_RB6_ISR
  7679  001EC4                     i2l8725:
  7680                           
  7681                           ;mcc_generated_files/interrupt_manager.c: 122:     if((1 == INTCONbits.RBIE) && (1 == IN
      +                          TCONbits.RBIF) &&
  7682  001EC4  A6F2               	btfss	242,3,c	;volatile
  7683  001EC6  EF67  F00F         	goto	i2u807_41
  7684  001ECA  EF69  F00F         	goto	i2u807_40
  7685  001ECE                     i2u807_41:
  7686  001ECE  EF84  F00F         	goto	i2l8737
  7687  001ED2                     i2u807_40:
  7688  001ED2  A0F2               	btfss	242,0,c	;volatile
  7689  001ED4  EF6E  F00F         	goto	i2u808_41
  7690  001ED8  EF70  F00F         	goto	i2u808_40
  7691  001EDC                     i2u808_41:
  7692  001EDC  EF84  F00F         	goto	i2l8737
  7693  001EE0                     i2u808_40:
  7694  001EE0  BC81               	btfsc	129,6,c	;volatile
  7695  001EE2  EF75  F00F         	goto	i2u809_41
  7696  001EE6  EF77  F00F         	goto	i2u809_40
  7697  001EEA                     i2u809_41:
  7698  001EEA  EF84  F00F         	goto	i2l8737
  7699  001EEE                     i2u809_40:
  7700  001EEE  505B               	movf	_RB6_Flag^0,w,c	;volatile
  7701  001EF0  A4D8               	btfss	status,2,c
  7702  001EF2  EF7D  F00F         	goto	i2u810_41
  7703  001EF6  EF7F  F00F         	goto	i2u810_40
  7704  001EFA                     i2u810_41:
  7705  001EFA  EF84  F00F         	goto	i2l8737
  7706  001EFE                     i2u810_40:
  7707  001EFE                     
  7708                           ;mcc_generated_files/interrupt_manager.c: 123:        (PORTBbits.RB6 == LOW) && (RB6_Fla
      +                          g == 0)){;mcc_generated_files/interrupt_manager.c: 124:         RB6_Flag = 1;
  7709  001EFE  0E01               	movlw	1
  7710  001F00  6E5B               	movwf	_RB6_Flag^0,c	;volatile
  7711  001F02                     
  7712                           ;mcc_generated_files/interrupt_manager.c: 125:         RB6_ISR(1);
  7713  001F02  0E01               	movlw	1
  7714  001F04  EC5E  F01C         	call	_RB6_ISR
  7715  001F08                     i2l8737:
  7716                           
  7717                           ;mcc_generated_files/interrupt_manager.c: 130:     if((1 == PIE1bits.ADIE) && (1 == PIR1
      +                          bits.ADIF)){
  7718  001F08  AC9D               	btfss	157,6,c	;volatile
  7719  001F0A  EF89  F00F         	goto	i2u811_41
  7720  001F0E  EF8B  F00F         	goto	i2u811_40
  7721  001F12                     i2u811_41:
  7722  001F12  EF94  F00F         	goto	i2l8743
  7723  001F16                     i2u811_40:
  7724  001F16  AC9E               	btfss	158,6,c	;volatile
  7725  001F18  EF90  F00F         	goto	i2u812_41
  7726  001F1C  EF92  F00F         	goto	i2u812_40
  7727  001F20                     i2u812_41:
  7728  001F20  EF94  F00F         	goto	i2l8743
  7729  001F24                     i2u812_40:
  7730  001F24                     
  7731                           ;mcc_generated_files/interrupt_manager.c: 131:         ADC_ISR();
  7732  001F24  EC06  F01D         	call	_ADC_ISR	;wreg free
  7733  001F28                     i2l8743:
  7734                           
  7735                           ;mcc_generated_files/interrupt_manager.c: 135:     if((1 == INTCONbits.T0IE) && (1 == IN
      +                          TCONbits.T0IF)){
  7736  001F28  AAF2               	btfss	242,5,c	;volatile
  7737  001F2A  EF99  F00F         	goto	i2u813_41
  7738  001F2E  EF9B  F00F         	goto	i2u813_40
  7739  001F32                     i2u813_41:
  7740  001F32  EFA4  F00F         	goto	i2l1504
  7741  001F36                     i2u813_40:
  7742  001F36  A4F2               	btfss	242,2,c	;volatile
  7743  001F38  EFA0  F00F         	goto	i2u814_41
  7744  001F3C  EFA2  F00F         	goto	i2u814_40
  7745  001F40                     i2u814_41:
  7746  001F40  EFA4  F00F         	goto	i2l1504
  7747  001F44                     i2u814_40:
  7748  001F44                     
  7749                           ;mcc_generated_files/interrupt_manager.c: 136:         TMR0_ISR();
  7750  001F44  ECB5  F01C         	call	_TMR0_ISR	;wreg free
  7751  001F48                     i2l1504:
  7752  001F48  C019  FFF4         	movff	??_INTERRUPT_InterruptManager+5,prodh
  7753  001F4C  C018  FFF3         	movff	??_INTERRUPT_InterruptManager+4,prodl
  7754  001F50  C017  FFDA         	movff	??_INTERRUPT_InterruptManager+3,fsr2h
  7755  001F54  C016  FFD9         	movff	??_INTERRUPT_InterruptManager+2,fsr2l
  7756  001F58  C015  FFFB         	movff	??_INTERRUPT_InterruptManager+1,pclatu
  7757  001F5C  C014  FFFA         	movff	??_INTERRUPT_InterruptManager,pclath
  7758  001F60  9266               	bcf	int$flags,1,c	;clear compiler interrupt flag (level 2)
  7759  001F62  0011               	retfie		f
  7760  001F64                     __end_of_INTERRUPT_InterruptManager:
  7761                           	callstack 0
  7762                           
  7763 ;; *************** function _TMR0_ISR *****************
  7764 ;; Defined at:
  7765 ;;		line 192 in file "MCAL/TIMER0/timer0.c"
  7766 ;; Parameters:    Size  Location     Type
  7767 ;;		None
  7768 ;; Auto vars:     Size  Location     Type
  7769 ;;		None
  7770 ;; Return value:  Size  Location     Type
  7771 ;;                  1    wreg      void 
  7772 ;; Registers used:
  7773 ;;		wreg, status,2
  7774 ;; Tracked objects:
  7775 ;;		On entry : 0/0
  7776 ;;		On exit  : 0/0
  7777 ;;		Unchanged: 0/0
  7778 ;; Data sizes:     COMRAM   BANK0   BANK1   BANK2   BANK3   BANK4   BANK5   BANK6   BANK7   BANK8   BANK9  BANK10  BANK1
      +1  BANK12  BANK13  BANK14  BANK15
  7779 ;;      Params:         0       0       0       0       0       0       0       0       0       0       0       0       
      +0       0       0       0       0
  7780 ;;      Locals:         0       0       0       0       0       0       0       0       0       0       0       0       
      +0       0       0       0       0
  7781 ;;      Temps:          0       0       0       0       0       0       0       0       0       0       0       0       
      +0       0       0       0       0
  7782 ;;      Totals:         0       0       0       0       0       0       0       0       0       0       0       0       
      +0       0       0       0       0
  7783 ;;Total ram usage:        0 bytes
  7784 ;; Hardware stack levels used: 1
  7785 ;; This function calls:
  7786 ;;		Nothing
  7787 ;; This function is called by:
  7788 ;;		_INTERRUPT_InterruptManager
  7789 ;; This function uses a non-reentrant model
  7790 ;;
  7791                           
  7792                           	psect	text41
  7793  00396A                     __ptext41:
  7794                           	callstack 0
  7795  00396A                     _TMR0_ISR:
  7796                           	callstack 25
  7797  00396A                     
  7798                           ;MCAL/TIMER0/timer0.c: 194:     (INTCONbits.TMR0IF = 0);
  7799  00396A  94F2               	bcf	242,2,c	;volatile
  7800  00396C                     
  7801                           ;MCAL/TIMER0/timer0.c: 196:     TMR0H = (timer0_preload) >> 8;
  7802  00396C  0100               	movlb	0	; () banked
  7803  00396E  519F               	movf	(_timer0_preload+1)& (0+255),w,b
  7804  003970  6ED7               	movwf	215,c	;volatile
  7805  003972                     
  7806                           ; BSR set to: 0
  7807                           ;MCAL/TIMER0/timer0.c: 197:     TMR0L = (uint8)(timer0_preload);
  7808  003972  C09E  FFD6         	movff	_timer0_preload,4054	;volatile
  7809  003976                     
  7810                           ; BSR set to: 0
  7811  003976  0012               	return		;funcret
  7812  003978                     __end_of_TMR0_ISR:
  7813                           	callstack 0
  7814                           
  7815 ;; *************** function _RB6_ISR *****************
  7816 ;; Defined at:
  7817 ;;		line 511 in file "MCAL/INTERRUPT/mcal_external_interrupt.c"
  7818 ;; Parameters:    Size  Location     Type
  7819 ;;  RB6_Source      1    wreg     unsigned char 
  7820 ;; Auto vars:     Size  Location     Type
  7821 ;;  RB6_Source      1    0[COMRAM] unsigned char 
  7822 ;; Return value:  Size  Location     Type
  7823 ;;                  1    wreg      void 
  7824 ;; Registers used:
  7825 ;;		wreg, status,2, status,0
  7826 ;; Tracked objects:
  7827 ;;		On entry : 0/0
  7828 ;;		On exit  : 0/0
  7829 ;;		Unchanged: 0/0
  7830 ;; Data sizes:     COMRAM   BANK0   BANK1   BANK2   BANK3   BANK4   BANK5   BANK6   BANK7   BANK8   BANK9  BANK10  BANK1
      +1  BANK12  BANK13  BANK14  BANK15
  7831 ;;      Params:         0       0       0       0       0       0       0       0       0       0       0       0       
      +0       0       0       0       0
  7832 ;;      Locals:         1       0       0       0       0       0       0       0       0       0       0       0       
      +0       0       0       0       0
  7833 ;;      Temps:          0       0       0       0       0       0       0       0       0       0       0       0       
      +0       0       0       0       0
  7834 ;;      Totals:         1       0       0       0       0       0       0       0       0       0       0       0       
      +0       0       0       0       0
  7835 ;;Total ram usage:        1 bytes
  7836 ;; Hardware stack levels used: 1
  7837 ;; This function calls:
  7838 ;;		Nothing
  7839 ;; This function is called by:
  7840 ;;		_INTERRUPT_InterruptManager
  7841 ;; This function uses a non-reentrant model
  7842 ;;
  7843                           
  7844                           	psect	text42
  7845  0038BC                     __ptext42:
  7846                           	callstack 0
  7847  0038BC                     _RB6_ISR:
  7848                           	callstack 25
  7849                           
  7850                           ; BSR set to: 0
  7851                           ;incstack = 0
  7852                           ;RB6_ISR@RB6_Source stored from wreg
  7853  0038BC  6E01               	movwf	RB6_ISR@RB6_Source^0,c
  7854  0038BE                     
  7855                           ;MCAL/INTERRUPT/mcal_external_interrupt.c: 513:     (INTCONbits.RBIF=0);
  7856  0038BE  90F2               	bcf	242,0,c	;volatile
  7857  0038C0                     
  7858                           ;MCAL/INTERRUPT/mcal_external_interrupt.c: 515:     if(0 == RB6_Source){
  7859  0038C0  5001               	movf	RB6_ISR@RB6_Source^0,w,c
  7860  0038C2  A4D8               	btfss	status,2,c
  7861  0038C4  EF66  F01C         	goto	i2u650_41
  7862  0038C8  EF68  F01C         	goto	i2u650_40
  7863  0038CC                     i2u650_41:
  7864  0038CC  EF6A  F01C         	goto	i2l7435
  7865  0038D0                     i2u650_40:
  7866  0038D0  EF6A  F01C         	goto	i2l929
  7867  0038D4                     i2l7435:
  7868  0038D4                     i2l929:
  7869  0038D4  0012               	return		;funcret
  7870  0038D6                     __end_of_RB6_ISR:
  7871                           	callstack 0
  7872                           
  7873 ;; *************** function _RB5_ISR *****************
  7874 ;; Defined at:
  7875 ;;		line 496 in file "MCAL/INTERRUPT/mcal_external_interrupt.c"
  7876 ;; Parameters:    Size  Location     Type
  7877 ;;  RB5_Source      1    wreg     unsigned char 
  7878 ;; Auto vars:     Size  Location     Type
  7879 ;;  RB5_Source      1    0[COMRAM] unsigned char 
  7880 ;; Return value:  Size  Location     Type
  7881 ;;                  1    wreg      void 
  7882 ;; Registers used:
  7883 ;;		wreg, status,2, status,0
  7884 ;; Tracked objects:
  7885 ;;		On entry : 0/0
  7886 ;;		On exit  : 0/0
  7887 ;;		Unchanged: 0/0
  7888 ;; Data sizes:     COMRAM   BANK0   BANK1   BANK2   BANK3   BANK4   BANK5   BANK6   BANK7   BANK8   BANK9  BANK10  BANK1
      +1  BANK12  BANK13  BANK14  BANK15
  7889 ;;      Params:         0       0       0       0       0       0       0       0       0       0       0       0       
      +0       0       0       0       0
  7890 ;;      Locals:         1       0       0       0       0       0       0       0       0       0       0       0       
      +0       0       0       0       0
  7891 ;;      Temps:          0       0       0       0       0       0       0       0       0       0       0       0       
      +0       0       0       0       0
  7892 ;;      Totals:         1       0       0       0       0       0       0       0       0       0       0       0       
      +0       0       0       0       0
  7893 ;;Total ram usage:        1 bytes
  7894 ;; Hardware stack levels used: 1
  7895 ;; This function calls:
  7896 ;;		Nothing
  7897 ;; This function is called by:
  7898 ;;		_INTERRUPT_InterruptManager
  7899 ;; This function uses a non-reentrant model
  7900 ;;
  7901                           
  7902                           	psect	text43
  7903  0038D6                     __ptext43:
  7904                           	callstack 0
  7905  0038D6                     _RB5_ISR:
  7906                           	callstack 25
  7907                           
  7908                           ;incstack = 0
  7909                           ;RB5_ISR@RB5_Source stored from wreg
  7910  0038D6  6E01               	movwf	RB5_ISR@RB5_Source^0,c
  7911  0038D8                     
  7912                           ;MCAL/INTERRUPT/mcal_external_interrupt.c: 498:     (INTCONbits.RBIF=0);
  7913  0038D8  90F2               	bcf	242,0,c	;volatile
  7914  0038DA                     
  7915                           ;MCAL/INTERRUPT/mcal_external_interrupt.c: 500:     if(0 == RB5_Source){
  7916  0038DA  5001               	movf	RB5_ISR@RB5_Source^0,w,c
  7917  0038DC  A4D8               	btfss	status,2,c
  7918  0038DE  EF73  F01C         	goto	i2u649_41
  7919  0038E2  EF75  F01C         	goto	i2u649_40
  7920  0038E6                     i2u649_41:
  7921  0038E6  EF77  F01C         	goto	i2l7425
  7922  0038EA                     i2u649_40:
  7923  0038EA  EF77  F01C         	goto	i2l921
  7924  0038EE                     i2l7425:
  7925  0038EE                     i2l921:
  7926  0038EE  0012               	return		;funcret
  7927  0038F0                     __end_of_RB5_ISR:
  7928                           	callstack 0
  7929                           
  7930 ;; *************** function _RB4_ISR *****************
  7931 ;; Defined at:
  7932 ;;		line 481 in file "MCAL/INTERRUPT/mcal_external_interrupt.c"
  7933 ;; Parameters:    Size  Location     Type
  7934 ;;  RB4_Source      1    wreg     unsigned char 
  7935 ;; Auto vars:     Size  Location     Type
  7936 ;;  RB4_Source      1    0[COMRAM] unsigned char 
  7937 ;; Return value:  Size  Location     Type
  7938 ;;                  1    wreg      void 
  7939 ;; Registers used:
  7940 ;;		wreg, status,2, status,0
  7941 ;; Tracked objects:
  7942 ;;		On entry : 0/0
  7943 ;;		On exit  : 0/0
  7944 ;;		Unchanged: 0/0
  7945 ;; Data sizes:     COMRAM   BANK0   BANK1   BANK2   BANK3   BANK4   BANK5   BANK6   BANK7   BANK8   BANK9  BANK10  BANK1
      +1  BANK12  BANK13  BANK14  BANK15
  7946 ;;      Params:         0       0       0       0       0       0       0       0       0       0       0       0       
      +0       0       0       0       0
  7947 ;;      Locals:         1       0       0       0       0       0       0       0       0       0       0       0       
      +0       0       0       0       0
  7948 ;;      Temps:          0       0       0       0       0       0       0       0       0       0       0       0       
      +0       0       0       0       0
  7949 ;;      Totals:         1       0       0       0       0       0       0       0       0       0       0       0       
      +0       0       0       0       0
  7950 ;;Total ram usage:        1 bytes
  7951 ;; Hardware stack levels used: 1
  7952 ;; This function calls:
  7953 ;;		Nothing
  7954 ;; This function is called by:
  7955 ;;		_INTERRUPT_InterruptManager
  7956 ;; This function uses a non-reentrant model
  7957 ;;
  7958                           
  7959                           	psect	text44
  7960  0038F0                     __ptext44:
  7961                           	callstack 0
  7962  0038F0                     _RB4_ISR:
  7963                           	callstack 25
  7964                           
  7965                           ;incstack = 0
  7966                           ;RB4_ISR@RB4_Source stored from wreg
  7967  0038F0  6E01               	movwf	RB4_ISR@RB4_Source^0,c
  7968  0038F2                     
  7969                           ;MCAL/INTERRUPT/mcal_external_interrupt.c: 483:     (INTCONbits.RBIF=0);
  7970  0038F2  90F2               	bcf	242,0,c	;volatile
  7971  0038F4                     
  7972                           ;MCAL/INTERRUPT/mcal_external_interrupt.c: 485:     if(0 == RB4_Source){
  7973  0038F4  5001               	movf	RB4_ISR@RB4_Source^0,w,c
  7974  0038F6  A4D8               	btfss	status,2,c
  7975  0038F8  EF80  F01C         	goto	i2u648_41
  7976  0038FC  EF82  F01C         	goto	i2u648_40
  7977  003900                     i2u648_41:
  7978  003900  EF84  F01C         	goto	i2l7415
  7979  003904                     i2u648_40:
  7980  003904  EF84  F01C         	goto	i2l913
  7981  003908                     i2l7415:
  7982  003908                     i2l913:
  7983  003908  0012               	return		;funcret
  7984  00390A                     __end_of_RB4_ISR:
  7985                           	callstack 0
  7986                           
  7987 ;; *************** function _INT2_ISR *****************
  7988 ;; Defined at:
  7989 ;;		line 107 in file "MCAL/INTERRUPT/mcal_external_interrupt.c"
  7990 ;; Parameters:    Size  Location     Type
  7991 ;;		None
  7992 ;; Auto vars:     Size  Location     Type
  7993 ;;		None
  7994 ;; Return value:  Size  Location     Type
  7995 ;;                  1    wreg      void 
  7996 ;; Registers used:
  7997 ;;		None
  7998 ;; Tracked objects:
  7999 ;;		On entry : 0/0
  8000 ;;		On exit  : 0/0
  8001 ;;		Unchanged: 0/0
  8002 ;; Data sizes:     COMRAM   BANK0   BANK1   BANK2   BANK3   BANK4   BANK5   BANK6   BANK7   BANK8   BANK9  BANK10  BANK1
      +1  BANK12  BANK13  BANK14  BANK15
  8003 ;;      Params:         0       0       0       0       0       0       0       0       0       0       0       0       
      +0       0       0       0       0
  8004 ;;      Locals:         0       0       0       0       0       0       0       0       0       0       0       0       
      +0       0       0       0       0
  8005 ;;      Temps:          0       0       0       0       0       0       0       0       0       0       0       0       
      +0       0       0       0       0
  8006 ;;      Totals:         0       0       0       0       0       0       0       0       0       0       0       0       
      +0       0       0       0       0
  8007 ;;Total ram usage:        0 bytes
  8008 ;; Hardware stack levels used: 1
  8009 ;; This function calls:
  8010 ;;		Nothing
  8011 ;; This function is called by:
  8012 ;;		_INTERRUPT_InterruptManager
  8013 ;; This function uses a non-reentrant model
  8014 ;;
  8015                           
  8016                           	psect	text45
  8017  0039F4                     __ptext45:
  8018                           	callstack 0
  8019  0039F4                     _INT2_ISR:
  8020                           	callstack 25
  8021  0039F4                     
  8022                           ;MCAL/INTERRUPT/mcal_external_interrupt.c: 109:     (INTCON3bits.INT2F=0);
  8023  0039F4  92F0               	bcf	240,1,c	;volatile
  8024  0039F6  0012               	return		;funcret
  8025  0039F8                     __end_of_INT2_ISR:
  8026                           	callstack 0
  8027                           
  8028 ;; *************** function _INT1_ISR *****************
  8029 ;; Defined at:
  8030 ;;		line 98 in file "MCAL/INTERRUPT/mcal_external_interrupt.c"
  8031 ;; Parameters:    Size  Location     Type
  8032 ;;		None
  8033 ;; Auto vars:     Size  Location     Type
  8034 ;;		None
  8035 ;; Return value:  Size  Location     Type
  8036 ;;                  1    wreg      void 
  8037 ;; Registers used:
  8038 ;;		None
  8039 ;; Tracked objects:
  8040 ;;		On entry : 0/0
  8041 ;;		On exit  : 0/0
  8042 ;;		Unchanged: 0/0
  8043 ;; Data sizes:     COMRAM   BANK0   BANK1   BANK2   BANK3   BANK4   BANK5   BANK6   BANK7   BANK8   BANK9  BANK10  BANK1
      +1  BANK12  BANK13  BANK14  BANK15
  8044 ;;      Params:         0       0       0       0       0       0       0       0       0       0       0       0       
      +0       0       0       0       0
  8045 ;;      Locals:         0       0       0       0       0       0       0       0       0       0       0       0       
      +0       0       0       0       0
  8046 ;;      Temps:          0       0       0       0       0       0       0       0       0       0       0       0       
      +0       0       0       0       0
  8047 ;;      Totals:         0       0       0       0       0       0       0       0       0       0       0       0       
      +0       0       0       0       0
  8048 ;;Total ram usage:        0 bytes
  8049 ;; Hardware stack levels used: 1
  8050 ;; This function calls:
  8051 ;;		Nothing
  8052 ;; This function is called by:
  8053 ;;		_INTERRUPT_InterruptManager
  8054 ;; This function uses a non-reentrant model
  8055 ;;
  8056                           
  8057                           	psect	text46
  8058  0039F8                     __ptext46:
  8059                           	callstack 0
  8060  0039F8                     _INT1_ISR:
  8061                           	callstack 25
  8062  0039F8                     
  8063                           ;MCAL/INTERRUPT/mcal_external_interrupt.c: 100:     (INTCON3bits.INT1F=0);
  8064  0039F8  90F0               	bcf	240,0,c	;volatile
  8065  0039FA  0012               	return		;funcret
  8066  0039FC                     __end_of_INT1_ISR:
  8067                           	callstack 0
  8068                           
  8069 ;; *************** function _INT0_ISR *****************
  8070 ;; Defined at:
  8071 ;;		line 89 in file "MCAL/INTERRUPT/mcal_external_interrupt.c"
  8072 ;; Parameters:    Size  Location     Type
  8073 ;;		None
  8074 ;; Auto vars:     Size  Location     Type
  8075 ;;		None
  8076 ;; Return value:  Size  Location     Type
  8077 ;;                  1    wreg      void 
  8078 ;; Registers used:
  8079 ;;		None
  8080 ;; Tracked objects:
  8081 ;;		On entry : 0/0
  8082 ;;		On exit  : 0/0
  8083 ;;		Unchanged: 0/0
  8084 ;; Data sizes:     COMRAM   BANK0   BANK1   BANK2   BANK3   BANK4   BANK5   BANK6   BANK7   BANK8   BANK9  BANK10  BANK1
      +1  BANK12  BANK13  BANK14  BANK15
  8085 ;;      Params:         0       0       0       0       0       0       0       0       0       0       0       0       
      +0       0       0       0       0
  8086 ;;      Locals:         0       0       0       0       0       0       0       0       0       0       0       0       
      +0       0       0       0       0
  8087 ;;      Temps:          0       0       0       0       0       0       0       0       0       0       0       0       
      +0       0       0       0       0
  8088 ;;      Totals:         0       0       0       0       0       0       0       0       0       0       0       0       
      +0       0       0       0       0
  8089 ;;Total ram usage:        0 bytes
  8090 ;; Hardware stack levels used: 1
  8091 ;; This function calls:
  8092 ;;		Nothing
  8093 ;; This function is called by:
  8094 ;;		_INTERRUPT_InterruptManager
  8095 ;; This function uses a non-reentrant model
  8096 ;;
  8097                           
  8098                           	psect	text47
  8099  0039FC                     __ptext47:
  8100                           	callstack 0
  8101  0039FC                     _INT0_ISR:
  8102                           	callstack 25
  8103  0039FC                     
  8104                           ;MCAL/INTERRUPT/mcal_external_interrupt.c: 91:     (INTCONbits.INT0F=0);
  8105  0039FC  92F2               	bcf	242,1,c	;volatile
  8106  0039FE  0012               	return		;funcret
  8107  003A00                     __end_of_INT0_ISR:
  8108                           	callstack 0
  8109                           
  8110 ;; *************** function _I2C_Isr *****************
  8111 ;; Defined at:
  8112 ;;		line 165 in file "mcc_generated_files/i2c_slave.c"
  8113 ;; Parameters:    Size  Location     Type
  8114 ;;		None
  8115 ;; Auto vars:     Size  Location     Type
  8116 ;;		None
  8117 ;; Return value:  Size  Location     Type
  8118 ;;                  1    wreg      void 
  8119 ;; Registers used:
  8120 ;;		wreg, fsr2l, fsr2h, status,2, status,0, pcl, pclath, pclatu, tosl, prodl, prodh, cstack
  8121 ;; Tracked objects:
  8122 ;;		On entry : 0/0
  8123 ;;		On exit  : 0/0
  8124 ;;		Unchanged: 0/0
  8125 ;; Data sizes:     COMRAM   BANK0   BANK1   BANK2   BANK3   BANK4   BANK5   BANK6   BANK7   BANK8   BANK9  BANK10  BANK1
      +1  BANK12  BANK13  BANK14  BANK15
  8126 ;;      Params:         0       0       0       0       0       0       0       0       0       0       0       0       
      +0       0       0       0       0
  8127 ;;      Locals:         0       0       0       0       0       0       0       0       0       0       0       0       
      +0       0       0       0       0
  8128 ;;      Temps:          2       0       0       0       0       0       0       0       0       0       0       0       
      +0       0       0       0       0
  8129 ;;      Totals:         2       0       0       0       0       0       0       0       0       0       0       0       
      +0       0       0       0       0
  8130 ;;Total ram usage:        2 bytes
  8131 ;; Hardware stack levels used: 1
  8132 ;; Hardware stack levels required when called: 5
  8133 ;; This function calls:
  8134 ;;		_I2C_SlaveAddrCallBack
  8135 ;;		_I2C_SlaveClearIrq
  8136 ;;		_I2C_SlaveIsAddr
  8137 ;;		_I2C_SlaveIsRead
  8138 ;;		_I2C_SlaveIsRxBufFull
  8139 ;;		_I2C_SlaveIsTxBufEmpty
  8140 ;;		_I2C_SlaveRdCallBack
  8141 ;;		_I2C_SlaveReleaseClock
  8142 ;;		_I2C_SlaveWrCallBack
  8143 ;; This function is called by:
  8144 ;;		_I2C_Open
  8145 ;;		_INTERRUPT_InterruptManager
  8146 ;; This function uses a non-reentrant model
  8147 ;;
  8148                           
  8149                           	psect	text48
  8150  002EBE                     __ptext48:
  8151                           	callstack 0
  8152  002EBE                     _I2C_Isr:
  8153                           	callstack 20
  8154  002EBE                     
  8155                           ;mcc_generated_files/i2c_slave.c: 167:     I2C_SlaveClearIrq();
  8156  002EBE  EC02  F01D         	call	_I2C_SlaveClearIrq	;wreg free
  8157  002EC2                     
  8158                           ;mcc_generated_files/i2c_slave.c: 169:     if(I2C_SlaveIsAddr())
  8159  002EC2  ECA3  F01C         	call	_I2C_SlaveIsAddr	;wreg free
  8160  002EC6  0900               	iorlw	0
  8161  002EC8  B4D8               	btfsc	status,2,c
  8162  002ECA  EF69  F017         	goto	i2u651_41
  8163  002ECE  EF6B  F017         	goto	i2u651_40
  8164  002ED2                     i2u651_41:
  8165  002ED2  EF7D  F017         	goto	i2l7465
  8166  002ED6                     i2u651_40:
  8167  002ED6                     
  8168                           ;mcc_generated_files/i2c_slave.c: 170:     {;mcc_generated_files/i2c_slave.c: 171:      
      +                             if(I2C_SlaveIsRead())
  8169  002ED6  EC99  F01C         	call	_I2C_SlaveIsRead	;wreg free
  8170  002EDA  0900               	iorlw	0
  8171  002EDC  B4D8               	btfsc	status,2,c
  8172  002EDE  EF73  F017         	goto	i2u652_41
  8173  002EE2  EF75  F017         	goto	i2u652_40
  8174  002EE6                     i2u652_41:
  8175  002EE6  EF79  F017         	goto	i2l7463
  8176  002EEA                     i2u652_40:
  8177  002EEA                     
  8178                           ;mcc_generated_files/i2c_slave.c: 172:         {;mcc_generated_files/i2c_slave.c: 173:  
      +                                     i2cSlaveState = I2C_ADDR_TX;
  8179  002EEA  0E01               	movlw	1
  8180  002EEC  6E4E               	movwf	_i2cSlaveState^0,c	;volatile
  8181                           
  8182                           ;mcc_generated_files/i2c_slave.c: 174:         }
  8183  002EEE  EFBD  F017         	goto	i2l7489
  8184  002EF2                     i2l7463:
  8185                           
  8186                           ;mcc_generated_files/i2c_slave.c: 176:         {;mcc_generated_files/i2c_slave.c: 177:  
      +                                     i2cSlaveState = I2C_ADDR_RX;
  8187  002EF2  0E02               	movlw	2
  8188  002EF4  6E4E               	movwf	_i2cSlaveState^0,c	;volatile
  8189  002EF6  EFBD  F017         	goto	i2l7489
  8190  002EFA                     i2l7465:
  8191                           
  8192                           ;mcc_generated_files/i2c_slave.c: 181:     {;mcc_generated_files/i2c_slave.c: 182:      
      +                             if(I2C_SlaveIsRead())
  8193  002EFA  EC99  F01C         	call	_I2C_SlaveIsRead	;wreg free
  8194  002EFE  0900               	iorlw	0
  8195  002F00  B4D8               	btfsc	status,2,c
  8196  002F02  EF85  F017         	goto	i2u653_41
  8197  002F06  EF87  F017         	goto	i2u653_40
  8198  002F0A                     i2u653_41:
  8199  002F0A  EF8B  F017         	goto	i2l7469
  8200  002F0E                     i2u653_40:
  8201  002F0E                     
  8202                           ;mcc_generated_files/i2c_slave.c: 183:         {;mcc_generated_files/i2c_slave.c: 184:  
      +                                     i2cSlaveState = I2C_DATA_TX;
  8203  002F0E  0E03               	movlw	3
  8204  002F10  6E4E               	movwf	_i2cSlaveState^0,c	;volatile
  8205                           
  8206                           ;mcc_generated_files/i2c_slave.c: 185:         }
  8207  002F12  EFBD  F017         	goto	i2l7489
  8208  002F16                     i2l7469:
  8209                           
  8210                           ;mcc_generated_files/i2c_slave.c: 187:         {;mcc_generated_files/i2c_slave.c: 188:  
      +                                     i2cSlaveState = I2C_DATA_RX;
  8211  002F16  0E04               	movlw	4
  8212  002F18  6E4E               	movwf	_i2cSlaveState^0,c	;volatile
  8213  002F1A  EFBD  F017         	goto	i2l7489
  8214  002F1E                     i2l7471:
  8215                           
  8216                           ;mcc_generated_files/i2c_slave.c: 195:             I2C_SlaveAddrCallBack();
  8217  002F1E  EC04  F01C         	call	_I2C_SlaveAddrCallBack	;wreg free
  8218  002F22                     
  8219                           ;mcc_generated_files/i2c_slave.c: 196:             if(I2C_SlaveIsTxBufEmpty())
  8220  002F22  EC85  F01C         	call	_I2C_SlaveIsTxBufEmpty	;wreg free
  8221  002F26  0900               	iorlw	0
  8222  002F28  B4D8               	btfsc	status,2,c
  8223  002F2A  EF99  F017         	goto	i2u654_41
  8224  002F2E  EF9B  F017         	goto	i2u654_40
  8225  002F32                     i2u654_41:
  8226  002F32  EFDA  F017         	goto	i2l7491
  8227  002F36                     i2u654_40:
  8228  002F36                     i2l7475:
  8229                           
  8230                           ;mcc_generated_files/i2c_slave.c: 197:             {;mcc_generated_files/i2c_slave.c: 19
      +                          8:                 I2C_SlaveWrCallBack();
  8231  002F36  ECD6  F01B         	call	_I2C_SlaveWrCallBack	;wreg free
  8232  002F3A  EFDA  F017         	goto	i2l7491
  8233  002F3E                     i2l7477:
  8234                           
  8235                           ;mcc_generated_files/i2c_slave.c: 202:             I2C_SlaveAddrCallBack();
  8236  002F3E  EC04  F01C         	call	_I2C_SlaveAddrCallBack	;wreg free
  8237                           
  8238                           ;mcc_generated_files/i2c_slave.c: 203:             break;
  8239  002F42  EFDA  F017         	goto	i2l7491
  8240  002F46                     i2l7479:
  8241                           
  8242                           ;mcc_generated_files/i2c_slave.c: 205:             if(I2C_SlaveIsTxBufEmpty())
  8243  002F46  EC85  F01C         	call	_I2C_SlaveIsTxBufEmpty	;wreg free
  8244  002F4A  0900               	iorlw	0
  8245  002F4C  B4D8               	btfsc	status,2,c
  8246  002F4E  EFAB  F017         	goto	i2u655_41
  8247  002F52  EFAD  F017         	goto	i2u655_40
  8248  002F56                     i2u655_41:
  8249  002F56  EFDA  F017         	goto	i2l7491
  8250  002F5A                     i2u655_40:
  8251  002F5A  EF9B  F017         	goto	i2l7475
  8252  002F5E                     i2l7483:
  8253                           
  8254                           ;mcc_generated_files/i2c_slave.c: 211:             if(I2C_SlaveIsRxBufFull())
  8255  002F5E  EC8F  F01C         	call	_I2C_SlaveIsRxBufFull	;wreg free
  8256  002F62  0900               	iorlw	0
  8257  002F64  B4D8               	btfsc	status,2,c
  8258  002F66  EFB7  F017         	goto	i2u656_41
  8259  002F6A  EFB9  F017         	goto	i2u656_40
  8260  002F6E                     i2u656_41:
  8261  002F6E  EFDA  F017         	goto	i2l7491
  8262  002F72                     i2u656_40:
  8263  002F72                     
  8264                           ;mcc_generated_files/i2c_slave.c: 212:             {;mcc_generated_files/i2c_slave.c: 21
      +                          3:                 I2C_SlaveRdCallBack();
  8265  002F72  ECED  F01B         	call	_I2C_SlaveRdCallBack	;wreg free
  8266  002F76  EFDA  F017         	goto	i2l7491
  8267  002F7A                     i2l7489:
  8268  002F7A  504E               	movf	_i2cSlaveState^0,w,c	;volatile
  8269  002F7C  6E12               	movwf	??_I2C_Isr^0,c
  8270  002F7E  6A13               	clrf	(??_I2C_Isr+1)^0,c
  8271                           
  8272                           ; Switch on 2 bytes has been partitioned into a top level switch of size 1, and 1 sub-sw
      +                          itches
  8273                           ; Switch size 1, requested type "simple"
  8274                           ; Number of cases is 1, Range of values is 0 to 0
  8275                           ; switch strategies available:
  8276                           ; Name         Instructions Cycles
  8277                           ; simple_byte            4     3 (average)
  8278                           ;	Chosen strategy is simple_byte
  8279  002F80  5013               	movf	(??_I2C_Isr+1)^0,w,c
  8280  002F82  0A00               	xorlw	0	; case 0
  8281  002F84  B4D8               	btfsc	status,2,c
  8282  002F86  EFC7  F017         	goto	i2l10795
  8283  002F8A  EFDA  F017         	goto	i2l7491
  8284  002F8E                     i2l10795:
  8285                           
  8286                           ; Switch size 1, requested type "simple"
  8287                           ; Number of cases is 4, Range of values is 1 to 4
  8288                           ; switch strategies available:
  8289                           ; Name         Instructions Cycles
  8290                           ; simple_byte           13     7 (average)
  8291                           ;	Chosen strategy is simple_byte
  8292  002F8E  5012               	movf	??_I2C_Isr^0,w,c
  8293  002F90  0A01               	xorlw	1	; case 1
  8294  002F92  B4D8               	btfsc	status,2,c
  8295  002F94  EF8F  F017         	goto	i2l7471
  8296  002F98  0A03               	xorlw	3	; case 2
  8297  002F9A  B4D8               	btfsc	status,2,c
  8298  002F9C  EF9F  F017         	goto	i2l7477
  8299  002FA0  0A01               	xorlw	1	; case 3
  8300  002FA2  B4D8               	btfsc	status,2,c
  8301  002FA4  EFA3  F017         	goto	i2l7479
  8302  002FA8  0A07               	xorlw	7	; case 4
  8303  002FAA  B4D8               	btfsc	status,2,c
  8304  002FAC  EFAF  F017         	goto	i2l7483
  8305  002FB0  EFDA  F017         	goto	i2l7491
  8306  002FB4                     i2l7491:
  8307                           
  8308                           ;mcc_generated_files/i2c_slave.c: 219:     I2C_SlaveReleaseClock();
  8309  002FB4  EC00  F01D         	call	_I2C_SlaveReleaseClock	;wreg free
  8310  002FB8  0012               	return		;funcret
  8311  002FBA                     __end_of_I2C_Isr:
  8312                           	callstack 0
  8313                           
  8314 ;; *************** function _I2C_SlaveWrCallBack *****************
  8315 ;; Defined at:
  8316 ;;		line 250 in file "mcc_generated_files/i2c_slave.c"
  8317 ;; Parameters:    Size  Location     Type
  8318 ;;		None
  8319 ;; Auto vars:     Size  Location     Type
  8320 ;;		None
  8321 ;; Return value:  Size  Location     Type
  8322 ;;                  1    wreg      void 
  8323 ;; Registers used:
  8324 ;;		wreg, status,2, status,0, pcl, pclath, pclatu, tosl, cstack
  8325 ;; Tracked objects:
  8326 ;;		On entry : 0/0
  8327 ;;		On exit  : 0/0
  8328 ;;		Unchanged: 0/0
  8329 ;; Data sizes:     COMRAM   BANK0   BANK1   BANK2   BANK3   BANK4   BANK5   BANK6   BANK7   BANK8   BANK9  BANK10  BANK1
      +1  BANK12  BANK13  BANK14  BANK15
  8330 ;;      Params:         0       0       0       0       0       0       0       0       0       0       0       0       
      +0       0       0       0       0
  8331 ;;      Locals:         0       0       0       0       0       0       0       0       0       0       0       0       
      +0       0       0       0       0
  8332 ;;      Temps:          0       0       0       0       0       0       0       0       0       0       0       0       
      +0       0       0       0       0
  8333 ;;      Totals:         0       0       0       0       0       0       0       0       0       0       0       0       
      +0       0       0       0       0
  8334 ;;Total ram usage:        0 bytes
  8335 ;; Hardware stack levels used: 1
  8336 ;; Hardware stack levels required when called: 2
  8337 ;; This function calls:
  8338 ;;		Absolute function
  8339 ;;		_I2C_SlaveDefWrInterruptHandler
  8340 ;; This function is called by:
  8341 ;;		_I2C_Isr
  8342 ;; This function uses a non-reentrant model
  8343 ;;
  8344                           
  8345                           	psect	text49
  8346  0037AC                     __ptext49:
  8347                           	callstack 0
  8348  0037AC                     _I2C_SlaveWrCallBack:
  8349                           	callstack 22
  8350  0037AC                     
  8351                           ;mcc_generated_files/i2c_slave.c: 252:     if (I2C_SlaveWrInterruptHandler)
  8352  0037AC  0100               	movlb	0	; () banked
  8353  0037AE  5186               	movf	_I2C_SlaveWrInterruptHandler& (0+255),w,b
  8354  0037B0  1187               	iorwf	(_I2C_SlaveWrInterruptHandler+1)& (0+255),w,b
  8355  0037B2  B4D8               	btfsc	status,2,c
  8356  0037B4  EFDE  F01B         	goto	i2u620_41
  8357  0037B8  EFE0  F01B         	goto	i2u620_40
  8358  0037BC                     i2u620_41:
  8359  0037BC  EFEC  F01B         	goto	i2l1670
  8360  0037C0                     i2u620_40:
  8361  0037C0                     
  8362                           ; BSR set to: 0
  8363                           ;mcc_generated_files/i2c_slave.c: 253:     {;mcc_generated_files/i2c_slave.c: 254:      
      +                             I2C_SlaveWrInterruptHandler();
  8364  0037C0  D802               	call	i2u621_48
  8365  0037C2  EFEC  F01B         	goto	i2u621_49
  8366  0037C6                     i2u621_48:
  8367  0037C6  0005               	push	
  8368  0037C8  6EFA               	movwf	pclath,c
  8369  0037CA  5186               	movf	_I2C_SlaveWrInterruptHandler& (0+255),w,b
  8370  0037CC  6EFD               	movwf	tosl,c
  8371  0037CE  5187               	movf	(_I2C_SlaveWrInterruptHandler+1)& (0+255),w,b
  8372  0037D0  6EFE               	movwf	tosh,c
  8373  0037D2  6AFF               	clrf	tosu,c
  8374  0037D4  50FA               	movf	pclath,w,c
  8375  0037D6  0012               	return		;indir
  8376  0037D8                     i2u621_49:
  8377  0037D8                     i2l1670:
  8378  0037D8  0012               	return		;funcret
  8379  0037DA                     __end_of_I2C_SlaveWrCallBack:
  8380                           	callstack 0
  8381                           
  8382 ;; *************** function _I2C_SlaveDefWrInterruptHandler *****************
  8383 ;; Defined at:
  8384 ;;		line 258 in file "mcc_generated_files/i2c_slave.c"
  8385 ;; Parameters:    Size  Location     Type
  8386 ;;		None
  8387 ;; Auto vars:     Size  Location     Type
  8388 ;;		None
  8389 ;; Return value:  Size  Location     Type
  8390 ;;                  1    wreg      void 
  8391 ;; Registers used:
  8392 ;;		wreg, status,2, cstack
  8393 ;; Tracked objects:
  8394 ;;		On entry : 0/0
  8395 ;;		On exit  : 0/0
  8396 ;;		Unchanged: 0/0
  8397 ;; Data sizes:     COMRAM   BANK0   BANK1   BANK2   BANK3   BANK4   BANK5   BANK6   BANK7   BANK8   BANK9  BANK10  BANK1
      +1  BANK12  BANK13  BANK14  BANK15
  8398 ;;      Params:         0       0       0       0       0       0       0       0       0       0       0       0       
      +0       0       0       0       0
  8399 ;;      Locals:         0       0       0       0       0       0       0       0       0       0       0       0       
      +0       0       0       0       0
  8400 ;;      Temps:          0       0       0       0       0       0       0       0       0       0       0       0       
      +0       0       0       0       0
  8401 ;;      Totals:         0       0       0       0       0       0       0       0       0       0       0       0       
      +0       0       0       0       0
  8402 ;;Total ram usage:        0 bytes
  8403 ;; Hardware stack levels used: 1
  8404 ;; Hardware stack levels required when called: 1
  8405 ;; This function calls:
  8406 ;;		_I2C_SlaveSendTxData
  8407 ;; This function is called by:
  8408 ;;		_I2C_Open
  8409 ;;		_I2C_SlaveWrCallBack
  8410 ;; This function uses a non-reentrant model
  8411 ;;
  8412                           
  8413                           	psect	text50
  8414  0039DC                     __ptext50:
  8415                           	callstack 0
  8416  0039DC                     _I2C_SlaveDefWrInterruptHandler:
  8417                           	callstack 22
  8418  0039DC                     
  8419                           ;mcc_generated_files/i2c_slave.c: 259:     I2C_SlaveSendTxData(i2cWrData);
  8420  0039DC  504F               	movf	_i2cWrData^0,w,c	;volatile
  8421  0039DE  ECF2  F01C         	call	_I2C_SlaveSendTxData
  8422  0039E2  0012               	return		;funcret
  8423  0039E4                     __end_of_I2C_SlaveDefWrInterruptHandler:
  8424                           	callstack 0
  8425                           
  8426 ;; *************** function _I2C_SlaveSendTxData *****************
  8427 ;; Defined at:
  8428 ;;		line 391 in file "mcc_generated_files/i2c_slave.c"
  8429 ;; Parameters:    Size  Location     Type
  8430 ;;  data            1    wreg     unsigned char 
  8431 ;; Auto vars:     Size  Location     Type
  8432 ;;  data            1    0[COMRAM] unsigned char 
  8433 ;; Return value:  Size  Location     Type
  8434 ;;                  1    wreg      void 
  8435 ;; Registers used:
  8436 ;;		wreg
  8437 ;; Tracked objects:
  8438 ;;		On entry : 0/0
  8439 ;;		On exit  : 0/0
  8440 ;;		Unchanged: 0/0
  8441 ;; Data sizes:     COMRAM   BANK0   BANK1   BANK2   BANK3   BANK4   BANK5   BANK6   BANK7   BANK8   BANK9  BANK10  BANK1
      +1  BANK12  BANK13  BANK14  BANK15
  8442 ;;      Params:         0       0       0       0       0       0       0       0       0       0       0       0       
      +0       0       0       0       0
  8443 ;;      Locals:         1       0       0       0       0       0       0       0       0       0       0       0       
      +0       0       0       0       0
  8444 ;;      Temps:          0       0       0       0       0       0       0       0       0       0       0       0       
      +0       0       0       0       0
  8445 ;;      Totals:         1       0       0       0       0       0       0       0       0       0       0       0       
      +0       0       0       0       0
  8446 ;;Total ram usage:        1 bytes
  8447 ;; Hardware stack levels used: 1
  8448 ;; This function calls:
  8449 ;;		Nothing
  8450 ;; This function is called by:
  8451 ;;		_I2C_SlaveDefWrInterruptHandler
  8452 ;;		_I2C_Write
  8453 ;; This function uses a non-reentrant model
  8454 ;;
  8455                           
  8456                           	psect	text51
  8457  0039E4                     __ptext51:
  8458                           	callstack 0
  8459  0039E4                     _I2C_SlaveSendTxData:
  8460                           	callstack 22
  8461                           
  8462                           ;incstack = 0
  8463                           ;I2C_SlaveSendTxData@data stored from wreg
  8464  0039E4  6E01               	movwf	I2C_SlaveSendTxData@data^0,c
  8465  0039E6                     
  8466                           ;mcc_generated_files/i2c_slave.c: 391: static __attribute__((inline)) void I2C_SlaveSend
      +                          TxData(uint8_t data);mcc_generated_files/i2c_slave.c: 392: {;mcc_generated_files/i2c_sla
      +                          ve.c: 393:     SSPBUF = data;
  8467  0039E6  C001  FFC9         	movff	I2C_SlaveSendTxData@data,4041	;volatile
  8468  0039EA  0012               	return		;funcret
  8469  0039EC                     __end_of_I2C_SlaveSendTxData:
  8470                           	callstack 0
  8471                           
  8472 ;; *************** function _I2C_SlaveReleaseClock *****************
  8473 ;; Defined at:
  8474 ;;		line 361 in file "mcc_generated_files/i2c_slave.c"
  8475 ;; Parameters:    Size  Location     Type
  8476 ;;		None
  8477 ;; Auto vars:     Size  Location     Type
  8478 ;;		None
  8479 ;; Return value:  Size  Location     Type
  8480 ;;                  1    wreg      void 
  8481 ;; Registers used:
  8482 ;;		None
  8483 ;; Tracked objects:
  8484 ;;		On entry : 0/0
  8485 ;;		On exit  : 0/0
  8486 ;;		Unchanged: 0/0
  8487 ;; Data sizes:     COMRAM   BANK0   BANK1   BANK2   BANK3   BANK4   BANK5   BANK6   BANK7   BANK8   BANK9  BANK10  BANK1
      +1  BANK12  BANK13  BANK14  BANK15
  8488 ;;      Params:         0       0       0       0       0       0       0       0       0       0       0       0       
      +0       0       0       0       0
  8489 ;;      Locals:         0       0       0       0       0       0       0       0       0       0       0       0       
      +0       0       0       0       0
  8490 ;;      Temps:          0       0       0       0       0       0       0       0       0       0       0       0       
      +0       0       0       0       0
  8491 ;;      Totals:         0       0       0       0       0       0       0       0       0       0       0       0       
      +0       0       0       0       0
  8492 ;;Total ram usage:        0 bytes
  8493 ;; Hardware stack levels used: 1
  8494 ;; This function calls:
  8495 ;;		Nothing
  8496 ;; This function is called by:
  8497 ;;		_I2C_Isr
  8498 ;; This function uses a non-reentrant model
  8499 ;;
  8500                           
  8501                           	psect	text52
  8502  003A00                     __ptext52:
  8503                           	callstack 0
  8504  003A00                     _I2C_SlaveReleaseClock:
  8505                           	callstack 24
  8506  003A00                     
  8507                           ;mcc_generated_files/i2c_slave.c: 363:     SSPCON1bits.CKP = 1;
  8508  003A00  88C6               	bsf	198,4,c	;volatile
  8509  003A02  0012               	return		;funcret
  8510  003A04                     __end_of_I2C_SlaveReleaseClock:
  8511                           	callstack 0
  8512                           
  8513 ;; *************** function _I2C_SlaveRdCallBack *****************
  8514 ;; Defined at:
  8515 ;;		line 233 in file "mcc_generated_files/i2c_slave.c"
  8516 ;; Parameters:    Size  Location     Type
  8517 ;;		None
  8518 ;; Auto vars:     Size  Location     Type
  8519 ;;		None
  8520 ;; Return value:  Size  Location     Type
  8521 ;;                  1    wreg      void 
  8522 ;; Registers used:
  8523 ;;		wreg, fsr2l, fsr2h, status,2, status,0, pcl, pclath, pclatu, tosl, prodl, prodh, cstack
  8524 ;; Tracked objects:
  8525 ;;		On entry : 0/0
  8526 ;;		On exit  : 0/0
  8527 ;;		Unchanged: 0/0
  8528 ;; Data sizes:     COMRAM   BANK0   BANK1   BANK2   BANK3   BANK4   BANK5   BANK6   BANK7   BANK8   BANK9  BANK10  BANK1
      +1  BANK12  BANK13  BANK14  BANK15
  8529 ;;      Params:         0       0       0       0       0       0       0       0       0       0       0       0       
      +0       0       0       0       0
  8530 ;;      Locals:         0       0       0       0       0       0       0       0       0       0       0       0       
      +0       0       0       0       0
  8531 ;;      Temps:          0       0       0       0       0       0       0       0       0       0       0       0       
      +0       0       0       0       0
  8532 ;;      Totals:         0       0       0       0       0       0       0       0       0       0       0       0       
      +0       0       0       0       0
  8533 ;;Total ram usage:        0 bytes
  8534 ;; Hardware stack levels used: 1
  8535 ;; Hardware stack levels required when called: 4
  8536 ;; This function calls:
  8537 ;;		Absolute function
  8538 ;;		_I2C_SlaveDefRdInterruptHandler
  8539 ;;		_MY_I2C_slave_ISR
  8540 ;; This function is called by:
  8541 ;;		_I2C_Isr
  8542 ;; This function uses a non-reentrant model
  8543 ;;
  8544                           
  8545                           	psect	text53
  8546  0037DA                     __ptext53:
  8547                           	callstack 0
  8548  0037DA                     _I2C_SlaveRdCallBack:
  8549                           	callstack 20
  8550  0037DA                     
  8551                           ;mcc_generated_files/i2c_slave.c: 235:     if (I2C_SlaveRdInterruptHandler)
  8552  0037DA  0100               	movlb	0	; () banked
  8553  0037DC  5188               	movf	_I2C_SlaveRdInterruptHandler& (0+255),w,b
  8554  0037DE  1189               	iorwf	(_I2C_SlaveRdInterruptHandler+1)& (0+255),w,b
  8555  0037E0  B4D8               	btfsc	status,2,c
  8556  0037E2  EFF5  F01B         	goto	i2u623_41
  8557  0037E6  EFF7  F01B         	goto	i2u623_40
  8558  0037EA                     i2u623_41:
  8559  0037EA  EF03  F01C         	goto	i2l1660
  8560  0037EE                     i2u623_40:
  8561  0037EE                     
  8562                           ; BSR set to: 0
  8563                           ;mcc_generated_files/i2c_slave.c: 236:     {;mcc_generated_files/i2c_slave.c: 237:      
      +                             I2C_SlaveRdInterruptHandler();
  8564  0037EE  D802               	call	i2u624_48
  8565  0037F0  EF03  F01C         	goto	i2u624_49
  8566  0037F4                     i2u624_48:
  8567  0037F4  0005               	push	
  8568  0037F6  6EFA               	movwf	pclath,c
  8569  0037F8  5188               	movf	_I2C_SlaveRdInterruptHandler& (0+255),w,b
  8570  0037FA  6EFD               	movwf	tosl,c
  8571  0037FC  5189               	movf	(_I2C_SlaveRdInterruptHandler+1)& (0+255),w,b
  8572  0037FE  6EFE               	movwf	tosh,c
  8573  003800  6AFF               	clrf	tosu,c
  8574  003802  50FA               	movf	pclath,w,c
  8575  003804  0012               	return		;indir
  8576  003806                     i2u624_49:
  8577  003806                     i2l1660:
  8578  003806  0012               	return		;funcret
  8579  003808                     __end_of_I2C_SlaveRdCallBack:
  8580                           	callstack 0
  8581                           
  8582 ;; *************** function _I2C_SlaveDefRdInterruptHandler *****************
  8583 ;; Defined at:
  8584 ;;		line 241 in file "mcc_generated_files/i2c_slave.c"
  8585 ;; Parameters:    Size  Location     Type
  8586 ;;		None
  8587 ;; Auto vars:     Size  Location     Type
  8588 ;;		None
  8589 ;; Return value:  Size  Location     Type
  8590 ;;                  1    wreg      void 
  8591 ;; Registers used:
  8592 ;;		wreg, status,2, cstack
  8593 ;; Tracked objects:
  8594 ;;		On entry : 0/0
  8595 ;;		On exit  : 0/0
  8596 ;;		Unchanged: 0/0
  8597 ;; Data sizes:     COMRAM   BANK0   BANK1   BANK2   BANK3   BANK4   BANK5   BANK6   BANK7   BANK8   BANK9  BANK10  BANK1
      +1  BANK12  BANK13  BANK14  BANK15
  8598 ;;      Params:         0       0       0       0       0       0       0       0       0       0       0       0       
      +0       0       0       0       0
  8599 ;;      Locals:         0       0       0       0       0       0       0       0       0       0       0       0       
      +0       0       0       0       0
  8600 ;;      Temps:          0       0       0       0       0       0       0       0       0       0       0       0       
      +0       0       0       0       0
  8601 ;;      Totals:         0       0       0       0       0       0       0       0       0       0       0       0       
      +0       0       0       0       0
  8602 ;;Total ram usage:        0 bytes
  8603 ;; Hardware stack levels used: 1
  8604 ;; Hardware stack levels required when called: 1
  8605 ;; This function calls:
  8606 ;;		_I2C_SlaveGetRxData
  8607 ;; This function is called by:
  8608 ;;		_I2C_Open
  8609 ;;		_I2C_SlaveRdCallBack
  8610 ;; This function uses a non-reentrant model
  8611 ;;
  8612                           
  8613                           	psect	text54
  8614  0039C0                     __ptext54:
  8615                           	callstack 0
  8616  0039C0                     _I2C_SlaveDefRdInterruptHandler:
  8617                           	callstack 22
  8618  0039C0                     
  8619                           ;mcc_generated_files/i2c_slave.c: 242:     i2cRdData = I2C_SlaveGetRxData();
  8620  0039C0  EC04  F01D         	call	_I2C_SlaveGetRxData	;wreg free
  8621  0039C4  0100               	movlb	0	; () banked
  8622  0039C6  6FC1               	movwf	_i2cRdData& (0+255),b	;volatile
  8623  0039C8                     
  8624                           ; BSR set to: 0
  8625  0039C8  0012               	return		;funcret
  8626  0039CA                     __end_of_I2C_SlaveDefRdInterruptHandler:
  8627                           	callstack 0
  8628                           
  8629 ;; *************** function _MY_I2C_slave_ISR *****************
  8630 ;; Defined at:
  8631 ;;		line 12 in file "app.c"
  8632 ;; Parameters:    Size  Location     Type
  8633 ;;		None
  8634 ;; Auto vars:     Size  Location     Type
  8635 ;;  temp_var        1   16[COMRAM] unsigned char 
  8636 ;; Return value:  Size  Location     Type
  8637 ;;                  1    wreg      void 
  8638 ;; Registers used:
  8639 ;;		wreg, fsr2l, fsr2h, status,2, status,0, prodl, prodh, cstack
  8640 ;; Tracked objects:
  8641 ;;		On entry : 0/0
  8642 ;;		On exit  : 0/0
  8643 ;;		Unchanged: 0/0
  8644 ;; Data sizes:     COMRAM   BANK0   BANK1   BANK2   BANK3   BANK4   BANK5   BANK6   BANK7   BANK8   BANK9  BANK10  BANK1
      +1  BANK12  BANK13  BANK14  BANK15
  8645 ;;      Params:         0       0       0       0       0       0       0       0       0       0       0       0       
      +0       0       0       0       0
  8646 ;;      Locals:         1       0       0       0       0       0       0       0       0       0       0       0       
      +0       0       0       0       0
  8647 ;;      Temps:          0       0       0       0       0       0       0       0       0       0       0       0       
      +0       0       0       0       0
  8648 ;;      Totals:         1       0       0       0       0       0       0       0       0       0       0       0       
      +0       0       0       0       0
  8649 ;;Total ram usage:        1 bytes
  8650 ;; Hardware stack levels used: 1
  8651 ;; Hardware stack levels required when called: 3
  8652 ;; This function calls:
  8653 ;;		_print_num_7seg
  8654 ;; This function is called by:
  8655 ;;		_main
  8656 ;;		_I2C_SlaveRdCallBack
  8657 ;; This function uses a non-reentrant model
  8658 ;;
  8659                           
  8660                           	psect	text55
  8661  003836                     __ptext55:
  8662                           	callstack 0
  8663  003836                     _MY_I2C_slave_ISR:
  8664                           	callstack 20
  8665  003836                     
  8666                           ;app.c: 13:     uint8 temp_var=SSPBUF;
  8667  003836  CFC9 F011          	movff	4041,MY_I2C_slave_ISR@temp_var	;volatile
  8668  00383A                     
  8669                           ;app.c: 14:     if(temp_var==112){
  8670  00383A  0E70               	movlw	112
  8671  00383C  1811               	xorwf	MY_I2C_slave_ISR@temp_var^0,w,c
  8672  00383E  A4D8               	btfss	status,2,c
  8673  003840  EF24  F01C         	goto	i2u592_41
  8674  003844  EF26  F01C         	goto	i2u592_40
  8675  003848                     i2u592_41:
  8676  003848  EF28  F01C         	goto	i2l1898
  8677  00384C                     i2u592_40:
  8678  00384C  EF2D  F01C         	goto	i2l1900
  8679  003850                     i2l1898:
  8680                           
  8681                           ;app.c: 18:         var_slave=SSPBUF;
  8682  003850  CFC9 F04D          	movff	4041,_var_slave	;volatile
  8683  003854                     
  8684                           ;app.c: 19:         print_num_7seg(var_slave);
  8685  003854  504D               	movf	_var_slave^0,w,c	;volatile
  8686  003856  EC5A  F01B         	call	_print_num_7seg
  8687  00385A                     i2l1900:
  8688  00385A  0012               	return		;funcret
  8689  00385C                     __end_of_MY_I2C_slave_ISR:
  8690                           	callstack 0
  8691                           
  8692 ;; *************** function _print_num_7seg *****************
  8693 ;; Defined at:
  8694 ;;		line 62 in file "app.c"
  8695 ;; Parameters:    Size  Location     Type
  8696 ;;  num             1    wreg     unsigned char 
  8697 ;; Auto vars:     Size  Location     Type
  8698 ;;  num             1   15[COMRAM] unsigned char 
  8699 ;; Return value:  Size  Location     Type
  8700 ;;                  1    wreg      void 
  8701 ;; Registers used:
  8702 ;;		wreg, fsr2l, fsr2h, status,2, status,0, prodl, prodh, cstack
  8703 ;; Tracked objects:
  8704 ;;		On entry : 0/0
  8705 ;;		On exit  : 0/0
  8706 ;;		Unchanged: 0/0
  8707 ;; Data sizes:     COMRAM   BANK0   BANK1   BANK2   BANK3   BANK4   BANK5   BANK6   BANK7   BANK8   BANK9  BANK10  BANK1
      +1  BANK12  BANK13  BANK14  BANK15
  8708 ;;      Params:         0       0       0       0       0       0       0       0       0       0       0       0       
      +0       0       0       0       0
  8709 ;;      Locals:         1       0       0       0       0       0       0       0       0       0       0       0       
      +0       0       0       0       0
  8710 ;;      Temps:          0       0       0       0       0       0       0       0       0       0       0       0       
      +0       0       0       0       0
  8711 ;;      Totals:         1       0       0       0       0       0       0       0       0       0       0       0       
      +0       0       0       0       0
  8712 ;;Total ram usage:        1 bytes
  8713 ;; Hardware stack levels used: 1
  8714 ;; Hardware stack levels required when called: 2
  8715 ;; This function calls:
  8716 ;;		___awdiv
  8717 ;;		___awmod
  8718 ;;		_seven_segment_write
  8719 ;; This function is called by:
  8720 ;;		_MY_I2C_slave_ISR
  8721 ;; This function uses a non-reentrant model
  8722 ;;
  8723                           
  8724                           	psect	text56
  8725  0036B4                     __ptext56:
  8726                           	callstack 0
  8727  0036B4                     _print_num_7seg:
  8728                           	callstack 20
  8729                           
  8730                           ;incstack = 0
  8731                           ;print_num_7seg@num stored from wreg
  8732  0036B4  6E10               	movwf	print_num_7seg@num^0,c
  8733  0036B6                     
  8734                           ;app.c: 63:     seven_segment_write(&seg_2,num%10);
  8735  0036B6  0E29               	movlw	low _seg_2
  8736  0036B8  6E0A               	movwf	seven_segment_write@seg^0,c
  8737  0036BA  0E01               	movlw	high _seg_2
  8738  0036BC  6E0B               	movwf	(seven_segment_write@seg+1)^0,c
  8739  0036BE  C010  F001         	movff	print_num_7seg@num,___awmod@dividend
  8740  0036C2  6A02               	clrf	(___awmod@dividend+1)^0,c
  8741  0036C4  0E00               	movlw	0
  8742  0036C6  6E04               	movwf	(___awmod@divisor+1)^0,c
  8743  0036C8  0E0A               	movlw	10
  8744  0036CA  6E03               	movwf	___awmod@divisor^0,c
  8745  0036CC  EC3F  F018         	call	___awmod	;wreg free
  8746  0036D0  5001               	movf	?___awmod^0,w,c
  8747  0036D2  6E0C               	movwf	seven_segment_write@num^0,c
  8748  0036D4  EC25  F019         	call	_seven_segment_write	;wreg free
  8749                           
  8750                           ;app.c: 64:     seven_segment_write(&seg_1,num/10);
  8751  0036D8  0E2E               	movlw	low _seg_1
  8752  0036DA  6E0A               	movwf	seven_segment_write@seg^0,c
  8753  0036DC  0E01               	movlw	high _seg_1
  8754  0036DE  6E0B               	movwf	(seven_segment_write@seg+1)^0,c
  8755  0036E0  C010  F001         	movff	print_num_7seg@num,___awdiv@dividend
  8756  0036E4  6A02               	clrf	(___awdiv@dividend+1)^0,c
  8757  0036E6  0E00               	movlw	0
  8758  0036E8  6E04               	movwf	(___awdiv@divisor+1)^0,c
  8759  0036EA  0E0A               	movlw	10
  8760  0036EC  6E03               	movwf	___awdiv@divisor^0,c
  8761  0036EE  ECDD  F017         	call	___awdiv	;wreg free
  8762  0036F2  5001               	movf	?___awdiv^0,w,c
  8763  0036F4  6E0C               	movwf	seven_segment_write@num^0,c
  8764  0036F6  EC25  F019         	call	_seven_segment_write	;wreg free
  8765  0036FA  0012               	return		;funcret
  8766  0036FC                     __end_of_print_num_7seg:
  8767                           	callstack 0
  8768                           
  8769 ;; *************** function _seven_segment_write *****************
  8770 ;; Defined at:
  8771 ;;		line 44 in file "ECUAL/7_SEGMENT/seven_segment.c"
  8772 ;; Parameters:    Size  Location     Type
  8773 ;;  seg             2    9[COMRAM] PTR struct .
  8774 ;;		 -> seg_2(5), seg_1(5), 
  8775 ;;  num             1   11[COMRAM] unsigned char 
  8776 ;; Auto vars:     Size  Location     Type
  8777 ;;  ret             1    0        unsigned char 
  8778 ;;  gpio_ret        1   14[COMRAM] unsigned char 
  8779 ;; Return value:  Size  Location     Type
  8780 ;;                  1    wreg      unsigned char 
  8781 ;; Registers used:
  8782 ;;		wreg, fsr2l, fsr2h, status,2, status,0, prodl, prodh, cstack
  8783 ;; Tracked objects:
  8784 ;;		On entry : 0/0
  8785 ;;		On exit  : 0/0
  8786 ;;		Unchanged: 0/0
  8787 ;; Data sizes:     COMRAM   BANK0   BANK1   BANK2   BANK3   BANK4   BANK5   BANK6   BANK7   BANK8   BANK9  BANK10  BANK1
      +1  BANK12  BANK13  BANK14  BANK15
  8788 ;;      Params:         3       0       0       0       0       0       0       0       0       0       0       0       
      +0       0       0       0       0
  8789 ;;      Locals:         1       0       0       0       0       0       0       0       0       0       0       0       
      +0       0       0       0       0
  8790 ;;      Temps:          2       0       0       0       0       0       0       0       0       0       0       0       
      +0       0       0       0       0
  8791 ;;      Totals:         6       0       0       0       0       0       0       0       0       0       0       0       
      +0       0       0       0       0
  8792 ;;Total ram usage:        6 bytes
  8793 ;; Hardware stack levels used: 1
  8794 ;; Hardware stack levels required when called: 1
  8795 ;; This function calls:
  8796 ;;		i2_gpio_pin_logic_write
  8797 ;; This function is called by:
  8798 ;;		_print_num_7seg
  8799 ;; This function uses a non-reentrant model
  8800 ;;
  8801                           
  8802                           	psect	text57
  8803  00324A                     __ptext57:
  8804                           	callstack 0
  8805  00324A                     _seven_segment_write:
  8806                           	callstack 20
  8807  00324A                     
  8808                           ;ECUAL/7_SEGMENT/seven_segment.c: 48:     Std_ReturnType gpio_ret=(Std_ReturnType)0x00;
  8809  00324A  0E00               	movlw	0
  8810  00324C  6E0F               	movwf	seven_segment_write@gpio_ret^0,c
  8811  00324E                     
  8812                           ;ECUAL/7_SEGMENT/seven_segment.c: 49:     if(((void*)0)==seg || num>9){
  8813  00324E  500A               	movf	seven_segment_write@seg^0,w,c
  8814  003250  100B               	iorwf	(seven_segment_write@seg+1)^0,w,c
  8815  003252  B4D8               	btfsc	status,2,c
  8816  003254  EF2E  F019         	goto	i2u452_41
  8817  003258  EF30  F019         	goto	i2u452_40
  8818  00325C                     i2u452_41:
  8819  00325C  EF38  F019         	goto	i2l6065
  8820  003260                     i2u452_40:
  8821  003260  0E09               	movlw	9
  8822  003262  640C               	cpfsgt	seven_segment_write@num^0,c
  8823  003264  EF36  F019         	goto	i2u453_41
  8824  003268  EF38  F019         	goto	i2u453_40
  8825  00326C                     i2u453_41:
  8826  00326C  EF3A  F019         	goto	i2l6067
  8827  003270                     i2u453_40:
  8828  003270                     i2l6065:
  8829                           
  8830                           ;ECUAL/7_SEGMENT/seven_segment.c: 51:     }
  8831  003270  EF60  F019         	goto	i2l24
  8832  003274                     i2l6067:
  8833                           
  8834                           ;ECUAL/7_SEGMENT/seven_segment.c: 53:         for(counter=0;counter<8;counter++){
  8835  003274  0E00               	movlw	0
  8836  003276  6E56               	movwf	seven_segment_write@counter^0,c
  8837  003278                     i2l6069:
  8838  003278  0E07               	movlw	7
  8839  00327A  6456               	cpfsgt	seven_segment_write@counter^0,c
  8840  00327C  EF42  F019         	goto	i2u454_41
  8841  003280  EF44  F019         	goto	i2u454_40
  8842  003284                     i2u454_41:
  8843  003284  EF46  F019         	goto	i2l6073
  8844  003288                     i2u454_40:
  8845  003288  EF60  F019         	goto	i2l6079
  8846  00328C                     i2l6073:
  8847                           
  8848                           ;ECUAL/7_SEGMENT/seven_segment.c: 54:              gpio_pin_logic_write(&(seg->seven_seg
      +                          ment_pins[counter]),(num>>counter)&0x1);
  8849  00328C  5056               	movf	seven_segment_write@counter^0,w,c
  8850  00328E  240A               	addwf	seven_segment_write@seg^0,w,c
  8851  003290  6E01               	movwf	i2gpio_pin_logic_write@pin^0,c
  8852  003292  0E00               	movlw	0
  8853  003294  200B               	addwfc	(seven_segment_write@seg+1)^0,w,c
  8854  003296  6E02               	movwf	(i2gpio_pin_logic_write@pin+1)^0,c
  8855  003298  C056  F00D         	movff	seven_segment_write@counter,??_seven_segment_write
  8856  00329C  C00C  F00E         	movff	seven_segment_write@num,??_seven_segment_write+1
  8857  0032A0  2A0D               	incf	??_seven_segment_write^0,f,c
  8858  0032A2  EF55  F019         	goto	i2u455_44
  8859  0032A6                     i2u455_45:
  8860  0032A6  90D8               	bcf	status,0,c
  8861  0032A8  320E               	rrcf	(??_seven_segment_write+1)^0,f,c
  8862  0032AA                     i2u455_44:
  8863  0032AA  2E0D               	decfsz	??_seven_segment_write^0,f,c
  8864  0032AC  EF53  F019         	goto	i2u455_45
  8865  0032B0  500E               	movf	(??_seven_segment_write+1)^0,w,c
  8866  0032B2  0B01               	andlw	1
  8867  0032B4  6E03               	movwf	i2gpio_pin_logic_write@pin_logic^0,c
  8868  0032B6  ECF1  F014         	call	i2_gpio_pin_logic_write	;wreg free
  8869  0032BA                     
  8870                           ;ECUAL/7_SEGMENT/seven_segment.c: 56:         }
  8871  0032BA  2A56               	incf	seven_segment_write@counter^0,f,c
  8872  0032BC  EF3C  F019         	goto	i2l6069
  8873  0032C0                     i2l6079:
  8874  0032C0                     i2l24:
  8875  0032C0  0012               	return		;funcret
  8876  0032C2                     __end_of_seven_segment_write:
  8877                           	callstack 0
  8878                           
  8879 ;; *************** function i2_gpio_pin_logic_write *****************
  8880 ;; Defined at:
  8881 ;;		line 81 in file "MCAL/GPIO/gpio.c"
  8882 ;; Parameters:    Size  Location     Type
  8883 ;;  pin             2    0[COMRAM] PTR struct .
  8884 ;;		 -> ccp1(15), seg_2.seven_segment_pins(4), seg_2(5), seg_1.seven_segment_pins(4), 
  8885 ;;		 -> seg_1(5), motor2(3), motor1(3), led_blue(2), 
  8886 ;;		 -> led_red(2), 
  8887 ;;  pin_logic       1    2[COMRAM] enum E2965
  8888 ;; Auto vars:     Size  Location     Type
  8889 ;;  ret             1    0        unsigned char 
  8890 ;; Return value:  Size  Location     Type
  8891 ;;                  1    wreg      unsigned char 
  8892 ;; Registers used:
  8893 ;;		wreg, fsr2l, fsr2h, status,2, status,0, prodl, prodh
  8894 ;; Tracked objects:
  8895 ;;		On entry : 0/0
  8896 ;;		On exit  : 0/0
  8897 ;;		Unchanged: 0/0
  8898 ;; Data sizes:     COMRAM   BANK0   BANK1   BANK2   BANK3   BANK4   BANK5   BANK6   BANK7   BANK8   BANK9  BANK10  BANK1
      +1  BANK12  BANK13  BANK14  BANK15
  8899 ;;      Params:         3       0       0       0       0       0       0       0       0       0       0       0       
      +0       0       0       0       0
  8900 ;;      Locals:         0       0       0       0       0       0       0       0       0       0       0       0       
      +0       0       0       0       0
  8901 ;;      Temps:          6       0       0       0       0       0       0       0       0       0       0       0       
      +0       0       0       0       0
  8902 ;;      Totals:         9       0       0       0       0       0       0       0       0       0       0       0       
      +0       0       0       0       0
  8903 ;;Total ram usage:        9 bytes
  8904 ;; Hardware stack levels used: 1
  8905 ;; This function calls:
  8906 ;;		Nothing
  8907 ;; This function is called by:
  8908 ;;		_seven_segment_write
  8909 ;; This function uses a non-reentrant model
  8910 ;;
  8911                           
  8912                           	psect	text58
  8913  0029E2                     __ptext58:
  8914                           	callstack 0
  8915  0029E2                     i2_gpio_pin_logic_write:
  8916                           	callstack 20
  8917  0029E2                     
  8918                           ;MCAL/GPIO/gpio.c: 84:     if(((void*)0)==pin ||(pin->pin)>7 || pin_logic>1){
  8919  0029E2  5001               	movf	i2gpio_pin_logic_write@pin^0,w,c
  8920  0029E4  1002               	iorwf	(i2gpio_pin_logic_write@pin+1)^0,w,c
  8921  0029E6  B4D8               	btfsc	status,2,c
  8922  0029E8  EFF8  F014         	goto	i2u446_41
  8923  0029EC  EFFA  F014         	goto	i2u446_40
  8924  0029F0                     i2u446_41:
  8925  0029F0  EF13  F015         	goto	i2l6039
  8926  0029F4                     i2u446_40:
  8927  0029F4  C001  FFD9         	movff	i2gpio_pin_logic_write@pin,fsr2l
  8928  0029F8  C002  FFDA         	movff	i2gpio_pin_logic_write@pin+1,fsr2h
  8929  0029FC  30DF               	rrcf	223,w,c
  8930  0029FE  32E8               	rrcf	wreg,f,c
  8931  002A00  32E8               	rrcf	wreg,f,c
  8932  002A02  0B07               	andlw	7
  8933  002A04  6E04               	movwf	??i2_gpio_pin_logic_write^0,c
  8934  002A06  0E08               	movlw	8
  8935  002A08  6004               	cpfslt	??i2_gpio_pin_logic_write^0,c
  8936  002A0A  EF09  F015         	goto	i2u447_41
  8937  002A0E  EF0B  F015         	goto	i2u447_40
  8938  002A12                     i2u447_41:
  8939  002A12  EF13  F015         	goto	i2l6039
  8940  002A16                     i2u447_40:
  8941  002A16  0E01               	movlw	1
  8942  002A18  6403               	cpfsgt	i2gpio_pin_logic_write@pin_logic^0,c
  8943  002A1A  EF11  F015         	goto	i2u448_41
  8944  002A1E  EF13  F015         	goto	i2u448_40
  8945  002A22                     i2u448_41:
  8946  002A22  EF76  F015         	goto	i2l6047
  8947  002A26                     i2u448_40:
  8948  002A26                     i2l6039:
  8949                           
  8950                           ;MCAL/GPIO/gpio.c: 86:     }
  8951  002A26  EF94  F015         	goto	i2l674
  8952  002A2A                     i2l6041:
  8953                           
  8954                           ;MCAL/GPIO/gpio.c: 90:                 (*latx[pin->port] &= ~((uint8)1<<pin->pin));
  8955  002A2A  C001  FFD9         	movff	i2gpio_pin_logic_write@pin,fsr2l
  8956  002A2E  C002  FFDA         	movff	i2gpio_pin_logic_write@pin+1,fsr2h
  8957  002A32  30DF               	rrcf	223,w,c
  8958  002A34  32E8               	rrcf	wreg,f,c
  8959  002A36  32E8               	rrcf	wreg,f,c
  8960  002A38  0B07               	andlw	7
  8961  002A3A  6E04               	movwf	??i2_gpio_pin_logic_write^0,c
  8962  002A3C  0E01               	movlw	1
  8963  002A3E  6E05               	movwf	(??i2_gpio_pin_logic_write+1)^0,c
  8964  002A40  2A04               	incf	??i2_gpio_pin_logic_write^0,f,c
  8965  002A42  EF25  F015         	goto	i2u449_44
  8966  002A46                     i2u449_45:
  8967  002A46  90D8               	bcf	status,0,c
  8968  002A48  3605               	rlcf	(??i2_gpio_pin_logic_write+1)^0,f,c
  8969  002A4A                     i2u449_44:
  8970  002A4A  2E04               	decfsz	??i2_gpio_pin_logic_write^0,f,c
  8971  002A4C  EF23  F015         	goto	i2u449_45
  8972  002A50  5005               	movf	(??i2_gpio_pin_logic_write+1)^0,w,c
  8973  002A52  0AFF               	xorlw	255
  8974  002A54  6E06               	movwf	(??i2_gpio_pin_logic_write+2)^0,c
  8975  002A56  C001  FFD9         	movff	i2gpio_pin_logic_write@pin,fsr2l
  8976  002A5A  C002  FFDA         	movff	i2gpio_pin_logic_write@pin+1,fsr2h
  8977  002A5E  50DF               	movf	223,w,c
  8978  002A60  0B07               	andlw	7
  8979  002A62  6E07               	movwf	(??i2_gpio_pin_logic_write+3)^0,c
  8980  002A64  5007               	movf	(??i2_gpio_pin_logic_write+3)^0,w,c
  8981  002A66  0D02               	mullw	2
  8982  002A68  0EE2               	movlw	low _latx
  8983  002A6A  24F3               	addwf	243,w,c
  8984  002A6C  6ED9               	movwf	fsr2l,c
  8985  002A6E  0E00               	movlw	high _latx
  8986  002A70  20F4               	addwfc	prodh,w,c
  8987  002A72  6EDA               	movwf	fsr2h,c
  8988  002A74  CFDE F008          	movff	postinc2,??i2_gpio_pin_logic_write+4
  8989  002A78  CFDD F009          	movff	postdec2,??i2_gpio_pin_logic_write+5
  8990  002A7C  C008  FFD9         	movff	??i2_gpio_pin_logic_write+4,fsr2l
  8991  002A80  C009  FFDA         	movff	??i2_gpio_pin_logic_write+5,fsr2h
  8992  002A84  5006               	movf	(??i2_gpio_pin_logic_write+2)^0,w,c
  8993  002A86  16DF               	andwf	indf2,f,c
  8994                           
  8995                           ;MCAL/GPIO/gpio.c: 91:                 break;
  8996  002A88  EF8B  F015         	goto	i2l6049
  8997  002A8C                     i2l6043:
  8998                           
  8999                           ;MCAL/GPIO/gpio.c: 94:                 (*latx[pin->port] |= ((uint8)1<<pin->pin));
  9000  002A8C  C001  FFD9         	movff	i2gpio_pin_logic_write@pin,fsr2l
  9001  002A90  C002  FFDA         	movff	i2gpio_pin_logic_write@pin+1,fsr2h
  9002  002A94  30DF               	rrcf	223,w,c
  9003  002A96  32E8               	rrcf	wreg,f,c
  9004  002A98  32E8               	rrcf	wreg,f,c
  9005  002A9A  0B07               	andlw	7
  9006  002A9C  6E04               	movwf	??i2_gpio_pin_logic_write^0,c
  9007  002A9E  0E01               	movlw	1
  9008  002AA0  6E05               	movwf	(??i2_gpio_pin_logic_write+1)^0,c
  9009  002AA2  2A04               	incf	??i2_gpio_pin_logic_write^0,f,c
  9010  002AA4  EF56  F015         	goto	i2u450_44
  9011  002AA8                     i2u450_45:
  9012  002AA8  90D8               	bcf	status,0,c
  9013  002AAA  3605               	rlcf	(??i2_gpio_pin_logic_write+1)^0,f,c
  9014  002AAC                     i2u450_44:
  9015  002AAC  2E04               	decfsz	??i2_gpio_pin_logic_write^0,f,c
  9016  002AAE  EF54  F015         	goto	i2u450_45
  9017  002AB2  C001  FFD9         	movff	i2gpio_pin_logic_write@pin,fsr2l
  9018  002AB6  C002  FFDA         	movff	i2gpio_pin_logic_write@pin+1,fsr2h
  9019  002ABA  50DF               	movf	223,w,c
  9020  002ABC  0B07               	andlw	7
  9021  002ABE  6E06               	movwf	(??i2_gpio_pin_logic_write+2)^0,c
  9022  002AC0  5006               	movf	(??i2_gpio_pin_logic_write+2)^0,w,c
  9023  002AC2  0D02               	mullw	2
  9024  002AC4  0EE2               	movlw	low _latx
  9025  002AC6  24F3               	addwf	243,w,c
  9026  002AC8  6ED9               	movwf	fsr2l,c
  9027  002ACA  0E00               	movlw	high _latx
  9028  002ACC  20F4               	addwfc	prodh,w,c
  9029  002ACE  6EDA               	movwf	fsr2h,c
  9030  002AD0  CFDE F007          	movff	postinc2,??i2_gpio_pin_logic_write+3
  9031  002AD4  CFDD F008          	movff	postdec2,??i2_gpio_pin_logic_write+4
  9032  002AD8  C007  FFD9         	movff	??i2_gpio_pin_logic_write+3,fsr2l
  9033  002ADC  C008  FFDA         	movff	??i2_gpio_pin_logic_write+4,fsr2h
  9034  002AE0  5005               	movf	(??i2_gpio_pin_logic_write+1)^0,w,c
  9035  002AE2  12DF               	iorwf	indf2,f,c
  9036                           
  9037                           ;MCAL/GPIO/gpio.c: 95:                 break;
  9038  002AE4  EF8B  F015         	goto	i2l6049
  9039  002AE8                     i2l6045:
  9040                           
  9041                           ;MCAL/GPIO/gpio.c: 99:         }
  9042  002AE8  EF8B  F015         	goto	i2l6049
  9043  002AEC                     i2l6047:
  9044  002AEC  5003               	movf	i2gpio_pin_logic_write@pin_logic^0,w,c
  9045  002AEE  6E04               	movwf	??i2_gpio_pin_logic_write^0,c
  9046  002AF0  6A05               	clrf	(??i2_gpio_pin_logic_write+1)^0,c
  9047                           
  9048                           ; Switch on 2 bytes has been partitioned into a top level switch of size 1, and 1 sub-sw
      +                          itches
  9049                           ; Switch size 1, requested type "simple"
  9050                           ; Number of cases is 1, Range of values is 0 to 0
  9051                           ; switch strategies available:
  9052                           ; Name         Instructions Cycles
  9053                           ; simple_byte            4     3 (average)
  9054                           ;	Chosen strategy is simple_byte
  9055  002AF2  5005               	movf	(??i2_gpio_pin_logic_write+1)^0,w,c
  9056  002AF4  0A00               	xorlw	0	; case 0
  9057  002AF6  B4D8               	btfsc	status,2,c
  9058  002AF8  EF80  F015         	goto	i2l10797
  9059  002AFC  EF74  F015         	goto	i2l6045
  9060  002B00                     i2l10797:
  9061                           
  9062                           ; Switch size 1, requested type "simple"
  9063                           ; Number of cases is 2, Range of values is 0 to 1
  9064                           ; switch strategies available:
  9065                           ; Name         Instructions Cycles
  9066                           ; simple_byte            7     4 (average)
  9067                           ;	Chosen strategy is simple_byte
  9068  002B00  5004               	movf	??i2_gpio_pin_logic_write^0,w,c
  9069  002B02  0A00               	xorlw	0	; case 0
  9070  002B04  B4D8               	btfsc	status,2,c
  9071  002B06  EF15  F015         	goto	i2l6041
  9072  002B0A  0A01               	xorlw	1	; case 1
  9073  002B0C  B4D8               	btfsc	status,2,c
  9074  002B0E  EF46  F015         	goto	i2l6043
  9075  002B12  EF74  F015         	goto	i2l6045
  9076  002B16                     i2l6049:
  9077                           
  9078                           ;MCAL/GPIO/gpio.c: 100:         pin->logic=pin_logic;
  9079  002B16  C001  FFD9         	movff	i2gpio_pin_logic_write@pin,fsr2l
  9080  002B1A  C002  FFDA         	movff	i2gpio_pin_logic_write@pin+1,fsr2h
  9081  002B1E  B003               	btfsc	i2gpio_pin_logic_write@pin_logic^0,0,c
  9082  002B20  D002               	bra	i2u451_45
  9083  002B22  9EDF               	bcf	indf2,7,c
  9084  002B24  D001               	bra	i2u451_46
  9085  002B26                     i2u451_45:
  9086  002B26  8EDF               	bsf	indf2,7,c
  9087  002B28                     i2u451_46:
  9088  002B28                     i2l674:
  9089  002B28  0012               	return		;funcret
  9090  002B2A                     __end_ofi2_gpio_pin_logic_write:
  9091                           	callstack 0
  9092                           
  9093 ;; *************** function ___awmod *****************
  9094 ;; Defined at:
  9095 ;;		line 7 in file "C:\Program Files\Microchip\xc8\v2.36\pic\sources\c99\common\awmod.c"
  9096 ;; Parameters:    Size  Location     Type
  9097 ;;  dividend        2    0[COMRAM] int 
  9098 ;;  divisor         2    2[COMRAM] int 
  9099 ;; Auto vars:     Size  Location     Type
  9100 ;;  sign            1    5[COMRAM] unsigned char 
  9101 ;;  counter         1    4[COMRAM] unsigned char 
  9102 ;; Return value:  Size  Location     Type
  9103 ;;                  2    0[COMRAM] int 
  9104 ;; Registers used:
  9105 ;;		wreg, status,2, status,0
  9106 ;; Tracked objects:
  9107 ;;		On entry : 0/0
  9108 ;;		On exit  : 0/0
  9109 ;;		Unchanged: 0/0
  9110 ;; Data sizes:     COMRAM   BANK0   BANK1   BANK2   BANK3   BANK4   BANK5   BANK6   BANK7   BANK8   BANK9  BANK10  BANK1
      +1  BANK12  BANK13  BANK14  BANK15
  9111 ;;      Params:         4       0       0       0       0       0       0       0       0       0       0       0       
      +0       0       0       0       0
  9112 ;;      Locals:         2       0       0       0       0       0       0       0       0       0       0       0       
      +0       0       0       0       0
  9113 ;;      Temps:          0       0       0       0       0       0       0       0       0       0       0       0       
      +0       0       0       0       0
  9114 ;;      Totals:         6       0       0       0       0       0       0       0       0       0       0       0       
      +0       0       0       0       0
  9115 ;;Total ram usage:        6 bytes
  9116 ;; Hardware stack levels used: 1
  9117 ;; This function calls:
  9118 ;;		Nothing
  9119 ;; This function is called by:
  9120 ;;		_print_num_7seg
  9121 ;; This function uses a non-reentrant model
  9122 ;;
  9123                           
  9124                           	psect	text59
  9125  00307E                     __ptext59:
  9126                           	callstack 0
  9127  00307E                     ___awmod:
  9128                           	callstack 21
  9129  00307E  0E00               	movlw	0
  9130  003080  6E06               	movwf	___awmod@sign^0,c
  9131  003082  BE02               	btfsc	(___awmod@dividend+1)^0,7,c
  9132  003084  EF48  F018         	goto	i2u462_40
  9133  003088  EF46  F018         	goto	i2u462_41
  9134  00308C                     i2u462_41:
  9135  00308C  EF4E  F018         	goto	i2l6135
  9136  003090                     i2u462_40:
  9137  003090  6C01               	negf	___awmod@dividend^0,c
  9138  003092  1E02               	comf	(___awmod@dividend+1)^0,f,c
  9139  003094  B0D8               	btfsc	status,0,c
  9140  003096  2A02               	incf	(___awmod@dividend+1)^0,f,c
  9141  003098  0E01               	movlw	1
  9142  00309A  6E06               	movwf	___awmod@sign^0,c
  9143  00309C                     i2l6135:
  9144  00309C  BE04               	btfsc	(___awmod@divisor+1)^0,7,c
  9145  00309E  EF55  F018         	goto	i2u463_40
  9146  0030A2  EF53  F018         	goto	i2u463_41
  9147  0030A6                     i2u463_41:
  9148  0030A6  EF59  F018         	goto	i2l6139
  9149  0030AA                     i2u463_40:
  9150  0030AA  6C03               	negf	___awmod@divisor^0,c
  9151  0030AC  1E04               	comf	(___awmod@divisor+1)^0,f,c
  9152  0030AE  B0D8               	btfsc	status,0,c
  9153  0030B0  2A04               	incf	(___awmod@divisor+1)^0,f,c
  9154  0030B2                     i2l6139:
  9155  0030B2  5003               	movf	___awmod@divisor^0,w,c
  9156  0030B4  1004               	iorwf	(___awmod@divisor+1)^0,w,c
  9157  0030B6  B4D8               	btfsc	status,2,c
  9158  0030B8  EF60  F018         	goto	i2u464_41
  9159  0030BC  EF62  F018         	goto	i2u464_40
  9160  0030C0                     i2u464_41:
  9161  0030C0  EF86  F018         	goto	i2l6155
  9162  0030C4                     i2u464_40:
  9163  0030C4  0E01               	movlw	1
  9164  0030C6  6E05               	movwf	___awmod@counter^0,c
  9165  0030C8  EF6A  F018         	goto	i2l6145
  9166  0030CC                     i2l6143:
  9167  0030CC  90D8               	bcf	status,0,c
  9168  0030CE  3603               	rlcf	___awmod@divisor^0,f,c
  9169  0030D0  3604               	rlcf	(___awmod@divisor+1)^0,f,c
  9170  0030D2  2A05               	incf	___awmod@counter^0,f,c
  9171  0030D4                     i2l6145:
  9172  0030D4  AE04               	btfss	(___awmod@divisor+1)^0,7,c
  9173  0030D6  EF6F  F018         	goto	i2u465_41
  9174  0030DA  EF71  F018         	goto	i2u465_40
  9175  0030DE                     i2u465_41:
  9176  0030DE  EF66  F018         	goto	i2l6143
  9177  0030E2                     i2u465_40:
  9178  0030E2                     i2l6147:
  9179  0030E2  5003               	movf	___awmod@divisor^0,w,c
  9180  0030E4  5C01               	subwf	___awmod@dividend^0,w,c
  9181  0030E6  5004               	movf	(___awmod@divisor+1)^0,w,c
  9182  0030E8  5802               	subwfb	(___awmod@dividend+1)^0,w,c
  9183  0030EA  A0D8               	btfss	status,0,c
  9184  0030EC  EF7A  F018         	goto	i2u466_41
  9185  0030F0  EF7C  F018         	goto	i2u466_40
  9186  0030F4                     i2u466_41:
  9187  0030F4  EF80  F018         	goto	i2l6151
  9188  0030F8                     i2u466_40:
  9189  0030F8  5003               	movf	___awmod@divisor^0,w,c
  9190  0030FA  5E01               	subwf	___awmod@dividend^0,f,c
  9191  0030FC  5004               	movf	(___awmod@divisor+1)^0,w,c
  9192  0030FE  5A02               	subwfb	(___awmod@dividend+1)^0,f,c
  9193  003100                     i2l6151:
  9194  003100  90D8               	bcf	status,0,c
  9195  003102  3204               	rrcf	(___awmod@divisor+1)^0,f,c
  9196  003104  3203               	rrcf	___awmod@divisor^0,f,c
  9197  003106  2E05               	decfsz	___awmod@counter^0,f,c
  9198  003108  EF71  F018         	goto	i2l6147
  9199  00310C                     i2l6155:
  9200  00310C  5006               	movf	___awmod@sign^0,w,c
  9201  00310E  B4D8               	btfsc	status,2,c
  9202  003110  EF8C  F018         	goto	i2u467_41
  9203  003114  EF8E  F018         	goto	i2u467_40
  9204  003118                     i2u467_41:
  9205  003118  EF92  F018         	goto	i2l6159
  9206  00311C                     i2u467_40:
  9207  00311C  6C01               	negf	___awmod@dividend^0,c
  9208  00311E  1E02               	comf	(___awmod@dividend+1)^0,f,c
  9209  003120  B0D8               	btfsc	status,0,c
  9210  003122  2A02               	incf	(___awmod@dividend+1)^0,f,c
  9211  003124                     i2l6159:
  9212  003124  C001  F001         	movff	___awmod@dividend,?___awmod
  9213  003128  C002  F002         	movff	___awmod@dividend+1,?___awmod+1
  9214  00312C  0012               	return		;funcret
  9215  00312E                     __end_of___awmod:
  9216                           	callstack 0
  9217                           
  9218 ;; *************** function ___awdiv *****************
  9219 ;; Defined at:
  9220 ;;		line 7 in file "C:\Program Files\Microchip\xc8\v2.36\pic\sources\c99\common\awdiv.c"
  9221 ;; Parameters:    Size  Location     Type
  9222 ;;  dividend        2    0[COMRAM] int 
  9223 ;;  divisor         2    2[COMRAM] int 
  9224 ;; Auto vars:     Size  Location     Type
  9225 ;;  quotient        2    6[COMRAM] int 
  9226 ;;  sign            1    5[COMRAM] unsigned char 
  9227 ;;  counter         1    4[COMRAM] unsigned char 
  9228 ;; Return value:  Size  Location     Type
  9229 ;;                  2    0[COMRAM] int 
  9230 ;; Registers used:
  9231 ;;		wreg, status,2, status,0
  9232 ;; Tracked objects:
  9233 ;;		On entry : 0/0
  9234 ;;		On exit  : 0/0
  9235 ;;		Unchanged: 0/0
  9236 ;; Data sizes:     COMRAM   BANK0   BANK1   BANK2   BANK3   BANK4   BANK5   BANK6   BANK7   BANK8   BANK9  BANK10  BANK1
      +1  BANK12  BANK13  BANK14  BANK15
  9237 ;;      Params:         4       0       0       0       0       0       0       0       0       0       0       0       
      +0       0       0       0       0
  9238 ;;      Locals:         4       0       0       0       0       0       0       0       0       0       0       0       
      +0       0       0       0       0
  9239 ;;      Temps:          0       0       0       0       0       0       0       0       0       0       0       0       
      +0       0       0       0       0
  9240 ;;      Totals:         8       0       0       0       0       0       0       0       0       0       0       0       
      +0       0       0       0       0
  9241 ;;Total ram usage:        8 bytes
  9242 ;; Hardware stack levels used: 1
  9243 ;; This function calls:
  9244 ;;		Nothing
  9245 ;; This function is called by:
  9246 ;;		_print_num_7seg
  9247 ;; This function uses a non-reentrant model
  9248 ;;
  9249                           
  9250                           	psect	text60
  9251  002FBA                     __ptext60:
  9252                           	callstack 0
  9253  002FBA                     ___awdiv:
  9254                           	callstack 21
  9255  002FBA  0E00               	movlw	0
  9256  002FBC  6E06               	movwf	___awdiv@sign^0,c
  9257  002FBE  BE04               	btfsc	(___awdiv@divisor+1)^0,7,c
  9258  002FC0  EFE6  F017         	goto	i2u456_40
  9259  002FC4  EFE4  F017         	goto	i2u456_41
  9260  002FC8                     i2u456_41:
  9261  002FC8  EFEC  F017         	goto	i2l6091
  9262  002FCC                     i2u456_40:
  9263  002FCC  6C03               	negf	___awdiv@divisor^0,c
  9264  002FCE  1E04               	comf	(___awdiv@divisor+1)^0,f,c
  9265  002FD0  B0D8               	btfsc	status,0,c
  9266  002FD2  2A04               	incf	(___awdiv@divisor+1)^0,f,c
  9267  002FD4  0E01               	movlw	1
  9268  002FD6  6E06               	movwf	___awdiv@sign^0,c
  9269  002FD8                     i2l6091:
  9270  002FD8  BE02               	btfsc	(___awdiv@dividend+1)^0,7,c
  9271  002FDA  EFF3  F017         	goto	i2u457_40
  9272  002FDE  EFF1  F017         	goto	i2u457_41
  9273  002FE2                     i2u457_41:
  9274  002FE2  EFF9  F017         	goto	i2l6097
  9275  002FE6                     i2u457_40:
  9276  002FE6  6C01               	negf	___awdiv@dividend^0,c
  9277  002FE8  1E02               	comf	(___awdiv@dividend+1)^0,f,c
  9278  002FEA  B0D8               	btfsc	status,0,c
  9279  002FEC  2A02               	incf	(___awdiv@dividend+1)^0,f,c
  9280  002FEE  0E01               	movlw	1
  9281  002FF0  1A06               	xorwf	___awdiv@sign^0,f,c
  9282  002FF2                     i2l6097:
  9283  002FF2  0E00               	movlw	0
  9284  002FF4  6E08               	movwf	(___awdiv@quotient+1)^0,c
  9285  002FF6  0E00               	movlw	0
  9286  002FF8  6E07               	movwf	___awdiv@quotient^0,c
  9287  002FFA  5003               	movf	___awdiv@divisor^0,w,c
  9288  002FFC  1004               	iorwf	(___awdiv@divisor+1)^0,w,c
  9289  002FFE  B4D8               	btfsc	status,2,c
  9290  003000  EF04  F018         	goto	i2u458_41
  9291  003004  EF06  F018         	goto	i2u458_40
  9292  003008                     i2u458_41:
  9293  003008  EF2E  F018         	goto	i2l6119
  9294  00300C                     i2u458_40:
  9295  00300C  0E01               	movlw	1
  9296  00300E  6E05               	movwf	___awdiv@counter^0,c
  9297  003010  EF0E  F018         	goto	i2l6105
  9298  003014                     i2l6103:
  9299  003014  90D8               	bcf	status,0,c
  9300  003016  3603               	rlcf	___awdiv@divisor^0,f,c
  9301  003018  3604               	rlcf	(___awdiv@divisor+1)^0,f,c
  9302  00301A  2A05               	incf	___awdiv@counter^0,f,c
  9303  00301C                     i2l6105:
  9304  00301C  AE04               	btfss	(___awdiv@divisor+1)^0,7,c
  9305  00301E  EF13  F018         	goto	i2u459_41
  9306  003022  EF15  F018         	goto	i2u459_40
  9307  003026                     i2u459_41:
  9308  003026  EF0A  F018         	goto	i2l6103
  9309  00302A                     i2u459_40:
  9310  00302A                     i2l6107:
  9311  00302A  90D8               	bcf	status,0,c
  9312  00302C  3607               	rlcf	___awdiv@quotient^0,f,c
  9313  00302E  3608               	rlcf	(___awdiv@quotient+1)^0,f,c
  9314  003030  5003               	movf	___awdiv@divisor^0,w,c
  9315  003032  5C01               	subwf	___awdiv@dividend^0,w,c
  9316  003034  5004               	movf	(___awdiv@divisor+1)^0,w,c
  9317  003036  5802               	subwfb	(___awdiv@dividend+1)^0,w,c
  9318  003038  A0D8               	btfss	status,0,c
  9319  00303A  EF21  F018         	goto	i2u460_41
  9320  00303E  EF23  F018         	goto	i2u460_40
  9321  003042                     i2u460_41:
  9322  003042  EF28  F018         	goto	i2l6115
  9323  003046                     i2u460_40:
  9324  003046  5003               	movf	___awdiv@divisor^0,w,c
  9325  003048  5E01               	subwf	___awdiv@dividend^0,f,c
  9326  00304A  5004               	movf	(___awdiv@divisor+1)^0,w,c
  9327  00304C  5A02               	subwfb	(___awdiv@dividend+1)^0,f,c
  9328  00304E  8007               	bsf	___awdiv@quotient^0,0,c
  9329  003050                     i2l6115:
  9330  003050  90D8               	bcf	status,0,c
  9331  003052  3204               	rrcf	(___awdiv@divisor+1)^0,f,c
  9332  003054  3203               	rrcf	___awdiv@divisor^0,f,c
  9333  003056  2E05               	decfsz	___awdiv@counter^0,f,c
  9334  003058  EF15  F018         	goto	i2l6107
  9335  00305C                     i2l6119:
  9336  00305C  5006               	movf	___awdiv@sign^0,w,c
  9337  00305E  B4D8               	btfsc	status,2,c
  9338  003060  EF34  F018         	goto	i2u461_41
  9339  003064  EF36  F018         	goto	i2u461_40
  9340  003068                     i2u461_41:
  9341  003068  EF3A  F018         	goto	i2l6123
  9342  00306C                     i2u461_40:
  9343  00306C  6C07               	negf	___awdiv@quotient^0,c
  9344  00306E  1E08               	comf	(___awdiv@quotient+1)^0,f,c
  9345  003070  B0D8               	btfsc	status,0,c
  9346  003072  2A08               	incf	(___awdiv@quotient+1)^0,f,c
  9347  003074                     i2l6123:
  9348  003074  C007  F001         	movff	___awdiv@quotient,?___awdiv
  9349  003078  C008  F002         	movff	___awdiv@quotient+1,?___awdiv+1
  9350  00307C  0012               	return		;funcret
  9351  00307E                     __end_of___awdiv:
  9352                           	callstack 0
  9353                           
  9354 ;; *************** function _I2C_SlaveIsTxBufEmpty *****************
  9355 ;; Defined at:
  9356 ;;		line 381 in file "mcc_generated_files/i2c_slave.c"
  9357 ;; Parameters:    Size  Location     Type
  9358 ;;		None
  9359 ;; Auto vars:     Size  Location     Type
  9360 ;;		None
  9361 ;; Return value:  Size  Location     Type
  9362 ;;                  1    wreg      _Bool 
  9363 ;; Registers used:
  9364 ;;		wreg
  9365 ;; Tracked objects:
  9366 ;;		On entry : 0/0
  9367 ;;		On exit  : 0/0
  9368 ;;		Unchanged: 0/0
  9369 ;; Data sizes:     COMRAM   BANK0   BANK1   BANK2   BANK3   BANK4   BANK5   BANK6   BANK7   BANK8   BANK9  BANK10  BANK1
      +1  BANK12  BANK13  BANK14  BANK15
  9370 ;;      Params:         0       0       0       0       0       0       0       0       0       0       0       0       
      +0       0       0       0       0
  9371 ;;      Locals:         0       0       0       0       0       0       0       0       0       0       0       0       
      +0       0       0       0       0
  9372 ;;      Temps:          0       0       0       0       0       0       0       0       0       0       0       0       
      +0       0       0       0       0
  9373 ;;      Totals:         0       0       0       0       0       0       0       0       0       0       0       0       
      +0       0       0       0       0
  9374 ;;Total ram usage:        0 bytes
  9375 ;; Hardware stack levels used: 1
  9376 ;; This function calls:
  9377 ;;		Nothing
  9378 ;; This function is called by:
  9379 ;;		_I2C_Isr
  9380 ;; This function uses a non-reentrant model
  9381 ;;
  9382                           
  9383                           	psect	text61
  9384  00390A                     __ptext61:
  9385                           	callstack 0
  9386  00390A                     _I2C_SlaveIsTxBufEmpty:
  9387                           	callstack 24
  9388  00390A                     
  9389                           ;mcc_generated_files/i2c_slave.c: 383:     return !SSPSTATbits.BF;
  9390  00390A  A0C7               	btfss	199,0,c	;volatile
  9391  00390C  EF8A  F01C         	goto	i2u618_41
  9392  003910  EF8D  F01C         	goto	i2u618_40
  9393  003914                     i2u618_41:
  9394  003914  0E01               	movlw	1
  9395  003916  EF8E  F01C         	goto	i2u619_40
  9396  00391A                     i2u618_40:
  9397  00391A  0E00               	movlw	0
  9398  00391C                     i2u619_40:
  9399  00391C  0012               	return		;funcret
  9400  00391E                     __end_of_I2C_SlaveIsTxBufEmpty:
  9401                           	callstack 0
  9402                           
  9403 ;; *************** function _I2C_SlaveIsRxBufFull *****************
  9404 ;; Defined at:
  9405 ;;		line 386 in file "mcc_generated_files/i2c_slave.c"
  9406 ;; Parameters:    Size  Location     Type
  9407 ;;		None
  9408 ;; Auto vars:     Size  Location     Type
  9409 ;;		None
  9410 ;; Return value:  Size  Location     Type
  9411 ;;                  1    wreg      _Bool 
  9412 ;; Registers used:
  9413 ;;		wreg
  9414 ;; Tracked objects:
  9415 ;;		On entry : 0/0
  9416 ;;		On exit  : 0/0
  9417 ;;		Unchanged: 0/0
  9418 ;; Data sizes:     COMRAM   BANK0   BANK1   BANK2   BANK3   BANK4   BANK5   BANK6   BANK7   BANK8   BANK9  BANK10  BANK1
      +1  BANK12  BANK13  BANK14  BANK15
  9419 ;;      Params:         0       0       0       0       0       0       0       0       0       0       0       0       
      +0       0       0       0       0
  9420 ;;      Locals:         0       0       0       0       0       0       0       0       0       0       0       0       
      +0       0       0       0       0
  9421 ;;      Temps:          0       0       0       0       0       0       0       0       0       0       0       0       
      +0       0       0       0       0
  9422 ;;      Totals:         0       0       0       0       0       0       0       0       0       0       0       0       
      +0       0       0       0       0
  9423 ;;Total ram usage:        0 bytes
  9424 ;; Hardware stack levels used: 1
  9425 ;; This function calls:
  9426 ;;		Nothing
  9427 ;; This function is called by:
  9428 ;;		_I2C_Isr
  9429 ;; This function uses a non-reentrant model
  9430 ;;
  9431                           
  9432                           	psect	text62
  9433  00391E                     __ptext62:
  9434                           	callstack 0
  9435  00391E                     _I2C_SlaveIsRxBufFull:
  9436                           	callstack 24
  9437  00391E                     
  9438                           ;mcc_generated_files/i2c_slave.c: 388:     return SSPSTATbits.BF;
  9439  00391E  B0C7               	btfsc	199,0,c	;volatile
  9440  003920  EF94  F01C         	goto	i2u622_41
  9441  003924  EF97  F01C         	goto	i2u622_40
  9442  003928                     i2u622_41:
  9443  003928  0E01               	movlw	1
  9444  00392A  EF98  F01C         	goto	i2u622_46
  9445  00392E                     i2u622_40:
  9446  00392E  0E00               	movlw	0
  9447  003930                     i2u622_46:
  9448  003930  0012               	return		;funcret
  9449  003932                     __end_of_I2C_SlaveIsRxBufFull:
  9450                           	callstack 0
  9451                           
  9452 ;; *************** function _I2C_SlaveIsRead *****************
  9453 ;; Defined at:
  9454 ;;		line 351 in file "mcc_generated_files/i2c_slave.c"
  9455 ;; Parameters:    Size  Location     Type
  9456 ;;		None
  9457 ;; Auto vars:     Size  Location     Type
  9458 ;;		None
  9459 ;; Return value:  Size  Location     Type
  9460 ;;                  1    wreg      _Bool 
  9461 ;; Registers used:
  9462 ;;		wreg
  9463 ;; Tracked objects:
  9464 ;;		On entry : 0/0
  9465 ;;		On exit  : 0/0
  9466 ;;		Unchanged: 0/0
  9467 ;; Data sizes:     COMRAM   BANK0   BANK1   BANK2   BANK3   BANK4   BANK5   BANK6   BANK7   BANK8   BANK9  BANK10  BANK1
      +1  BANK12  BANK13  BANK14  BANK15
  9468 ;;      Params:         0       0       0       0       0       0       0       0       0       0       0       0       
      +0       0       0       0       0
  9469 ;;      Locals:         0       0       0       0       0       0       0       0       0       0       0       0       
      +0       0       0       0       0
  9470 ;;      Temps:          0       0       0       0       0       0       0       0       0       0       0       0       
      +0       0       0       0       0
  9471 ;;      Totals:         0       0       0       0       0       0       0       0       0       0       0       0       
      +0       0       0       0       0
  9472 ;;Total ram usage:        0 bytes
  9473 ;; Hardware stack levels used: 1
  9474 ;; This function calls:
  9475 ;;		Nothing
  9476 ;; This function is called by:
  9477 ;;		_I2C_Isr
  9478 ;;		_I2C_IsRead
  9479 ;; This function uses a non-reentrant model
  9480 ;;
  9481                           
  9482                           	psect	text63
  9483  003932                     __ptext63:
  9484                           	callstack 0
  9485  003932                     _I2C_SlaveIsRead:
  9486                           	callstack 24
  9487  003932                     
  9488                           ;mcc_generated_files/i2c_slave.c: 353:     return (SSPSTATbits.R_nW);
  9489  003932  B4C7               	btfsc	199,2,c	;volatile
  9490  003934  EF9E  F01C         	goto	i2u613_41
  9491  003938  EFA1  F01C         	goto	i2u613_40
  9492  00393C                     i2u613_41:
  9493  00393C  0E01               	movlw	1
  9494  00393E  EFA2  F01C         	goto	i2u613_46
  9495  003942                     i2u613_40:
  9496  003942  0E00               	movlw	0
  9497  003944                     i2u613_46:
  9498  003944  0012               	return		;funcret
  9499  003946                     __end_of_I2C_SlaveIsRead:
  9500                           	callstack 0
  9501                           
  9502 ;; *************** function _I2C_SlaveIsAddr *****************
  9503 ;; Defined at:
  9504 ;;		line 346 in file "mcc_generated_files/i2c_slave.c"
  9505 ;; Parameters:    Size  Location     Type
  9506 ;;		None
  9507 ;; Auto vars:     Size  Location     Type
  9508 ;;		None
  9509 ;; Return value:  Size  Location     Type
  9510 ;;                  1    wreg      _Bool 
  9511 ;; Registers used:
  9512 ;;		wreg
  9513 ;; Tracked objects:
  9514 ;;		On entry : 0/0
  9515 ;;		On exit  : 0/0
  9516 ;;		Unchanged: 0/0
  9517 ;; Data sizes:     COMRAM   BANK0   BANK1   BANK2   BANK3   BANK4   BANK5   BANK6   BANK7   BANK8   BANK9  BANK10  BANK1
      +1  BANK12  BANK13  BANK14  BANK15
  9518 ;;      Params:         0       0       0       0       0       0       0       0       0       0       0       0       
      +0       0       0       0       0
  9519 ;;      Locals:         0       0       0       0       0       0       0       0       0       0       0       0       
      +0       0       0       0       0
  9520 ;;      Temps:          0       0       0       0       0       0       0       0       0       0       0       0       
      +0       0       0       0       0
  9521 ;;      Totals:         0       0       0       0       0       0       0       0       0       0       0       0       
      +0       0       0       0       0
  9522 ;;Total ram usage:        0 bytes
  9523 ;; Hardware stack levels used: 1
  9524 ;; This function calls:
  9525 ;;		Nothing
  9526 ;; This function is called by:
  9527 ;;		_I2C_Isr
  9528 ;; This function uses a non-reentrant model
  9529 ;;
  9530                           
  9531                           	psect	text64
  9532  003946                     __ptext64:
  9533                           	callstack 0
  9534  003946                     _I2C_SlaveIsAddr:
  9535                           	callstack 24
  9536  003946                     
  9537                           ;mcc_generated_files/i2c_slave.c: 348:     return !(SSPSTATbits.D_nA);
  9538  003946  AAC7               	btfss	199,5,c	;volatile
  9539  003948  EFA8  F01C         	goto	i2u614_41
  9540  00394C  EFAB  F01C         	goto	i2u614_40
  9541  003950                     i2u614_41:
  9542  003950  0E01               	movlw	1
  9543  003952  EFAC  F01C         	goto	i2u615_40
  9544  003956                     i2u614_40:
  9545  003956  0E00               	movlw	0
  9546  003958                     i2u615_40:
  9547  003958  0012               	return		;funcret
  9548  00395A                     __end_of_I2C_SlaveIsAddr:
  9549                           	callstack 0
  9550                           
  9551 ;; *************** function _I2C_SlaveClearIrq *****************
  9552 ;; Defined at:
  9553 ;;		line 356 in file "mcc_generated_files/i2c_slave.c"
  9554 ;; Parameters:    Size  Location     Type
  9555 ;;		None
  9556 ;; Auto vars:     Size  Location     Type
  9557 ;;		None
  9558 ;; Return value:  Size  Location     Type
  9559 ;;                  1    wreg      void 
  9560 ;; Registers used:
  9561 ;;		None
  9562 ;; Tracked objects:
  9563 ;;		On entry : 0/0
  9564 ;;		On exit  : 0/0
  9565 ;;		Unchanged: 0/0
  9566 ;; Data sizes:     COMRAM   BANK0   BANK1   BANK2   BANK3   BANK4   BANK5   BANK6   BANK7   BANK8   BANK9  BANK10  BANK1
      +1  BANK12  BANK13  BANK14  BANK15
  9567 ;;      Params:         0       0       0       0       0       0       0       0       0       0       0       0       
      +0       0       0       0       0
  9568 ;;      Locals:         0       0       0       0       0       0       0       0       0       0       0       0       
      +0       0       0       0       0
  9569 ;;      Temps:          0       0       0       0       0       0       0       0       0       0       0       0       
      +0       0       0       0       0
  9570 ;;      Totals:         0       0       0       0       0       0       0       0       0       0       0       0       
      +0       0       0       0       0
  9571 ;;Total ram usage:        0 bytes
  9572 ;; Hardware stack levels used: 1
  9573 ;; This function calls:
  9574 ;;		Nothing
  9575 ;; This function is called by:
  9576 ;;		_I2C_Isr
  9577 ;; This function uses a non-reentrant model
  9578 ;;
  9579                           
  9580                           	psect	text65
  9581  003A04                     __ptext65:
  9582                           	callstack 0
  9583  003A04                     _I2C_SlaveClearIrq:
  9584                           	callstack 24
  9585  003A04                     
  9586                           ;mcc_generated_files/i2c_slave.c: 358:     PIR1bits.SSPIF = 0;
  9587  003A04  969E               	bcf	158,3,c	;volatile
  9588  003A06  0012               	return		;funcret
  9589  003A08                     __end_of_I2C_SlaveClearIrq:
  9590                           	callstack 0
  9591                           
  9592 ;; *************** function _I2C_SlaveAddrCallBack *****************
  9593 ;; Defined at:
  9594 ;;		line 267 in file "mcc_generated_files/i2c_slave.c"
  9595 ;; Parameters:    Size  Location     Type
  9596 ;;		None
  9597 ;; Auto vars:     Size  Location     Type
  9598 ;;		None
  9599 ;; Return value:  Size  Location     Type
  9600 ;;                  1    wreg      void 
  9601 ;; Registers used:
  9602 ;;		wreg, status,2, status,0, pcl, pclath, pclatu, tosl, cstack
  9603 ;; Tracked objects:
  9604 ;;		On entry : 0/0
  9605 ;;		On exit  : 0/0
  9606 ;;		Unchanged: 0/0
  9607 ;; Data sizes:     COMRAM   BANK0   BANK1   BANK2   BANK3   BANK4   BANK5   BANK6   BANK7   BANK8   BANK9  BANK10  BANK1
      +1  BANK12  BANK13  BANK14  BANK15
  9608 ;;      Params:         0       0       0       0       0       0       0       0       0       0       0       0       
      +0       0       0       0       0
  9609 ;;      Locals:         0       0       0       0       0       0       0       0       0       0       0       0       
      +0       0       0       0       0
  9610 ;;      Temps:          0       0       0       0       0       0       0       0       0       0       0       0       
      +0       0       0       0       0
  9611 ;;      Totals:         0       0       0       0       0       0       0       0       0       0       0       0       
      +0       0       0       0       0
  9612 ;;Total ram usage:        0 bytes
  9613 ;; Hardware stack levels used: 1
  9614 ;; Hardware stack levels required when called: 2
  9615 ;; This function calls:
  9616 ;;		Absolute function
  9617 ;;		_I2C_SlaveDefAddrInterruptHandler
  9618 ;; This function is called by:
  9619 ;;		_I2C_Isr
  9620 ;; This function uses a non-reentrant model
  9621 ;;
  9622                           
  9623                           	psect	text66
  9624  003808                     __ptext66:
  9625                           	callstack 0
  9626  003808                     _I2C_SlaveAddrCallBack:
  9627                           	callstack 22
  9628  003808                     
  9629                           ;mcc_generated_files/i2c_slave.c: 269:     if (I2C_SlaveAddrInterruptHandler) {
  9630  003808  0100               	movlb	0	; () banked
  9631  00380A  5184               	movf	_I2C_SlaveAddrInterruptHandler& (0+255),w,b
  9632  00380C  1185               	iorwf	(_I2C_SlaveAddrInterruptHandler+1)& (0+255),w,b
  9633  00380E  B4D8               	btfsc	status,2,c
  9634  003810  EF0C  F01C         	goto	i2u616_41
  9635  003814  EF0E  F01C         	goto	i2u616_40
  9636  003818                     i2u616_41:
  9637  003818  EF1A  F01C         	goto	i2l1680
  9638  00381C                     i2u616_40:
  9639  00381C                     
  9640                           ; BSR set to: 0
  9641                           ;mcc_generated_files/i2c_slave.c: 270:         I2C_SlaveAddrInterruptHandler();
  9642  00381C  D802               	call	i2u617_48
  9643  00381E  EF1A  F01C         	goto	i2u617_49
  9644  003822                     i2u617_48:
  9645  003822  0005               	push	
  9646  003824  6EFA               	movwf	pclath,c
  9647  003826  5184               	movf	_I2C_SlaveAddrInterruptHandler& (0+255),w,b
  9648  003828  6EFD               	movwf	tosl,c
  9649  00382A  5185               	movf	(_I2C_SlaveAddrInterruptHandler+1)& (0+255),w,b
  9650  00382C  6EFE               	movwf	tosh,c
  9651  00382E  6AFF               	clrf	tosu,c
  9652  003830  50FA               	movf	pclath,w,c
  9653  003832  0012               	return		;indir
  9654  003834                     i2u617_49:
  9655  003834                     i2l1680:
  9656  003834  0012               	return		;funcret
  9657  003836                     __end_of_I2C_SlaveAddrCallBack:
  9658                           	callstack 0
  9659                           
  9660 ;; *************** function _I2C_SlaveDefAddrInterruptHandler *****************
  9661 ;; Defined at:
  9662 ;;		line 274 in file "mcc_generated_files/i2c_slave.c"
  9663 ;; Parameters:    Size  Location     Type
  9664 ;;		None
  9665 ;; Auto vars:     Size  Location     Type
  9666 ;;		None
  9667 ;; Return value:  Size  Location     Type
  9668 ;;                  1    wreg      void 
  9669 ;; Registers used:
  9670 ;;		wreg, status,2, cstack
  9671 ;; Tracked objects:
  9672 ;;		On entry : 0/0
  9673 ;;		On exit  : 0/0
  9674 ;;		Unchanged: 0/0
  9675 ;; Data sizes:     COMRAM   BANK0   BANK1   BANK2   BANK3   BANK4   BANK5   BANK6   BANK7   BANK8   BANK9  BANK10  BANK1
      +1  BANK12  BANK13  BANK14  BANK15
  9676 ;;      Params:         0       0       0       0       0       0       0       0       0       0       0       0       
      +0       0       0       0       0
  9677 ;;      Locals:         0       0       0       0       0       0       0       0       0       0       0       0       
      +0       0       0       0       0
  9678 ;;      Temps:          0       0       0       0       0       0       0       0       0       0       0       0       
      +0       0       0       0       0
  9679 ;;      Totals:         0       0       0       0       0       0       0       0       0       0       0       0       
      +0       0       0       0       0
  9680 ;;Total ram usage:        0 bytes
  9681 ;; Hardware stack levels used: 1
  9682 ;; Hardware stack levels required when called: 1
  9683 ;; This function calls:
  9684 ;;		_I2C_SlaveGetRxData
  9685 ;; This function is called by:
  9686 ;;		_I2C_Open
  9687 ;;		_I2C_SlaveAddrCallBack
  9688 ;; This function uses a non-reentrant model
  9689 ;;
  9690                           
  9691                           	psect	text67
  9692  0039CA                     __ptext67:
  9693                           	callstack 0
  9694  0039CA                     _I2C_SlaveDefAddrInterruptHandler:
  9695                           	callstack 22
  9696  0039CA                     
  9697                           ;mcc_generated_files/i2c_slave.c: 275:     i2cSlaveAddr = I2C_SlaveGetRxData();
  9698  0039CA  EC04  F01D         	call	_I2C_SlaveGetRxData	;wreg free
  9699  0039CE  0100               	movlb	0	; () banked
  9700  0039D0  6FC0               	movwf	_i2cSlaveAddr& (0+255),b	;volatile
  9701  0039D2                     
  9702                           ; BSR set to: 0
  9703  0039D2  0012               	return		;funcret
  9704  0039D4                     __end_of_I2C_SlaveDefAddrInterruptHandler:
  9705                           	callstack 0
  9706                           
  9707 ;; *************** function _I2C_SlaveGetRxData *****************
  9708 ;; Defined at:
  9709 ;;		line 396 in file "mcc_generated_files/i2c_slave.c"
  9710 ;; Parameters:    Size  Location     Type
  9711 ;;		None
  9712 ;; Auto vars:     Size  Location     Type
  9713 ;;		None
  9714 ;; Return value:  Size  Location     Type
  9715 ;;                  1    wreg      unsigned char 
  9716 ;; Registers used:
  9717 ;;		wreg, status,2
  9718 ;; Tracked objects:
  9719 ;;		On entry : 0/0
  9720 ;;		On exit  : 0/0
  9721 ;;		Unchanged: 0/0
  9722 ;; Data sizes:     COMRAM   BANK0   BANK1   BANK2   BANK3   BANK4   BANK5   BANK6   BANK7   BANK8   BANK9  BANK10  BANK1
      +1  BANK12  BANK13  BANK14  BANK15
  9723 ;;      Params:         0       0       0       0       0       0       0       0       0       0       0       0       
      +0       0       0       0       0
  9724 ;;      Locals:         0       0       0       0       0       0       0       0       0       0       0       0       
      +0       0       0       0       0
  9725 ;;      Temps:          0       0       0       0       0       0       0       0       0       0       0       0       
      +0       0       0       0       0
  9726 ;;      Totals:         0       0       0       0       0       0       0       0       0       0       0       0       
      +0       0       0       0       0
  9727 ;;Total ram usage:        0 bytes
  9728 ;; Hardware stack levels used: 1
  9729 ;; This function calls:
  9730 ;;		Nothing
  9731 ;; This function is called by:
  9732 ;;		_I2C_SlaveDefRdInterruptHandler
  9733 ;;		_I2C_SlaveDefAddrInterruptHandler
  9734 ;;		_I2C_Read
  9735 ;; This function uses a non-reentrant model
  9736 ;;
  9737                           
  9738                           	psect	text68
  9739  003A08                     __ptext68:
  9740                           	callstack 0
  9741  003A08                     _I2C_SlaveGetRxData:
  9742                           	callstack 22
  9743  003A08                     
  9744                           ;mcc_generated_files/i2c_slave.c: 398:     return SSPBUF;
  9745  003A08  50C9               	movf	201,w,c	;volatile
  9746  003A0A  0012               	return		;funcret
  9747  003A0C                     __end_of_I2C_SlaveGetRxData:
  9748                           	callstack 0
  9749                           
  9750 ;; *************** function _ADC_ISR *****************
  9751 ;; Defined at:
  9752 ;;		line 322 in file "MCAL/ADC/adc.c"
  9753 ;; Parameters:    Size  Location     Type
  9754 ;;		None
  9755 ;; Auto vars:     Size  Location     Type
  9756 ;;		None
  9757 ;; Return value:  Size  Location     Type
  9758 ;;                  1    wreg      void 
  9759 ;; Registers used:
  9760 ;;		None
  9761 ;; Tracked objects:
  9762 ;;		On entry : 0/0
  9763 ;;		On exit  : 0/0
  9764 ;;		Unchanged: 0/0
  9765 ;; Data sizes:     COMRAM   BANK0   BANK1   BANK2   BANK3   BANK4   BANK5   BANK6   BANK7   BANK8   BANK9  BANK10  BANK1
      +1  BANK12  BANK13  BANK14  BANK15
  9766 ;;      Params:         0       0       0       0       0       0       0       0       0       0       0       0       
      +0       0       0       0       0
  9767 ;;      Locals:         0       0       0       0       0       0       0       0       0       0       0       0       
      +0       0       0       0       0
  9768 ;;      Temps:          0       0       0       0       0       0       0       0       0       0       0       0       
      +0       0       0       0       0
  9769 ;;      Totals:         0       0       0       0       0       0       0       0       0       0       0       0       
      +0       0       0       0       0
  9770 ;;Total ram usage:        0 bytes
  9771 ;; Hardware stack levels used: 1
  9772 ;; This function calls:
  9773 ;;		Nothing
  9774 ;; This function is called by:
  9775 ;;		_INTERRUPT_InterruptManager
  9776 ;; This function uses a non-reentrant model
  9777 ;;
  9778                           
  9779                           	psect	text69
  9780  003A0C                     __ptext69:
  9781                           	callstack 0
  9782  003A0C                     _ADC_ISR:
  9783                           	callstack 25
  9784  003A0C                     
  9785                           ;MCAL/ADC/adc.c: 324:     (PIR1bits.ADIF=0);;
  9786  003A0C  9C9E               	bcf	158,6,c	;volatile
  9787  003A0E  0012               	return		;funcret
  9788  003A10                     __end_of_ADC_ISR:
  9789                           	callstack 0
  9790                           
  9791                           	psect	text70
  9792  000000                     __ptext70:
  9793                           	callstack 0
  9794  000000                     
  9795                           	psect	rparam
  9796  0000                     
  9797                           	psect	temp
  9798  000066                     btemp:
  9799                           	callstack 0
  9800  000066                     	ds	1
  9801  0000                     int$flags	set	btemp
  9802  0000                     wtemp8	set	btemp+1
  9803  0000                     ttemp5	set	btemp+1
  9804  0000                     ttemp6	set	btemp+4
  9805  0000                     ttemp7	set	btemp+8
  9806                           
  9807                           	psect	config
  9808                           
  9809                           ; Padding undefined space
  9810  300000                     	org	3145728
  9811  300000  FF                 	db	255
  9812                           
  9813                           ;Config register CONFIG1H @ 0x300001
  9814                           ;	Oscillator Selection bits
  9815                           ;	OSC = HS, HS oscillator
  9816                           ;	Fail-Safe Clock Monitor Enable bit
  9817                           ;	FCMEN = OFF, Fail-Safe Clock Monitor disabled
  9818                           ;	Internal/External Oscillator Switchover bit
  9819                           ;	IESO = OFF, Oscillator Switchover mode disabled
  9820  300001                     	org	3145729
  9821  300001  02                 	db	2
  9822                           
  9823                           ;Config register CONFIG2L @ 0x300002
  9824                           ;	Power-up Timer Enable bit
  9825                           ;	PWRT = OFF, PWRT disabled
  9826                           ;	Brown-out Reset Enable bits
  9827                           ;	BOREN = OFF, Brown-out Reset disabled in hardware and software
  9828                           ;	Brown Out Reset Voltage bits
  9829                           ;	BORV = 1, 
  9830  300002                     	org	3145730
  9831  300002  09                 	db	9
  9832                           
  9833                           ;Config register CONFIG2H @ 0x300003
  9834                           ;	Watchdog Timer Enable bit
  9835                           ;	WDT = OFF, WDT disabled (control is placed on the SWDTEN bit)
  9836                           ;	Watchdog Timer Postscale Select bits
  9837                           ;	WDTPS = 32768, 1:32768
  9838  300003                     	org	3145731
  9839  300003  1E                 	db	30
  9840                           
  9841                           ; Padding undefined space
  9842  300004                     	org	3145732
  9843  300004  FF                 	db	255
  9844                           
  9845                           ;Config register CONFIG3H @ 0x300005
  9846                           ;	CCP2 MUX bit
  9847                           ;	CCP2MX = PORTC, CCP2 input/output is multiplexed with RC1
  9848                           ;	PORTB A/D Enable bit
  9849                           ;	PBADEN = OFF, PORTB<4:0> pins are configured as digital I/O on Reset
  9850                           ;	Low-Power Timer1 Oscillator Enable bit
  9851                           ;	LPT1OSC = OFF, Timer1 configured for higher power operation
  9852                           ;	MCLR Pin Enable bit
  9853                           ;	MCLRE = ON, MCLR pin enabled; RE3 input pin disabled
  9854  300005                     	org	3145733
  9855  300005  81                 	db	129
  9856                           
  9857                           ;Config register CONFIG4L @ 0x300006
  9858                           ;	Stack Full/Underflow Reset Enable bit
  9859                           ;	STVREN = ON, Stack full/underflow will cause Reset
  9860                           ;	Single-Supply ICSP Enable bit
  9861                           ;	LVP = OFF, Single-Supply ICSP disabled
  9862                           ;	Extended Instruction Set Enable bit
  9863                           ;	XINST = OFF, Instruction set extension and Indexed Addressing mode disabled (Legacy mo
      +                          de)
  9864                           ;	Background Debugger Enable bit
  9865                           ;	DEBUG = 0x1, unprogrammed default
  9866  300006                     	org	3145734
  9867  300006  81                 	db	129
  9868                           
  9869                           ; Padding undefined space
  9870  300007                     	org	3145735
  9871  300007  FF                 	db	255
  9872                           
  9873                           ;Config register CONFIG5L @ 0x300008
  9874                           ;	Code Protection bit
  9875                           ;	CP0 = OFF, Block 0 (000800-003FFFh) not code-protected
  9876                           ;	Code Protection bit
  9877                           ;	CP1 = OFF, Block 1 (004000-007FFFh) not code-protected
  9878                           ;	Code Protection bit
  9879                           ;	CP2 = OFF, Block 2 (008000-00BFFFh) not code-protected
  9880                           ;	Code Protection bit
  9881                           ;	CP3 = OFF, Block 3 (00C000-00FFFFh) not code-protected
  9882  300008                     	org	3145736
  9883  300008  0F                 	db	15
  9884                           
  9885                           ;Config register CONFIG5H @ 0x300009
  9886                           ;	Boot Block Code Protection bit
  9887                           ;	CPB = OFF, Boot block (000000-0007FFh) not code-protected
  9888                           ;	Data EEPROM Code Protection bit
  9889                           ;	CPD = OFF, Data EEPROM not code-protected
  9890  300009                     	org	3145737
  9891  300009  C0                 	db	192
  9892                           
  9893                           ;Config register CONFIG6L @ 0x30000A
  9894                           ;	Write Protection bit
  9895                           ;	WRT0 = OFF, Block 0 (000800-003FFFh) not write-protected
  9896                           ;	Write Protection bit
  9897                           ;	WRT1 = OFF, Block 1 (004000-007FFFh) not write-protected
  9898                           ;	Write Protection bit
  9899                           ;	WRT2 = OFF, Block 2 (008000-00BFFFh) not write-protected
  9900                           ;	Write Protection bit
  9901                           ;	WRT3 = OFF, Block 3 (00C000-00FFFFh) not write-protected
  9902  30000A                     	org	3145738
  9903  30000A  0F                 	db	15
  9904                           
  9905                           ;Config register CONFIG6H @ 0x30000B
  9906                           ;	Configuration Register Write Protection bit
  9907                           ;	WRTC = OFF, Configuration registers (300000-3000FFh) not write-protected
  9908                           ;	Boot Block Write Protection bit
  9909                           ;	WRTB = OFF, Boot Block (000000-0007FFh) not write-protected
  9910                           ;	Data EEPROM Write Protection bit
  9911                           ;	WRTD = OFF, Data EEPROM not write-protected
  9912  30000B                     	org	3145739
  9913  30000B  E0                 	db	224
  9914                           
  9915                           ;Config register CONFIG7L @ 0x30000C
  9916                           ;	Table Read Protection bit
  9917                           ;	EBTR0 = OFF, Block 0 (000800-003FFFh) not protected from table reads executed in other
      +                           blocks
  9918                           ;	Table Read Protection bit
  9919                           ;	EBTR1 = OFF, Block 1 (004000-007FFFh) not protected from table reads executed in other
      +                           blocks
  9920                           ;	Table Read Protection bit
  9921                           ;	EBTR2 = OFF, Block 2 (008000-00BFFFh) not protected from table reads executed in other
      +                           blocks
  9922                           ;	Table Read Protection bit
  9923                           ;	EBTR3 = OFF, Block 3 (00C000-00FFFFh) not protected from table reads executed in other
      +                           blocks
  9924  30000C                     	org	3145740
  9925  30000C  0F                 	db	15
  9926                           
  9927                           ;Config register CONFIG7H @ 0x30000D
  9928                           ;	Boot Block Table Read Protection bit
  9929                           ;	EBTRB = OFF, Boot Block (000000-0007FFh) not protected from table reads executed in ot
      +                          her blocks
  9930  30000D                     	org	3145741
  9931  30000D  40                 	db	64
  9932                           tosu	equ	0xFFF
  9933                           tosh	equ	0xFFE
  9934                           tosl	equ	0xFFD
  9935                           stkptr	equ	0xFFC
  9936                           pclatu	equ	0xFFB
  9937                           pclath	equ	0xFFA
  9938                           pcl	equ	0xFF9
  9939                           tblptru	equ	0xFF8
  9940                           tblptrh	equ	0xFF7
  9941                           tblptrl	equ	0xFF6
  9942                           tablat	equ	0xFF5
  9943                           prodh	equ	0xFF4
  9944                           prodl	equ	0xFF3
  9945                           indf0	equ	0xFEF
  9946                           postinc0	equ	0xFEE
  9947                           postdec0	equ	0xFED
  9948                           preinc0	equ	0xFEC
  9949                           plusw0	equ	0xFEB
  9950                           fsr0h	equ	0xFEA
  9951                           fsr0l	equ	0xFE9
  9952                           wreg	equ	0xFE8
  9953                           indf1	equ	0xFE7
  9954                           postinc1	equ	0xFE6
  9955                           postdec1	equ	0xFE5
  9956                           preinc1	equ	0xFE4
  9957                           plusw1	equ	0xFE3
  9958                           fsr1h	equ	0xFE2
  9959                           fsr1l	equ	0xFE1
  9960                           bsr	equ	0xFE0
  9961                           indf2	equ	0xFDF
  9962                           postinc2	equ	0xFDE
  9963                           postdec2	equ	0xFDD
  9964                           preinc2	equ	0xFDC
  9965                           plusw2	equ	0xFDB
  9966                           fsr2h	equ	0xFDA
  9967                           fsr2l	equ	0xFD9
  9968                           status	equ	0xFD8

Data Sizes:
    Strings     3
    Constant    0
    Data        93
    BSS         92
    Persistent  0
    Stack       0

Auto Spaces:
    Space          Size  Autos    Used
    COMRAM          126     76     101
    BANK0           128     32     128
    BANK1           256     23      87
    BANK2           256      0       0
    BANK3           256      0       0
    BANK4           256      0       0
    BANK5           256      0       0
    BANK6           256      0       0
    BANK7           256      0       0
    BANK8           256      0       0
    BANK9           256      0       0
    BANK10          256      0       0
    BANK11          256      0       0
    BANK12          256      0       0
    BANK13          256      0       0
    BANK14          256      0       0
    BANK15          128      0       0

Pointer List with Targets:

    vfprintf$2	PTR PTR void  size(2) Largest target is 2
		 -> sprintf@ap(COMRAM[2]), 

    vfprintf$1	PTR const unsigned char  size(2) Largest target is 3
		 -> STR_3(CODE[3]), STR_2(CODE[3]), STR_1(CODE[3]), 

    vfprintf$0	PTR struct _IO_FILE size(2) Largest target is 11
		 -> sprintf@f(COMRAM[11]), 

    S5323$source	PTR const unsigned char  size(2) Largest target is 0

    f...source	PTR const unsigned char  size(2) Largest target is 0

    S5323$buffer	PTR unsigned char  size(2) Largest target is 0

    f...buffer	PTR unsigned char  size(2) Largest target is 0

    timer2.TMR2_InterruptHandler	PTR FTN()void  size(2) Largest target is 1
		 -> Absolute function(), 

    ccp1.CCP2_InterruptHandler	PTR FTN()void  size(2) Largest target is 0

    ccp1.CCP1_InterruptHandler	PTR FTN()void  size(2) Largest target is 1
		 -> Absolute function(), 

    I2C_SlaveSetBusColIntHandler@handler	PTR FTN()void  size(2) Largest target is 1
		 -> I2C_SlaveDefBusColInterruptHandler(), 

    I2C_SlaveBusColInterruptHandler	PTR FTN()void  size(2) Largest target is 1
		 -> I2C_SlaveDefBusColInterruptHandler(), Absolute function(), 

    I2C_SlaveSetWrColIntHandler@handler	PTR FTN()void  size(2) Largest target is 1
		 -> I2C_SlaveDefWrColInterruptHandler(), 

    I2C_SlaveWrColInterruptHandler	PTR FTN()void  size(2) Largest target is 1
		 -> I2C_SlaveDefWrColInterruptHandler(), Absolute function(), 

    I2C_SlaveSetAddrIntHandler@handler	PTR FTN()void  size(2) Largest target is 1
		 -> I2C_SlaveDefAddrInterruptHandler(), 

    I2C_SlaveAddrInterruptHandler	PTR FTN()void  size(2) Largest target is 1
		 -> I2C_SlaveDefAddrInterruptHandler(), Absolute function(), 

    I2C_SlaveSetWriteIntHandler@handler	PTR FTN()void  size(2) Largest target is 1
		 -> I2C_SlaveDefWrInterruptHandler(), 

    I2C_SlaveWrInterruptHandler	PTR FTN()void  size(2) Largest target is 1
		 -> I2C_SlaveDefWrInterruptHandler(), Absolute function(), 

    I2C_SlaveSetReadIntHandler@handler	PTR FTN()void  size(2) Largest target is 1
		 -> MY_I2C_slave_ISR(), I2C_SlaveDefRdInterruptHandler(), 

    I2C_SlaveRdInterruptHandler	PTR FTN()void  size(2) Largest target is 1
		 -> MY_I2C_slave_ISR(), I2C_SlaveDefRdInterruptHandler(), Absolute function(), 

    I2C_SlaveSetIsrHandler@handler	PTR FTN()void  size(2) Largest target is 1
		 -> I2C_Isr(), 

    MSSP_InterruptHandler	PTR FTN()void  size(2) Largest target is 1
		 -> I2C_Isr(), Absolute function(), 

    EUSART_OverrunErrorHandler	PTR FTN()void  size(2) Largest target is 1
		 -> Absolute function(), 

    EUSART_FramingErrorHandler	PTR FTN()void  size(2) Largest target is 1
		 -> Absolute function(), 

    EUSART_RxInterruptHandler	PTR FTN()void  size(2) Largest target is 1
		 -> Absolute function(), 

    EUSART_ASYNC_RX_Init@_eusart.EUSART_OverrunErrorHandler	PTR FTN()void  size(2) Largest target is 0

    EUSART_ASYNC_RX_Init@_eusart.EUSART_FramingErrorHandler	PTR FTN()void  size(2) Largest target is 0

    EUSART_ASYNC_RX_Init@_eusart.EUSART_RxDefaultInterruptHandler	PTR FTN()void  size(2) Largest target is 0

    EUSART_ASYNC_RX_Init@_eusart.EUSART_TxDefaultInterruptHandler	PTR FTN()void  size(2) Largest target is 0

    EUSART_TxInterruptHandler	PTR FTN()void  size(2) Largest target is 1
		 -> Absolute function(), 

    EUSART_ASYNC_TX_Init@_eusart.EUSART_OverrunErrorHandler	PTR FTN()void  size(2) Largest target is 0

    EUSART_ASYNC_TX_Init@_eusart.EUSART_FramingErrorHandler	PTR FTN()void  size(2) Largest target is 0

    EUSART_ASYNC_TX_Init@_eusart.EUSART_RxDefaultInterruptHandler	PTR FTN()void  size(2) Largest target is 0

    EUSART_ASYNC_TX_Init@_eusart.EUSART_TxDefaultInterruptHandler	PTR FTN()void  size(2) Largest target is 0

    S3316$EUSART_OverrunErrorHandler	PTR FTN()void  size(2) Largest target is 0

    EUSART_Baud_Rate_Calculation@_eusart.EUSART_OverrunErrorHandler	PTR FTN()void  size(2) Largest target is 0

    S3316$EUSART_FramingErrorHandler	PTR FTN()void  size(2) Largest target is 0

    EUSART_Baud_Rate_Calculation@_eusart.EUSART_FramingErrorHandler	PTR FTN()void  size(2) Largest target is 0

    S3316$EUSART_RxDefaultInterruptHandler	PTR FTN()void  size(2) Largest target is 0

    EUSART_Baud_Rate_Calculation@_eusart.EUSART_RxDefaultInterruptHandler	PTR FTN()void  size(2) Largest target is 0

    S3316$EUSART_TxDefaultInterruptHandler	PTR FTN()void  size(2) Largest target is 0

    EUSART_Baud_Rate_Calculation@_eusart.EUSART_TxDefaultInterruptHandler	PTR FTN()void  size(2) Largest target is 0

    timer3_reg_wr_mode_Select@_timer.TMR3_InterruptHandler	PTR FTN()void  size(2) Largest target is 0

    Timer3_Mode_Select@_timer.TMR3_InterruptHandler	PTR FTN()void  size(2) Largest target is 0

    TMR3_InterruptHandler	PTR FTN()void  size(2) Largest target is 1
		 -> Absolute function(), 

    S3105$TMR3_InterruptHandler	PTR FTN()void  size(2) Largest target is 0

    Timer3_Init@_timer.TMR3_InterruptHandler	PTR FTN()void  size(2) Largest target is 0

    TMR2_InterruptHandler	PTR FTN()void  size(2) Largest target is 1
		 -> Absolute function(), 

    S2969$TMR2_InterruptHandler	PTR FTN()void  size(2) Largest target is 1
		 -> Absolute function(), 

    Timer2_Init@_timer.TMR2_InterruptHandler	PTR FTN()void  size(2) Largest target is 1
		 -> Absolute function(), 

    Timer2_Init@_timer	PTR const struct . size(2) Largest target is 7
		 -> timer2(BANK1[7]), 

    TIMER1_OSC_HW_select@_timer.TMR1_InterruptHandler	PTR FTN()void  size(2) Largest target is 0

    timer1_reg_wr_mode_Select@_timer.TMR1_InterruptHandler	PTR FTN()void  size(2) Largest target is 0

    Timer1_Mode_Select@_timer.TMR1_InterruptHandler	PTR FTN()void  size(2) Largest target is 0

    TMR1_InterruptHandler	PTR FTN()void  size(2) Largest target is 1
		 -> Absolute function(), 

    S2722$TMR1_InterruptHandler	PTR FTN()void  size(2) Largest target is 0

    Timer1_Init@_timer.TMR1_InterruptHandler	PTR FTN()void  size(2) Largest target is 0

    Timer0_Register_Size_Config@_timer.TMR0_InterruptHandler	PTR FTN()void  size(2) Largest target is 0

    Timer0_Mode_Select@_timer.TMR0_InterruptHandler	PTR FTN()void  size(2) Largest target is 0

    Timer0_Prescaler_Config@_timer.TMR0_InterruptHandler	PTR FTN()void  size(2) Largest target is 0

    TMR0_InterruptHandler	PTR FTN()void  size(2) Largest target is 1
		 -> Absolute function(), 

    S2552$TMR0_InterruptHandler	PTR FTN()void  size(2) Largest target is 0

    Timer0_Init@_timer.TMR0_InterruptHandler	PTR FTN()void  size(2) Largest target is 0

    SPI_Slave_Mode_GPIO_PIN_Configurations@_spi.SPI_InterruptHandler	PTR FTN()void  size(2) Largest target is 0

    SPI_Interrupt_Init@_spi.SPI_InterruptHandler	PTR FTN()void  size(2) Largest target is 0

    SPI_InterruptHandler	PTR FTN()void  size(2) Largest target is 1
		 -> Absolute function(), 

    S2149$SPI_InterruptHandler	PTR FTN()void  size(2) Largest target is 0

    SPI_Init@_spi.SPI_InterruptHandler	PTR FTN()void  size(2) Largest target is 0

    RBx_select_InterruptHandler@_interrupt.EXT_InterruptHandler_LOW	PTR FTN()void  size(2) Largest target is 0

    RBx_select_InterruptHandler@_interrupt.EXT_InterruptHandler_HIGH	PTR FTN()void  size(2) Largest target is 0

    interrupt_RBx_pin_init@_interrupt.EXT_InterruptHandler_LOW	PTR FTN()void  size(2) Largest target is 0

    interrupt_RBx_pin_init@_interrupt.EXT_InterruptHandler_HIGH	PTR FTN()void  size(2) Largest target is 0

    RB7_InterruptHandler_low	PTR FTN()void  size(2) Largest target is 1
		 -> Absolute function(), 

    RB7_InterruptHandler_high	PTR FTN()void  size(2) Largest target is 1
		 -> Absolute function(), 

    RB6_InterruptHandler_low	PTR FTN()void  size(2) Largest target is 1
		 -> Absolute function(), 

    RB6_InterruptHandler_high	PTR FTN()void  size(2) Largest target is 1
		 -> Absolute function(), 

    RB5_InterruptHandler_low	PTR FTN()void  size(2) Largest target is 1
		 -> Absolute function(), 

    RB5_InterruptHandler_high	PTR FTN()void  size(2) Largest target is 1
		 -> Absolute function(), 

    RB4_InterruptHandler_low	PTR FTN()void  size(2) Largest target is 1
		 -> Absolute function(), 

    RB4_InterruptHandler_high	PTR FTN()void  size(2) Largest target is 1
		 -> Absolute function(), 

    S1928$EXT_InterruptHandler_LOW	PTR FTN()void  size(2) Largest target is 0

    interrupt_RBx_init@_interrupt.EXT_InterruptHandler_LOW	PTR FTN()void  size(2) Largest target is 0

    S1928$EXT_InterruptHandler_HIGH	PTR FTN()void  size(2) Largest target is 0

    interrupt_RBx_init@_interrupt.EXT_InterruptHandler_HIGH	PTR FTN()void  size(2) Largest target is 0

    INTx_select_InterruptHandler@_interrupt.EXT_InterruptHandler	PTR FTN()void  size(2) Largest target is 0

    interrupt_INTx_pin_init@_interrupt.EXT_InterruptHandler	PTR FTN()void  size(2) Largest target is 0

    interrupt_INTx_edge_init@_interrupt.EXT_InterruptHandler	PTR FTN()void  size(2) Largest target is 0

    interrupt_INTx_clear_flag@_interrupt.EXT_InterruptHandler	PTR FTN()void  size(2) Largest target is 0

    interrupt_INTx_disable@_interrupt.EXT_InterruptHandler	PTR FTN()void  size(2) Largest target is 0

    S1757$EXT_InterruptHandler	PTR FTN()void  size(2) Largest target is 0

    interrupt_INTx_enable@_interrupt.EXT_InterruptHandler	PTR FTN()void  size(2) Largest target is 0

    INT2_InterruptHandler	PTR FTN()void  size(2) Largest target is 1
		 -> Absolute function(), 

    INT1_InterruptHandler	PTR FTN()void  size(2) Largest target is 1
		 -> Absolute function(), 

    INT0_InterruptHandler	PTR FTN()void  size(2) Largest target is 1
		 -> Absolute function(), 

    gpio_pin_output_low_init@pin	PTR struct . size(2) Largest target is 15
		 -> ccp1.ccp_pin(BANK1[1]), ccp1(BANK1[15]), seg_2.seven_segment_pins(BANK1[4]), seg_2(BANK1[5]), 
		 -> seg_1.seven_segment_pins(BANK1[4]), seg_1(BANK1[5]), motor2(BANK0[3]), motor1(BANK0[3]), 
		 -> led_blue(BANK0[2]), led_red(BANK0[2]), 

    gpio_pin_logic_write@pin	PTR struct . size(2) Largest target is 15
		 -> ccp1.ccp_pin(BANK1[1]), ccp1(BANK1[15]), seg_2.seven_segment_pins(BANK1[4]), seg_2(BANK1[5]), 
		 -> seg_1.seven_segment_pins(BANK1[4]), seg_1(BANK1[5]), motor2(BANK0[3]), motor1(BANK0[3]), 
		 -> led_blue(BANK0[2]), led_red(BANK0[2]), 

    gpio_pin_direction_init@pin	PTR struct . size(2) Largest target is 15
		 -> ccp1.ccp_pin(BANK1[1]), ccp1(BANK1[15]), seg_2.seven_segment_pins(BANK1[4]), seg_2(BANK1[5]), 
		 -> seg_1.seven_segment_pins(BANK1[4]), seg_1(BANK1[5]), motor2(BANK0[3]), motor1(BANK0[3]), 
		 -> led_blue(BANK0[2]), led_red(BANK0[2]), SPI_Slave_Mode_GPIO_PIN_Configurations@SS_pin(COMRAM[1]), SPI_Slave_Mode_GPIO_PIN_Configurations@SDO_pin(COMRAM[1]), 
		 -> SPI_Slave_Mode_GPIO_PIN_Configurations@SDI_pin(COMRAM[1]), SPI_Slave_Mode_GPIO_PIN_Configurations@SCK_pin(COMRAM[1]), SPI_Master_Mode_GPIO_PIN_Configurations@SDO_pin(COMRAM[1]), SPI_Master_Mode_GPIO_PIN_Configurations@SDI_pin(COMRAM[1]), 
		 -> SPI_Master_Mode_GPIO_PIN_Configurations@SCK_pin(COMRAM[1]), 

    portx	PTR volatile unsigned char [5] size(2) Largest target is 1
		 -> PORTE(BITBIGSFRlllll[1]), PORTD(BITBIGSFRlllll[1]), PORTC(BITBIGSFRlllll[1]), PORTB(BITBIGSFRlllll[1]), 
		 -> PORTA(BITBIGSFRlllll[1]), 

    latx	PTR volatile unsigned char [5] size(2) Largest target is 1
		 -> LATE(BITBIGSFRllllh[1]), LATD(BITBIGSFRllllh[1]), LATC(BITBIGSFRllllh[1]), LATB(BITBIGSFRllllh[1]), 
		 -> LATA(BITBIGSFRlllll[1]), 

    trisx	PTR volatile unsigned char [5] size(2) Largest target is 1
		 -> TRISD(ABS[1]), TRISC(ABS[1]), TRISB(ABS[1]), TRISE(ABS[1]), 
		 -> TRISA(BITBIGSFRlllll[1]), 

    CCP_Compare_Mode_Config@_ccp_obj.CCP2_InterruptHandler	PTR FTN()void  size(2) Largest target is 0

    CCP_Compare_Mode_Config@_ccp_obj.CCP1_InterruptHandler	PTR FTN()void  size(2) Largest target is 1
		 -> Absolute function(), 

    CCP_Compare_Mode_Config@_ccp_obj	PTR const struct . size(2) Largest target is 15
		 -> ccp1(BANK1[15]), 

    CCP_Capture_Mode_Config@_ccp_obj.CCP2_InterruptHandler	PTR FTN()void  size(2) Largest target is 0

    CCP_Capture_Mode_Config@_ccp_obj.CCP1_InterruptHandler	PTR FTN()void  size(2) Largest target is 1
		 -> Absolute function(), 

    CCP_Capture_Mode_Config@_ccp_obj	PTR const struct . size(2) Largest target is 15
		 -> ccp1(BANK1[15]), 

    CCP_Mode_Timer_Select@_ccp_obj.CCP2_InterruptHandler	PTR FTN()void  size(2) Largest target is 0

    CCP_Mode_Timer_Select@_ccp_obj.CCP1_InterruptHandler	PTR FTN()void  size(2) Largest target is 1
		 -> Absolute function(), 

    CCP_Mode_Timer_Select@_ccp_obj	PTR const struct . size(2) Largest target is 15
		 -> ccp1(BANK1[15]), 

    CCP_Interrupt_Config@_ccp_obj.CCP2_InterruptHandler	PTR FTN()void  size(2) Largest target is 0

    CCP_Interrupt_Config@_ccp_obj.CCP1_InterruptHandler	PTR FTN()void  size(2) Largest target is 1
		 -> Absolute function(), 

    CCP_Interrupt_Config@_ccp_obj	PTR const struct . size(2) Largest target is 15
		 -> ccp1(BANK1[15]), 

    CCP_PWM_Mode_Config@_ccp_obj.CCP2_InterruptHandler	PTR FTN()void  size(2) Largest target is 0

    CCP_PWM_Mode_Config@_ccp_obj.CCP1_InterruptHandler	PTR FTN()void  size(2) Largest target is 1
		 -> Absolute function(), 

    CCP_PWM_Mode_Config@_ccp_obj	PTR const struct . size(2) Largest target is 15
		 -> ccp1(BANK1[15]), 

    CCP2_InterruptHandler	PTR FTN()void  size(2) Largest target is 1
		 -> ccp1.CCP2_InterruptHandler(BANK1[2]), Absolute function(), 

    CCP1_InterruptHandler	PTR FTN()void  size(2) Largest target is 1
		 -> Absolute function(), 

    CCP_PWM_Stop@_ccp_obj.CCP2_InterruptHandler	PTR FTN()void  size(2) Largest target is 0

    CCP_PWM_Stop@_ccp_obj.CCP1_InterruptHandler	PTR FTN()void  size(2) Largest target is 1
		 -> Absolute function(), 

    CCP_PWM_Start@_ccp_obj.CCP2_InterruptHandler	PTR FTN()void  size(2) Largest target is 0

    CCP_PWM_Start@_ccp_obj.CCP1_InterruptHandler	PTR FTN()void  size(2) Largest target is 1
		 -> Absolute function(), 

    CCP_PWM_Start@_ccp_obj	PTR const struct . size(2) Largest target is 15
		 -> ccp1(BANK1[15]), 

    CCP_PWM_Set_Duty@_ccp_obj.CCP2_InterruptHandler	PTR FTN()void  size(2) Largest target is 0

    CCP_PWM_Set_Duty@_ccp_obj.CCP1_InterruptHandler	PTR FTN()void  size(2) Largest target is 1
		 -> Absolute function(), 

    CCP_PWM_Set_Duty@_ccp_obj	PTR const struct . size(2) Largest target is 15
		 -> ccp1(BANK1[15]), 

    CCP_DeInit@_ccp_obj.CCP2_InterruptHandler	PTR FTN()void  size(2) Largest target is 0

    CCP_DeInit@_ccp_obj.CCP1_InterruptHandler	PTR FTN()void  size(2) Largest target is 1
		 -> Absolute function(), 

    S1012$CCP2_InterruptHandler	PTR FTN()void  size(2) Largest target is 0

    CCP_Init@_ccp_obj.CCP2_InterruptHandler	PTR FTN()void  size(2) Largest target is 0

    S1012$CCP1_InterruptHandler	PTR FTN()void  size(2) Largest target is 1
		 -> Absolute function(), 

    CCP_Init@_ccp_obj.CCP1_InterruptHandler	PTR FTN()void  size(2) Largest target is 1
		 -> Absolute function(), 

    CCP_Init@_ccp_obj	PTR const struct . size(2) Largest target is 15
		 -> ccp1(BANK1[15]), 

    ADC_GetConversionResult@_adc.ADC_InterruptHandler	PTR FTN()void  size(2) Largest target is 0

    ADC_InterruptHandler	PTR FTN()void  size(2) Largest target is 1
		 -> Absolute function(), 

    S616$ADC_InterruptHandler	PTR FTN()void  size(2) Largest target is 0

    ADC_Init@_adc.ADC_InterruptHandler	PTR FTN()void  size(2) Largest target is 0

    led_off@led	PTR struct . size(2) Largest target is 2
		 -> led_blue(BANK0[2]), led_red(BANK0[2]), 

    led_on@led	PTR struct . size(2) Largest target is 2
		 -> led_blue(BANK0[2]), led_red(BANK0[2]), 

    led_init@led	PTR struct . size(2) Largest target is 2
		 -> led_blue(BANK0[2]), led_red(BANK0[2]), 

    sp__memset	PTR void  size(2) Largest target is 1
		 -> lcd_send_number_pos@number(COMRAM[1]), lcd_send_number@number(COMRAM[1]), 

    dc_motor_stop@dc_motor	PTR struct . size(2) Largest target is 3
		 -> motor2(BANK0[3]), motor1(BANK0[3]), 

    dc_motor_move_right@dc_motor	PTR struct . size(2) Largest target is 3
		 -> motor2(BANK0[3]), motor1(BANK0[3]), 

    dc_motor_init@dc_motor	PTR struct . size(2) Largest target is 3
		 -> motor2(BANK0[3]), motor1(BANK0[3]), 

    seven_segment_write@seg	PTR struct . size(2) Largest target is 5
		 -> seg_2(BANK1[5]), seg_1(BANK1[5]), 

    seven_segment_init@seg	PTR struct . size(2) Largest target is 5
		 -> seg_2(BANK1[5]), seg_1(BANK1[5]), 


Critical Paths under _main in COMRAM

    _led_on->_gpio_pin_logic_write
    _led_off->_gpio_pin_logic_write
    _dc_motor_stop->_gpio_pin_logic_write
    _dc_motor_move_right->_gpio_pin_logic_write
    _seven_segment_init->_gpio_pin_output_low_init
    _led_init->_gpio_pin_output_low_init
    _dc_motor_init->_gpio_pin_output_low_init
    _gpio_pin_output_low_init->_gpio_pin_direction_init
    _gpio_pin_output_low_init->_gpio_pin_logic_write
    _CCP_PWM_Mode_Config->___fldiv
    _CCP_Compare_Mode_Config->_CCP_Mode_Timer_Select
    _CCP_Capture_Mode_Config->_CCP_Mode_Timer_Select
    _I2C_Open->_I2C_SlaveSetAddrIntHandler
    _I2C_Open->_I2C_SlaveSetBusColIntHandler
    _I2C_Open->_I2C_SlaveSetIsrHandler
    _I2C_Open->_I2C_SlaveSetReadIntHandler
    _I2C_Open->_I2C_SlaveSetWrColIntHandler
    _I2C_Open->_I2C_SlaveSetWriteIntHandler
    _CCP_PWM_Set_Duty->___fldiv
    ___fltol->___fldiv
    ___flmul->___xxtofl
    ___fldiv->___flmul
    ___fladd->___fldiv

Critical Paths under _INTERRUPT_InterruptManager in COMRAM

    _INTERRUPT_InterruptManager->_I2C_Isr
    _I2C_SlaveDefWrInterruptHandler->_I2C_SlaveSendTxData
    _I2C_SlaveRdCallBack->_MY_I2C_slave_ISR
    _MY_I2C_slave_ISR->_print_num_7seg
    _print_num_7seg->_seven_segment_write
    _seven_segment_write->i2_gpio_pin_logic_write

Critical Paths under _main in BANK0

    _Initialize->_CCP_Init
    _CCP_PWM_Mode_Config->___fltol
    _CCP_PWM_Set_Duty->___fltol
    ___fltol->___fladd
    ___fladd->___fldiv

Critical Paths under _INTERRUPT_InterruptManager in BANK0

    None.

Critical Paths under _main in BANK1

    _Initialize->_CCP_Init
    _CCP_Init->_CCP_PWM_Mode_Config
    _CCP_PWM_Mode_Config->___fltol
    _CCP_PWM_Set_Duty->___fltol

Critical Paths under _INTERRUPT_InterruptManager in BANK1

    None.

Critical Paths under _main in BANK2

    None.

Critical Paths under _INTERRUPT_InterruptManager in BANK2

    None.

Critical Paths under _main in BANK3

    None.

Critical Paths under _INTERRUPT_InterruptManager in BANK3

    None.

Critical Paths under _main in BANK4

    None.

Critical Paths under _INTERRUPT_InterruptManager in BANK4

    None.

Critical Paths under _main in BANK5

    None.

Critical Paths under _INTERRUPT_InterruptManager in BANK5

    None.

Critical Paths under _main in BANK6

    None.

Critical Paths under _INTERRUPT_InterruptManager in BANK6

    None.

Critical Paths under _main in BANK7

    None.

Critical Paths under _INTERRUPT_InterruptManager in BANK7

    None.

Critical Paths under _main in BANK8

    None.

Critical Paths under _INTERRUPT_InterruptManager in BANK8

    None.

Critical Paths under _main in BANK9

    None.

Critical Paths under _INTERRUPT_InterruptManager in BANK9

    None.

Critical Paths under _main in BANK10

    None.

Critical Paths under _INTERRUPT_InterruptManager in BANK10

    None.

Critical Paths under _main in BANK11

    None.

Critical Paths under _INTERRUPT_InterruptManager in BANK11

    None.

Critical Paths under _main in BANK12

    None.

Critical Paths under _INTERRUPT_InterruptManager in BANK12

    None.

Critical Paths under _main in BANK13

    None.

Critical Paths under _INTERRUPT_InterruptManager in BANK13

    None.

Critical Paths under _main in BANK14

    None.

Critical Paths under _INTERRUPT_InterruptManager in BANK14

    None.

Critical Paths under _main in BANK15

    None.

Critical Paths under _INTERRUPT_InterruptManager in BANK15

    None.

Call Graph Tables:

 ---------------------------------------------------------------------------------
 (Depth) Function   	        Calls       Base Space   Used Autos Params    Refs
 ---------------------------------------------------------------------------------
 (0) _main                                                 1     1      0   84743
                                             22 BANK1      1     1      0
                   _CCP_PWM_Set_Duty
                      _CCP_PWM_Start
                           _I2C_Open
         _I2C_SlaveSetReadIntHandler
                         _Initialize
                            ___flmul
                            ___fltol
                           ___xxtofl
                _dc_motor_move_right
                      _dc_motor_stop
                            _led_off
                             _led_on
 ---------------------------------------------------------------------------------
 (1) _led_on                                               4     2      2    4209
                                             35 COMRAM     3     1      2
               _gpio_pin_logic_write
 ---------------------------------------------------------------------------------
 (1) _led_off                                              4     2      2    4209
                                             35 COMRAM     3     1      2
               _gpio_pin_logic_write
 ---------------------------------------------------------------------------------
 (1) _dc_motor_stop                                        4     2      2    4392
                                             35 COMRAM     3     1      2
               _gpio_pin_logic_write
 ---------------------------------------------------------------------------------
 (1) _dc_motor_move_right                                  4     2      2    4212
                                             35 COMRAM     3     1      2
               _gpio_pin_logic_write
 ---------------------------------------------------------------------------------
 (1) _Initialize                                           0     0      0   46149
                           _CCP_Init
                     _I2C_Initialize
               _INTERRUPT_Initialize
             _PIN_MANAGER_Initialize
                        _Timer2_Init
                      _dc_motor_init
                           _led_init
                 _seven_segment_init
 ---------------------------------------------------------------------------------
 (2) _seven_segment_init                                   4     2      2    7373
                                             40 COMRAM     3     1      2
           _gpio_pin_output_low_init
 ---------------------------------------------------------------------------------
 (2) _led_init                                             4     2      2    7435
                                             40 COMRAM     3     1      2
           _gpio_pin_output_low_init
 ---------------------------------------------------------------------------------
 (2) _dc_motor_init                                        4     2      2    7438
                                             40 COMRAM     3     1      2
           _gpio_pin_output_low_init
 ---------------------------------------------------------------------------------
 (2) _Timer2_Init                                          4     2      2     292
                                             25 COMRAM     3     1      2
 ---------------------------------------------------------------------------------
 (2) _PIN_MANAGER_Initialize                               0     0      0       0
 ---------------------------------------------------------------------------------
 (2) _INTERRUPT_Initialize                                 0     0      0       0
 ---------------------------------------------------------------------------------
 (2) _I2C_Initialize                                       0     0      0       0
 ---------------------------------------------------------------------------------
 (2) _CCP_Init                                             4     2      2   23611
                                             31 BANK0      1     1      0
                                             20 BANK1      2     0      2
            _CCP_Capture_Mode_Config
            _CCP_Compare_Mode_Config
               _CCP_Interrupt_Config
                _CCP_PWM_Mode_Config
           _gpio_pin_output_low_init
 ---------------------------------------------------------------------------------
 (3) _gpio_pin_output_low_init                             5     3      2    7109
                                             35 COMRAM     5     3      2
            _gpio_pin_direction_init
               _gpio_pin_logic_write
 ---------------------------------------------------------------------------------
 (2) _gpio_pin_logic_write                                10     7      3    3883
                                             25 COMRAM    10     7      3
 ---------------------------------------------------------------------------------
 (4) _gpio_pin_direction_init                             10     7      3    2153
                                             25 COMRAM    10     7      3
 ---------------------------------------------------------------------------------
 (3) _CCP_PWM_Mode_Config                                 12    10      2   14716
                                              8 BANK1     12    10      2
                            ___fladd
                            ___fldiv
                            ___flmul
                            ___fltol
                           ___xxtofl
 ---------------------------------------------------------------------------------
 (3) _CCP_Interrupt_Config                                 2     0      2     152
                                             25 COMRAM     2     0      2
 ---------------------------------------------------------------------------------
 (3) _CCP_Compare_Mode_Config                              5     3      2     558
                                             28 COMRAM     5     3      2
              _CCP_Mode_Timer_Select
 ---------------------------------------------------------------------------------
 (3) _CCP_Capture_Mode_Config                              5     3      2     558
                                             28 COMRAM     5     3      2
              _CCP_Mode_Timer_Select
 ---------------------------------------------------------------------------------
 (4) _CCP_Mode_Timer_Select                                3     1      2     273
                                             25 COMRAM     3     1      2
 ---------------------------------------------------------------------------------
 (1) _I2C_Open                                             0     0      0     847
                 _I2C_SlaveEnableIrq
                      _I2C_SlaveOpen
         _I2C_SlaveSetAddrIntHandler
       _I2C_SlaveSetBusColIntHandler
             _I2C_SlaveSetIsrHandler
         _I2C_SlaveSetReadIntHandler
              _I2C_SlaveSetSlaveAddr
              _I2C_SlaveSetSlaveMask
        _I2C_SlaveSetWrColIntHandler
        _I2C_SlaveSetWriteIntHandler
 ---------------------------------------------------------------------------------
 (2) _I2C_SlaveSetWriteIntHandler                          2     0      2     121
                                             25 COMRAM     2     0      2
 ---------------------------------------------------------------------------------
 (2) _I2C_SlaveSetWrColIntHandler                          2     0      2     121
                                             25 COMRAM     2     0      2
 ---------------------------------------------------------------------------------
 (2) _I2C_SlaveSetSlaveMask                                1     1      0       0
 ---------------------------------------------------------------------------------
 (2) _I2C_SlaveSetSlaveAddr                                1     1      0      31
                                             25 COMRAM     1     1      0
 ---------------------------------------------------------------------------------
 (1) _I2C_SlaveSetReadIntHandler                           2     0      2     211
                                             25 COMRAM     2     0      2
 ---------------------------------------------------------------------------------
 (2) _I2C_SlaveSetIsrHandler                               2     0      2     121
                                             25 COMRAM     2     0      2
 ---------------------------------------------------------------------------------
 (2) _I2C_SlaveSetBusColIntHandler                         2     0      2     121
                                             25 COMRAM     2     0      2
 ---------------------------------------------------------------------------------
 (2) _I2C_SlaveSetAddrIntHandler                           2     0      2     121
                                             25 COMRAM     2     0      2
 ---------------------------------------------------------------------------------
 (2) _I2C_SlaveOpen                                        0     0      0       0
 ---------------------------------------------------------------------------------
 (2) _I2C_SlaveEnableIrq                                   0     0      0       0
 ---------------------------------------------------------------------------------
 (1) _CCP_PWM_Start                                        4     2      2     199
                                             25 COMRAM     3     1      2
 ---------------------------------------------------------------------------------
 (1) _CCP_PWM_Set_Duty                                    12     9      3   14825
                                              8 BANK1     11     8      3
                            ___fladd
                            ___fldiv
                            ___flmul
                            ___fltol
                           ___xxtofl
 ---------------------------------------------------------------------------------
 (1) ___xxtofl                                            14    10      4    1466
                                             25 COMRAM    14    10      4
 ---------------------------------------------------------------------------------
 (1) ___fltol                                             10     6      4     757
                                             29 BANK0      2     2      0
                                              0 BANK1      8     4      4
                            ___fladd (ARG)
                            ___fldiv (ARG)
                            ___flmul (ARG)
                           ___xxtofl (ARG)
 ---------------------------------------------------------------------------------
 (1) ___flmul                                             25    17      8    3233
                                             39 COMRAM    25    17      8
                           ___xxtofl (ARG)
 ---------------------------------------------------------------------------------
 (4) ___fldiv                                             25    17      8    4283
                                             64 COMRAM    12     4      8
                                              0 BANK0     13    13      0
                            ___flmul (ARG)
                           ___xxtofl (ARG)
 ---------------------------------------------------------------------------------
 (4) ___fladd                                             16     8      8    4602
                                             13 BANK0     16     8      8
                            ___fldiv (ARG)
                            ___flmul (ARG)
                           ___xxtofl (ARG)
 ---------------------------------------------------------------------------------
 Estimated maximum stack depth 4
 ---------------------------------------------------------------------------------
 (Depth) Function   	        Calls       Base Space   Used Autos Params    Refs
 ---------------------------------------------------------------------------------
 (5) _INTERRUPT_InterruptManager                           6     6      0    1805
                                             19 COMRAM     6     6      0
                   Absolute function *
                            _ADC_ISR
                            _I2C_Isr *
                           _INT0_ISR
                           _INT1_ISR
                           _INT2_ISR
                            _RB4_ISR
                            _RB5_ISR
                            _RB6_ISR
                           _TMR0_ISR
 ---------------------------------------------------------------------------------
 (6) _TMR0_ISR                                             0     0      0       0
 ---------------------------------------------------------------------------------
 (6) _RB6_ISR                                              1     1      0      44
                                              0 COMRAM     1     1      0
 ---------------------------------------------------------------------------------
 (6) _RB5_ISR                                              1     1      0      44
                                              0 COMRAM     1     1      0
 ---------------------------------------------------------------------------------
 (6) _RB4_ISR                                              1     1      0      44
                                              0 COMRAM     1     1      0
 ---------------------------------------------------------------------------------
 (6) _INT2_ISR                                             0     0      0       0
 ---------------------------------------------------------------------------------
 (6) _INT1_ISR                                             0     0      0       0
 ---------------------------------------------------------------------------------
 (6) _INT0_ISR                                             0     0      0       0
 ---------------------------------------------------------------------------------
 (6) _I2C_Isr                                              2     2      0    1673
                                             17 COMRAM     2     2      0
              _I2C_SlaveAddrCallBack
                  _I2C_SlaveClearIrq
                    _I2C_SlaveIsAddr
                    _I2C_SlaveIsRead
               _I2C_SlaveIsRxBufFull
              _I2C_SlaveIsTxBufEmpty
                _I2C_SlaveRdCallBack
              _I2C_SlaveReleaseClock
                _I2C_SlaveWrCallBack
 ---------------------------------------------------------------------------------
 (7) _I2C_SlaveWrCallBack                                  0     0      0      22
                   Absolute function *
     _I2C_SlaveDefWrInterruptHandler *
 ---------------------------------------------------------------------------------
 (8) _I2C_SlaveDefWrInterruptHandler                       0     0      0      22
                _I2C_SlaveSendTxData
 ---------------------------------------------------------------------------------
 (9) _I2C_SlaveSendTxData                                  1     1      0      22
                                              0 COMRAM     1     1      0
 ---------------------------------------------------------------------------------
 (7) _I2C_SlaveReleaseClock                                0     0      0       0
 ---------------------------------------------------------------------------------
 (7) _I2C_SlaveRdCallBack                                  0     0      0    1651
                   Absolute function *
     _I2C_SlaveDefRdInterruptHandler *
                   _MY_I2C_slave_ISR *
 ---------------------------------------------------------------------------------
 (8) _MY_I2C_slave_ISR                                     1     1      0    1651
                                             16 COMRAM     1     1      0
                     _print_num_7seg
 ---------------------------------------------------------------------------------
 (9) _print_num_7seg                                       1     1      0    1628
                                             15 COMRAM     1     1      0
                            ___awdiv
                            ___awmod
                _seven_segment_write
 ---------------------------------------------------------------------------------
 (10) _seven_segment_write                                 7     4      3     684
                                              9 COMRAM     6     3      3
                            ___awdiv (ARG)
                            ___awmod (ARG)
             i2_gpio_pin_logic_write
 ---------------------------------------------------------------------------------
 (11) i2_gpio_pin_logic_write                             10     7      3     282
                                              0 COMRAM     9     6      3
 ---------------------------------------------------------------------------------
 (10) ___awmod                                             6     2      4     448
                                              0 COMRAM     6     2      4
 ---------------------------------------------------------------------------------
 (10) ___awdiv                                             8     4      4     452
                                              0 COMRAM     8     4      4
 ---------------------------------------------------------------------------------
 (8) _I2C_SlaveDefRdInterruptHandler                       0     0      0       0
                 _I2C_SlaveGetRxData
 ---------------------------------------------------------------------------------
 (7) _I2C_SlaveIsTxBufEmpty                                0     0      0       0
 ---------------------------------------------------------------------------------
 (7) _I2C_SlaveIsRxBufFull                                 0     0      0       0
 ---------------------------------------------------------------------------------
 (7) _I2C_SlaveIsRead                                      0     0      0       0
 ---------------------------------------------------------------------------------
 (7) _I2C_SlaveIsAddr                                      0     0      0       0
 ---------------------------------------------------------------------------------
 (7) _I2C_SlaveClearIrq                                    0     0      0       0
 ---------------------------------------------------------------------------------
 (7) _I2C_SlaveAddrCallBack                                0     0      0       0
                   Absolute function *
   _I2C_SlaveDefAddrInterruptHandler *
 ---------------------------------------------------------------------------------
 (8) _I2C_SlaveDefAddrInterruptHandler                     0     0      0       0
                 _I2C_SlaveGetRxData
 ---------------------------------------------------------------------------------
 (9) _I2C_SlaveGetRxData                                   0     0      0       0
 ---------------------------------------------------------------------------------
 (8) Absolute function(Fake)                               0     0      0       0
 ---------------------------------------------------------------------------------
 (6) _ADC_ISR                                              0     0      0       0
 ---------------------------------------------------------------------------------
 Estimated maximum stack depth 11
 ---------------------------------------------------------------------------------

 Call Graph Graphs:

 _main (ROOT)
   _CCP_PWM_Set_Duty
     ___fladd
       ___fldiv (ARG)
         ___flmul (ARG)
           ___xxtofl (ARG)
         ___xxtofl (ARG)
       ___flmul (ARG)
       ___xxtofl (ARG)
     ___fldiv
     ___flmul
     ___fltol
       ___fladd (ARG)
       ___fldiv (ARG)
       ___flmul (ARG)
       ___xxtofl (ARG)
     ___xxtofl
   _CCP_PWM_Start
   _I2C_Open
     _I2C_SlaveEnableIrq
     _I2C_SlaveOpen
     _I2C_SlaveSetAddrIntHandler
     _I2C_SlaveSetBusColIntHandler
     _I2C_SlaveSetIsrHandler
     _I2C_SlaveSetReadIntHandler
     _I2C_SlaveSetSlaveAddr
     _I2C_SlaveSetSlaveMask
     _I2C_SlaveSetWrColIntHandler
     _I2C_SlaveSetWriteIntHandler
   _I2C_SlaveSetReadIntHandler
   _Initialize
     _CCP_Init
       _CCP_Capture_Mode_Config
         _CCP_Mode_Timer_Select
       _CCP_Compare_Mode_Config
         _CCP_Mode_Timer_Select
       _CCP_Interrupt_Config
       _CCP_PWM_Mode_Config
         ___fladd
         ___fldiv
         ___flmul
         ___fltol
         ___xxtofl
       _gpio_pin_output_low_init
         _gpio_pin_direction_init
         _gpio_pin_logic_write
     _I2C_Initialize
     _INTERRUPT_Initialize
     _PIN_MANAGER_Initialize
     _Timer2_Init
     _dc_motor_init
       _gpio_pin_output_low_init
     _led_init
       _gpio_pin_output_low_init
     _seven_segment_init
       _gpio_pin_output_low_init
   ___flmul
   ___fltol
   ___xxtofl
   _dc_motor_move_right
     _gpio_pin_logic_write
   _dc_motor_stop
     _gpio_pin_logic_write
   _led_off
     _gpio_pin_logic_write
   _led_on
     _gpio_pin_logic_write

 _INTERRUPT_InterruptManager (ROOT)
   Absolute function(Fake) *
   _ADC_ISR *
   _I2C_Isr *
     _I2C_SlaveAddrCallBack
       Absolute function(Fake) *
       _I2C_SlaveDefAddrInterruptHandler *
         _I2C_SlaveGetRxData
     _I2C_SlaveClearIrq
     _I2C_SlaveIsAddr
     _I2C_SlaveIsRead
     _I2C_SlaveIsRxBufFull
     _I2C_SlaveIsTxBufEmpty
     _I2C_SlaveRdCallBack
       Absolute function(Fake) *
       _I2C_SlaveDefRdInterruptHandler *
         _I2C_SlaveGetRxData
       _MY_I2C_slave_ISR *
         _print_num_7seg
           ___awdiv
           ___awmod
           _seven_segment_write
             ___awdiv (ARG)
             ___awmod (ARG)
             i2_gpio_pin_logic_write (ARG)
     _I2C_SlaveReleaseClock
     _I2C_SlaveWrCallBack
       Absolute function(Fake) *
       _I2C_SlaveDefWrInterruptHandler *
         _I2C_SlaveSendTxData
   _INT0_ISR *
   _INT1_ISR *
   _INT2_ISR *
   _RB4_ISR *
   _RB5_ISR *
   _RB6_ISR *
   _TMR0_ISR *

 Address spaces:
Name               Size   Autos  Total    Cost      Usage
BIGRAM             F7F      0       0      49        0.0%
EEDATA             400      0       0       0        0.0%
BITBANK14          100      0       0      33        0.0%
BANK14             100      0       0      34        0.0%
BITBANK13          100      0       0      31        0.0%
BANK13             100      0       0      32        0.0%
BITBANK12          100      0       0      29        0.0%
BANK12             100      0       0      30        0.0%
BITBANK11          100      0       0      27        0.0%
BANK11             100      0       0      28        0.0%
BITBANK10          100      0       0      25        0.0%
BANK10             100      0       0      26        0.0%
BITBANK9           100      0       0      23        0.0%
BANK9              100      0       0      24        0.0%
BITBANK8           100      0       0      21        0.0%
BANK8              100      0       0      22        0.0%
BITBANK7           100      0       0      19        0.0%
BANK7              100      0       0      20        0.0%
BITBANK6           100      0       0      17        0.0%
BANK6              100      0       0      18        0.0%
BITBANK5           100      0       0      15        0.0%
BANK5              100      0       0      16        0.0%
BITBANK4           100      0       0      13        0.0%
BANK4              100      0       0      14        0.0%
BITBANK3           100      0       0      10        0.0%
BANK3              100      0       0      11        0.0%
BITBANK2           100      0       0       8        0.0%
BANK2              100      0       0       9        0.0%
BITBANK1           100      0       0       6        0.0%
BANK1              100     17      57       7       34.0%
BITBANK15           80      0       0      35        0.0%
BANK15              80      0       0      36        0.0%
BITBANK0            80      0       0       4        0.0%
BANK0               80     20      80       5      100.0%
BITCOMRAM           7E      0       0       0        0.0%
COMRAM              7E     4C      65       1       80.2%
BITBIGSFRhlhlhh     18      0       0      38        0.0%
BITBIGSFRhh          D      0       0      37        0.0%
BITBIGSFRlllhh       6      0       0      46        0.0%
BITBIGSFRllhllh      4      0       0      43        0.0%
BITBIGSFRhlhllh      4      0       0      39        0.0%
BITBIGSFRllllh       4      0       0      47        0.0%
BITBIGSFRllhllh      4      0       0      44        0.0%
BITBIGSFRlllll       4      0       0      48        0.0%
BITBIGSFRllhllh      1      0       0      42        0.0%
BITBIGSFRllhlh       1      0       0      41        0.0%
BITBIGSFRllhh        1      0       0      40        0.0%
BITBIGSFRllhlll      1      0       0      45        0.0%
BIGSFR               0      0       0     200        0.0%
BITSFR               0      0       0     200        0.0%
SFR                  0      0       0     200        0.0%
STACK                0      0       0       2        0.0%
NULL                 0      0       0       0        0.0%
ABS                  0      0     13C      12        0.0%
DATA                 0      0     13C       3        0.0%
CODE                 0      0       0       0        0.0%


Microchip Technology PIC18 Macro Assembler V2.36 build 20220127204148 
Symbol Table                                                                                   Tue Mar 05 21:27:22 2024

                             ?_print_num_7seg 0001                                  ___fldiv@aexp 00CE  
                                ___fldiv@bexp 00CD                                             _n 0065  
                                ___fldiv@sign 00C6                   gpio_pin_output_low_init@pin 0024  
                 gpio_pin_output_low_init@ret 0028                                   _SSPSTATbits 000FC7  
                                          l13 373C                                            l61 3616  
                                          l71 35C2                                            l56 36B2  
                                ___awdiv@sign 0006                                           l252 3666  
                                         l262 356E                                           l257 351A  
                                         l526 2140                                           l462 2D44  
                                         l535 33A0                                           l529 3776  
                                         l538 33A0                                           l469 2D9E  
                                         l582 25EE                                           l487 2486  
                                         l559 2C68                                           l655 2892  
                                         l496 34C6                                           l674 2740  
                                         l695 340C          __end_of_I2C_SlaveSetBusColIntHandler 39B6  
                _I2C_SlaveSetBusColIntHandler 39AC                                           _PR2 000FCB  
                       ??_I2C_SlaveRdCallBack 0012                        ??_gpio_pin_logic_write 001D  
                         _I2C_SlaveSendTxData 39E4                               __end_of_ADC_ISR 3A10  
               I2C_SlaveSetSlaveMask@maskAddr 0001                               __end_of_I2C_Isr 2FBA  
                                ___awmod@sign 0006                                           prod 000FF3  
                  seven_segment_init@gpio_ret 002B                                           tosl 000FFD  
                                         wreg 000FE8                           _I2C_SlaveWrCallBack 37AC  
                                ___flmul@aexp 0035                                  ___flmul@bexp 003A  
                   _RB5_InterruptHandler_high 00AE                                  ___flmul@sign 0034  
                                ___flmul@temp 003F                                  ___flmul@prod 003B  
                             __end_of_RB4_ISR 390A                               __end_of_RB5_ISR 38F0  
                             __end_of_RB6_ISR 38D6                                  ___fltol@exp1 00E0  
                                        l1216 31D2                                          l1218 3248  
                                        l2216 2EBC                                          l1610 346A  
                                        l2501 1C8C                                          l2503 1AEC  
                                        l1607 3968                                          l2512 1B32  
                                        l1713 39DA                                          l2514 1BAA  
                                        l2506 1AB0                                          l1482 39EE  
                                        l2515 1B98                                          l1707 38BA  
                                        l2540 1782                                          l1716 3A10  
                                        l2533 158C                                          l1653 39AA  
                                        l2550 18B2                                          l2542 17FA  
                                        l2447 11F6                                          l2543 17E8  
                                        l1719 39F2                                          l2464 1310  
                                        l2456 14C6                                          l2448 11E4  
                                        l1656 39A0                                          l2473 13E0  
                                        l2449 11AA                                          l2537 18F0  
                                        l1841 3330                                          l2474 13CE  
                                        l1666 398C                                          l1907 29DA  
                                        l1676 39BE                                          l2581 2230  
                                        l2574 2198                                          l1686 3996  
                                        l1791 387E                                          l1696 39B4  
                                        l2577 22F4                                          l2588 228C  
                                        l9001 3372                                          l9003 337A  
                                        l9011 2754                                          l9101 112C  
                                        l9005 3398                                          l9021 284C  
                                        l9013 2776                                          l9111 1140  
                                        l9103 1130                                          l9023 2850  
                                        l9015 2786                                          l9007 2742  
                                        l9201 13B0                                          l9121 1192  
                                        l9113 1144                                          l9105 1134  
                                        l9041 1022                                          l9025 287A  
                                        l9017 278E                                          l9009 2742  
                                        l9211 140A                                          l9203 13C6  
                                        l9131 11D6                                          l9123 11A2  
                                        l9107 1138                                          l9115 1148  
                                        l9051 1056                                          l9043 1024  
                                        l9027 288C                                          l9019 27F0  
                                        l9221 1486                                          l9213 1444  
                                        l9133 11D8                                          l9125 11B8  
                                        l9117 114C                                          l9109 113C  
                                        l9061 1088                                          l9045 1034  
                                        l9053 105E                                          l9037 1006  
                                        l9301 1A54                                          l9029 2890  
                                        l9231 14A6                                          l9223 148A  
                                        l9207 13F0                                          l9215 1446  
                                        l9151 1260                                          l9143 1228  
                                        l9135 11E2                                          l9127 11C4  
                                        l9119 1176                                          l9071 10BE  
                                        l9063 108E                                          l9055 106E  
                                        l9047 1044                                          l9039 1014  
                                        l9311 1AA0                                          l9303 1A64  
                                        l9233 14B4                                          l9225 1498  
                                        l9217 1456                                          l9209 13FC  
                                        l9153 1264                                          l9145 1238  
                                        l9137 1204                                          l9161 1284  
                                        l9129 11C8                                          l9081 10FA  
                                        l9073 10CE                                          l9065 109C  
                                        l9057 1074                                          l9049 1054  
                                        l9321 1AEA                                          l9313 1AAE  
                                        l9305 1A74                                          l9241 1900  
                                        l9401 1546                                          l9235 14B6  
                                        l9227 149E                                          l9219 1466  
                                        l9163 12AA                                          l9171 1300  
                                        l9155 1272                                          l9147 1246  
                                        l9139 1214                                          l9091 1118  
                                        l9083 1108                                          l9075 10D0  
                                        l9067 109E                                          l9059 1086  
                                        l9331 1B30                                          l9323 1AFC  
                                        l9315 1ABA                                          l9307 1A7C  
                                        l9251 1940                                          l9243 190E  
                                        l9411 159C                                          l9403 1556  
                                        l9229 14A0                                          l9181 1354  
                                        l9173 1326                                          l9165 12DE  
                                        l9157 1274                                          l9149 1254  
                                        l9093 111C                                          l9085 110C  
                                        l9069 10AE                                          l9077 10D8  
                                        l9341 1B90                                          l9325 1B12  
                                        l9333 1B42                                          l9317 1AD8  
                                        l9309 1A8C                                          l9261 1966  
                                        l9253 1942                                          l9245 1910  
                                        l9501 18DC                                          l9421 15D6  
                                        l9413 15AC                                          l9405 1566  
                                        l9191 137E                                          l9183 1362  
                                        l9175 1336                                          l9167 12E0  
                                        l9159 127E                                          l9095 1120  
                                        l9087 1110                                          l9079 10E8  
                                        l9351 1BFE                                          l9335 1B50  
                                        l9327 1B18                                          l9319 1ADA  
                                        l9271 19A6                                          l9263 1974  
                                        l9247 1920                                          l9255 194A  
                                        l9239 18F2                                          l9503 18E0  
                                        l9431 1628                                          l9423 15EC  
                                        l9407 1576                                          l9193 138E  
                                        l9185 1364                                          l9169 12F0  
                                        l9097 1124                                          l9089 1114  
                                        l9361 1C68                                          l9345 1BBA  
                                        l9353 1C02                                          l9337 1B54  
                                        l9329 1B22                                          l9281 19E6  
                                        l9273 19A8                                          l9265 1976  
                                        l9257 195A                                          l9249 1930  
                                        l9441 166E                                          l9433 1636  
                                        l9425 15F8                                          l9417 15C0  
                                        l9409 157C                                          l9521 2E18  
                                        l9513 2DD0                                          l9601 33B8  
                                        l9187 1372                                          l9179 134A  
                                        l9195 1390                                          l9099 1128  
                                        l9363 1C6C                                          l9355 1C1C  
                                        l9347 1BC6                                          l9339 1B62  
                                        l9291 1A16                                          l9283 19EE  
                                        l9267 1986                                          l9275 19B0  
                                        l9259 1960                                          l9451 16DC  
                                        l9443 1688                                          l9435 1642  
                                        l9427 1610                                          l9419 15CC  
                                        l9531 2E4A                                          l9523 2E26  
                                        l9515 2DFE                                          l9507 2DA0  
                                        l9603 33DA                                          l9189 137A  
                                        l9197 139E                                          l9365 1C7A  
                                        l9357 1C32                                          l9349 1BD4  
                                        l9293 1A16                                          l9285 19F2  
                                        l9277 19C0                                          l9269 1996  
                                        l9461 1772                                          l9453 1706  
                                        l9445 1698                                          l9437 1652  
                                        l9429 161C                                          l9381 14E2  
                                        l9541 2E7A                                          l9533 2E56  
                                        l9517 2E02                                          l9509 2DBA  
                                        l9701 2562                                          l9605 33E2  
                                        l9199 13A2                                          l9367 1C80  
                                        l9359 1C4C                                          l9279 19D6  
                                        l9471 17B2                                          l9463 1780  
                                        l9455 173C                                          l9447 16B4  
                                        l9439 165E                                          l9391 151A  
                                        l9383 14E4                                          l9543 2E8A  
                                        l9519 2E12                                          l9551 2144  
                                        l9703 256E                                          l9711 2592  
                                        l9607 3406                                          l9369 1C82  
                                        l9297 1A2A                                          l9289 1A06  
                                        l9481 1824                                          l9473 17E0  
                                        l9465 1792                                          l9457 174A  
                                        l9449 16C0                                          l9393 152A  
                                        l9385 14F4                                          l9377 14C8  
                                        l9545 2E9A                                          l9529 2E3E  
                                        l9553 2154                                          l9641 2B7A  
                                        l9633 2B4A                                          l9705 257A  
                                        l9713 25E0                                          l9609 340A  
                                        l9299 1A44                                          l9491 189A  
                                        l9483 184E                                          l9467 17A0  
                                        l9459 1768                                          l9395 1530  
                                        l9387 1504                                          l9379 14D4  
                                        l9547 2EAC                                          l9539 2E6A  
                                        l9571 221A                                          l9563 21D2  
                                        l9555 2162                                          l9651 2BF0  
                                        l9635 2B56                                          l9643 2B82  
                                        l9627 2B2A                                          l9715 25EC  
                                        l9707 2586                                          l9731 20D8  
                                        l9493 18B6                                          l9477 180A  
                                        l9485 1852                                          l9469 17A4  
                                        l9397 1536                                          l9389 1514  
                                        l9581 229A                                          l9573 2226  
                                        l9565 21DA                                          l9557 21A8  
                                        l9653 2BFC                                          l9637 2B62  
                                        l9661 2C5A                                          l9645 2BC8  
                                        l9629 2B2E                                          l9741 373E  
                                        l9733 20F6                                          l9901 3230  
                                        l9495 18C6                                          l9487 186C  
                                        l9479 1816                                          l9399 1544  
                                        l9591 22E2                                          l9583 229C  
                                        l9575 2262                                          l9567 21E6  
                                        l9559 21BE                                          l9663 2C66  
                                        l9655 2C08                                          l9639 2B6E  
                                        l9751 375C                                          l9743 3742  
                                        l9735 2102                                          l9727 1F64  
                                        l9911 3248                                          l9903 3232  
                                        l9497 18D4                                          l9489 1880  
                                        l9593 22E4                                          l9585 22A0  
                                        l9577 226E                                          l9569 2218  
                                        l9649 2BE4                                          l9681 24A8  
                                        l9753 3772                                          l9745 3756  
                                        l9737 211A                                          l9729 20C0  
                                        l9921 3962                                          l9905 3234  
                                        l9841 3632                                          l9761 3712  
                                        l9499 18D6                                          l9587 22C4  
                                        l9579 227C                                          l9931 38B4  
                                        l9659 2C14                                          l9691 24E4  
                                        l9683 24B4                                          l9675 2488  
                                        l9755 3774                                          l9747 3758  
                                        l9739 2138                                          l8971 2624  
                                        l9851 2C6A                                          l9923 3966  
                                        l9915 39EC                                          l9907 3236  
                                        l9843 363E                                          l9835 3618  
                                        l9771 372A                                          l9763 3716  
                                        l9589 22D4                                          l9933 38B8  
                                        l9925 389E                                          l9941 39AC  
                                        l9685 24C0                                          l9693 24EC  
                                        l9677 248C                                          l9749 375A  
                                        l8981 26FE                                          l8973 2634  
                                        l8965 25F0                                          l9597 33A2  
                                        l9861 2CBA                                          l9853 2C7E  
                                        l9917 395A                                          l9909 3246  
                                        l9781 366C                                          l9845 3666  
                                        l9837 361C                                          l9773 372C  
                                        l9757 36FC                                          l9951 39F0  
                                        l9927 38AC                                          l9943 3984  
                                        l9687 24CC                                          l9695 253A  
                                        l8983 2728                                          l8975 263C  
                                        l8967 25F0                                          l9599 33A6  
                                        l9871 2D16                                          l9863 2CBE  
                                        l9855 2C82                                          l9919 395E  
                                        l9783 367E                                          l9839 362E  
                                        l9775 373C                                          l9759 3700  
                                        STR_1 1001                                          l9929 38B0  
                                        l9945 3998                                          l9937 39D6  
                                        l9689 24D8                                          l8985 273A  
                                        l8977 269E                                          l8969 2602  
                                        l9881 2D7A                                          l9873 2D34  
                                        l9865 2CDA                                          l9857 2C9A  
                                        l9849 2C6A                                          l9961 387A  
                                        l9953 385C                                          l9785 3682  
                                        l9769 371A                                          l9947 39B6  
                                        l9939 39A2                                          l8995 3332  
                                        l9699 2556                                          l8979 26FA  
                                        l8987 273E                                          l9883 2D82  
                                        l9875 2D44                                          l9867 2CEA  
                                        l9859 2CA2                                          l9963 387C  
                                        l9955 3874                                          l9891 31BC  
                                        l9787 36A2                                          l9779 3668  
                                        l9949 398E                                          l8997 334E  
                                        l9885 2D9A                                          l9877 2D56  
                                        l9869 2D06                                          l9957 3876  
                                        l9893 31BC                                          l9789 36B2  
                                        l9981 35C4                                          l8999 3356  
                                        l9887 2D9E                                          l9879 2D62  
                                        l9959 3878                                          l9895 31CE  
                                        l9991 3616                                          l9983 35C8  
                                        l9897 31D4                                          l9985 35DA  
                                        l9899 322E                                          l9987 35DE  
                                        l9995 3570                                          l9989 3606  
                                        l9997 3574                                          l9999 3586  
                                        _LATA 000F89                                          _LATB 000F8A  
                                        _LATC 000F8B                                          _LATD 000F8C  
                                        _LATE 000F8D                                          i2l24 32C0  
                                        u9000 14E2                                          u9001 14DE  
                                        u9010 14F4                                          u9011 14F0  
                                        u9100 17A0                                          u9020 1504  
                                        u8300 3372                                          u9101 179C  
                                        u9021 1500                                          u8301 336E  
                                        u9110 17B2                                          u9030 1544  
                                        u8310 3398                                          u8230 2602  
                                        u9111 17AE                                          u9031 1540  
                                        u8311 3394                                          u8231 25FE  
                                        u8400 1044                                          u9120 17E0  
                                        u9040 1556                                          u9200 2DF2  
                                        u8320 2754                                          u8240 2624  
                                        u8401 1040                                          u9121 17DC  
                                        u9041 1552                                          u8321 2750  
                                        u8241 2620                                          u8410 1086  
                                        u9130 17F6                                          u9050 1566  
                                        u9210 2E26                                          u8330 2776  
                                        u8250 2634                                          u8411 1082  
                                        u9131 17F2                                          u9051 1562  
                                        u9211 2E22                                          u8331 2772  
                                        u8251 2630                                          u8500 11B8  
                                        u8420 109C                                          u9140 180A  
                                        u9060 159C                                          u9220 2E3A  
                                        u9300 225E                                          u8340 2786  
                                        u8501 11B4                                          u8421 1098  
                                        u9141 1806                                          u9061 1598  
                                        u9221 2E36                                          u9205 2DE6  
                                        u9301 225A                                          u8341 2782  
                                        u8510 11D6                                          u8430 10AE  
                                        u9150 1824                                          u9070 15AC  
                                        u9230 2E66                                          u9310 227C  
                                        u8511 11D2                                          u8431 10AA  
                                        u9151 1820                                          u9071 15A8  
                                        u9231 2E62                                          u9311 2278  
                                        u8600 1326                                          u8520 11F6  
                                        u8440 10BE                                          u9160 186C  
                                        u9080 1726                                          u9240 2E8A  
                                        u9320 228C                                          u9400 2BE0  
                                        u8264 265C                                          u8601 1322  
                                        u8521 11F2                                          u8441 10BA  
                                        u9161 1868                                          u9241 2E86  
                                        u9321 2288                                          u9401 2BDC  
                                        u8265 2658                                          u8610 1336  
                                        u8530 1204                                          u8450 10FA  
                                        u9170 189A                                          u9090 1780  
                                        u9250 2E9A                                          u9330 229A  
                                        u8290 334E                                          u9410 24A4  
                                        u8354 27AE                                          u8274 26BE  
                                        u8611 1332                                          u8531 1200  
                                        u8451 10F6                                          u9171 1896  
                                        u9091 177C                                          u9251 2E96  
                                        u9331 2296                                          u8291 334A  
                                        u9411 24A0                                          u8355 27AA  
                                        u8275 26BA                                          u8700 140A  
                                        u8620 1362                                          u8540 1214  
                                        u8460 1108                                          u8380 1022  
                                        u9180 18D4                                          u9340 22D4  
                                        u9260 2154                                          u9420 2552  
                                        u8364 2810                                          u8701 1406  
                                        u8621 135E                                          u8541 1210  
                                        u8461 1104                                          u8381 101E  
                                        u9181 18D0                                          u9085 171C  
                                        u9341 22D0                                          u9261 2150  
                                        u9421 254E                                          u8365 280C  
                                        u8285 2738                                          u8710 1444  
                                        u8630 1372                                          u8550 1246  
                                        u8470 1176                                          u8390 1034  
                                        u9190 2DBA                                          u9350 22E2  
                                        u9270 2162                                          u9430 20D8  
                                        u8286 273A                                          u8711 1440  
                                        u8631 136E                                          u8551 1242  
                                        u8471 1172                                          u8391 1030  
                                        u9191 2DB6                                          u9351 22DE  
                                        u9271 215E                                          u9431 20D4  
                                        u8375 288A                                          u8720 1456  
                                        u8640 138E                                          u8560 1254  
                                        u8480 118E                                          u8800 1974  
                                        u9280 21BE                                          u9440 20F6  
                                        u8376 288C                                          u9360 33B8  
                                        u9600 2CDA                                          u8721 1452  
                                        u8641 138A                                          u8561 1250  
                                        u8481 1188                                          u8801 1970  
                                        u9281 21BA                                          u9441 20F2  
                                        u9361 33B4                                          u9601 2CD6  
                                        u8730 1466                                          u8650 139E  
                                        u8570 1272                                          u8490 1190  
                                        u8810 1986                                          u9290 2214  
                                        u9450 211A                                          u9370 33DA  
                                        u9610 2D06                                          u8731 1462  
                                        u8651 139A                                          u8571 126E  
                                        u8811 1982                                          u9291 2210  
                                        u9451 2116                                          u9371 33D6  
                                        u9611 2D02                                          u8740 1486  
                                        u8660 13B0                                          u8580 12AA  
                                        u8900 1B30                                          u8820 1996  
                                        u9460 2138                                          u9620 2D34  
                                        u9700 3586                                          u8741 1482  
                                        u8661 13AC                                          u8581 12A6  
                                        u8901 1B2C                                          u8821 1992  
                                        u9461 2134                                          u9621 2D30  
                                        u9701 3582                                          u8750 1498  
                                        u8670 13C6                                          u8590 12F0  
                                        u8910 1B50                                          u8830 19D6  
                                        u9390 2B46                                          u9630 2D7A  
                                        u9550 362E                                          u9470 3712  
                                        u8751 1494                                          u8671 13C2  
                                        u8591 12EC                                          u8911 1B4C  
                                        u8831 19D2                                          u9391 2B42  
                                        u9631 2D76                                          u9551 362A  
                                        u9471 370E                                          u8760 14B4  
                                        u8680 13DC                                          u8920 1B62  
                                        u8840 1A16                                          u9640 2D9A  
                                        u9560 3662                                          u9480 373C  
                                        u9800 3516                                          u8761 14B0  
                                        u8681 13D8                                          u8921 1B5E  
                                        u8841 1A12                                          u9641 2D96  
                                        u9561 365C                                          u9481 3738  
                                        u9801 3510                                          u8690 13F0  
                                        u8930 1B90                                          u8850 1A8C  
                                        u8770 190E                                          u9570 2C7E  
                                        u9650 31CE                                          u9490 367E  
                                        u9810 3532                                          u8691 13EC  
                                        u8931 1B8C                                          u8851 1A88  
                                        u8771 190A                                          u9571 2C7A  
                                        u9651 31CA                                          u9491 367A  
                                        u9811 352E                                          u8940 1BA6  
                                        u8860 1AAE                                          u8780 1920  
                                        u9660 38AC                                          u9580 2C9A  
                                        u9820 356A                                          u8941 1BA2  
                                        u8861 1AAA                                          u8781 191C  
                                        u9661 38A8                                          u9581 2C96  
                                        u9821 3564                                          u8950 1BBA  
                                        u8870 1AD8                                          u8790 1930  
                                        u9830 2312                                          u9590 2CBA  
                                        u9566 3664                                          u9806 3518  
                                        u8951 1BB6                                          u8871 1AD4  
                                        u8791 192C                                          u9831 230E  
                                        u9591 2CB6                                          u8960 1BD4  
                                        u8880 1AFC                                          u9840 240E  
                                        u8961 1BD0                                          u8881 1AF8  
                                        u9841 240A                                          u8970 1C1C  
                                        u8890 1B12                                          u9850 2458  
                                        u9690 35DA                                          u9826 356C  
                                        u8971 1C18                                          u8891 1B0E  
                                        u9851 2454                                          u9691 35D6  
                                        u8980 1C4C                                          u9860 347E  
                                        u8981 1C48                                          u9861 347A  
                                        u8990 1C7A                                          u9870 349A  
                                        u9790 34DE                                          u8991 1C76  
                                        u9871 3496                                          u9791 34DA  
                                        u9880 34BE                                          u9881 34BA  
                                        _TMR2 000FCC                         ??_CCP_PWM_Mode_Config 013D  
                     __end_of_I2C_SlaveIsAddr 395A                                          _ccp1 011A  
                     __end_of_I2C_SlaveIsRead 3946                     ??_CCP_Capture_Mode_Config 001F  
                                        _main 2894                                          _latx 00E2  
           I2C_SlaveSetAddrIntHandler@handler 001A                                          fsr1h 000FE2  
                                        fsr2h 000FDA                                          indf1 000FE7  
                                        indf2 000FDF                                          fsr1l 000FE1  
                                        fsr2l 000FD9                              __end_of_I2C_Open 346C  
                    ?_gpio_pin_direction_init 001A                                          btemp 0066  
                    _RB4_InterruptHandler_low 00B0                      _RB7_InterruptHandler_low 00A4  
                        ?_I2C_SlaveSendTxData 0001                                          prodh 000FF4  
                                        prodl 000FF3                                          start 000E  
             __end_of_CCP_Compare_Mode_Config 25F0                                   led_init@led 0029  
                             ___fldiv@new_exp 00C7                          ?_I2C_SlaveWrCallBack 0001  
                       __end_of_CCP_PWM_Start 34C8                         _CCP_PWM_Set_Duty$5873 0140  
                            __end_of_CCP_Init 2DA0                                  ___param_bank 000000  
           I2C_SlaveSetReadIntHandler@handler 001A                 __end_of_I2C_SlaveAddrCallBack 3836  
                   ?_gpio_pin_output_low_init 0024                              __end_of_INT0_ISR 3A00  
                            __end_of_INT1_ISR 39FC                              __end_of_INT2_ISR 39F8  
                                       l10001 358A           fp__I2C_SlaveDefAddrInterruptHandler 0000  
    __end_of_I2C_SlaveDefAddrInterruptHandler 39D4            ??_I2C_SlaveDefAddrInterruptHandler 0001  
           ?_I2C_SlaveDefAddrInterruptHandler 0001              _I2C_SlaveDefAddrInterruptHandler 39CA  
                                       l10003 35B2                                         l10101 2458  
                                       l10005 35C2                                         l10103 2486  
                                       l10111 347E                                         l10121 34C6  
                                       l10113 3482                                         l10115 349A  
                                       l10107 346C                                         l10131 3466  
                                       l10117 34A6                                         l10109 346C  
                                       l10125 340E                                         l10141 32DA  
                                       l10133 32C2                                         l10061 34CC  
                                       l10119 34BE                                         l10127 3412  
                                       l10151 3316                                         l10143 32E6  
                                       l10135 32C6                                         l10063 34DE  
                                       l10129 3418                                         l10153 3324  
                                       l10145 32F2                                         l10137 32CA  
                                       l10081 3546                                         l10073 351C  
                                       l10065 34E2                                         l10091 2312  
                                       l10147 32FE                                         l10139 32CE  
                                       l10083 356E                                         l10075 3520  
                                       l10067 34F2                                         l10059 34C8  
                                       l10093 2316                                         l10149 330A  
                                       l10077 3532                                         l10069 351A  
                                       l10095 23F6                                         l10087 22F6  
                                       l10079 3536                                         l10097 240E  
                                       l10089 2300                                         l10601 28E0  
                                       l10099 2440                                         l10611 296E  
                                       l10603 292E                                         l10621 29CA  
                                       l10613 2986                                         l10605 293E  
                                       l10615 2992                                         l10607 294E  
                                       l10609 295E                                         l10617 29A2  
                                       l10619 29B2                                         l10591 289C  
                                       l10593 28A0                                         l10595 28AC  
                                       l10587 2894                                         l10597 28BC  
                                       l10589 2898                                         l10791 2BA2  
                                       l10783 2712                                         l10599 28D4  
                                       l10793 2C34                                         l10785 2864  
                                       l10787 250C                                         l10789 25B2  
                               ___fltol@sign1 00DF                               __end_of___fladd 14C8  
                                       ?_main 0001                               __end_of___fldiv 1C8E  
                             __end_of___awdiv 307E                                         _EEADR 000FA9  
                             __end_of___awmod 312E                               __end_of___flmul 18F2  
                             __end_of___fltol 2EBE                                         u10300 296E  
                                       u10301 296A                                         u10310 29B2  
                                       u10311 29AE                                         u10280 28BC  
                                       u10281 28B8                                         u10290 295E  
                                       u10291 295A                               ___awdiv@divisor 0003  
                                       i2l414 3A0E                                         i2l803 39FE  
                                       i2l811 39F6                                         i2l807 39FA  
                                       i2l913 3908                                         i2l921 38EE  
                                       i2l674 2B28                                         i2l929 38D4  
                             ___awdiv@counter 0005                                         _RCREG 000FAE  
                       _I2C_SlaveReleaseClock 3A00                                         _TMR0H 000FD7  
                                       _TMR1H 000FCF                                         _TMR0L 000FD6  
                                       _TMR1L 000FCE                                         _TMR3H 000FB3  
                                       _TMR3L 000FB2                                         _SPBRG 000FAF  
                                       _PORTA 000F80                                         _PORTB 000F81  
                                       _PORTC 000F82                                         _PORTD 000F83  
                                       _PORTE 000F84                                         _TRISA 000F92  
                                       _TRISB 000F93                                         _TRISC 000F94  
                                       _TRISD 000F95                                         _TRISE 000F96  
                                       _TXREG 000FAD                 ?_I2C_SlaveSetBusColIntHandler 001A  
                            __end_of_TMR0_ISR 3978                               __end_of_led_off 3570  
                            _MY_I2C_slave_ISR 3836                        ??_I2C_SlaveIsRxBufFull 0001  
                                       _seg_1 012E                                         _seg_2 0129  
                                       _portx 0110                                         _trisx 00EC  
                                       pclath 000FFA                                         pclatu 000FFB  
                                       tablat 000FF5               CCP_Capture_Mode_Config@_ccp_obj 001D  
                                       ttemp5 0067                                         ttemp6 006A  
                                       ttemp7 006E                                         status 000FD8  
                                       wtemp8 0067                         ??_I2C_SlaveSendTxData 0001  
                       ??_I2C_SlaveWrCallBack 0002                         _I2C_SlaveSetSlaveAddr 39D4  
                             __initialization 312E                         _I2C_SlaveSetSlaveMask 3A10  
                                __end_of_main 29E2                         CCP_PWM_Start@_ccp_obj 001A  
                                  _Initialize 32C2                                     ??_ADC_ISR 0001  
                 ?_INTERRUPT_InterruptManager 0001                                     ??_I2C_Isr 0012  
                       _CCP_Mode_Timer_Select 3332                                        ??_main 004D  
                               __activetblptr 000003                         _TMR3_InterruptHandler 0096  
                                   ??_RB4_ISR 0001                                     ??_RB5_ISR 0001  
                                   ??_RB6_ISR 0001                   _I2C_SlaveRdInterruptHandler 0088  
                 _I2C_SlaveWrInterruptHandler 0086                    __end_of_I2C_SlaveEnableIrq 39F4  
                  __end_of_I2C_SlaveGetRxData 3A0C                    _EUSART_OverrunErrorHandler 008C  
                                      _ADRESH 000FC4                                        _EEADRH 000FAA  
                                      _ADRESL 000FC3                                        _EEDATA 000FA8  
                                      _CCPR1L 000FBE                                        _CCPR2L 000FBB  
                                      _EECON2 000FA7                              ___awdiv@dividend 0001  
                                      i2l1130 3976                                        i2l2150 307C  
                                      i2l1504 1F48                    seven_segment_write@counter 0056  
                                      i2l2163 312C                                        i2l1722 3958  
                                      i2l1650 2FB8                                        i2l1731 3A02  
                                      i2l1491 1D50                                        i2l1900 385A  
                                      i2l1660 3806                                        i2l1725 3944  
                                      i2l1670 37D8                                        i2l1743 391C  
                                      i2l1663 39C8                                        i2l1495 1D70  
                                      i2l1752 3A0A                                        i2l1680 3834  
                                      i2l1728 3A06                                        i2l1673 39E2  
                      lcd_send_number@counter 0053                                        i2l1746 3930  
                                      i2l1683 39D2                                        i2l1916 36FA  
                                      i2l6101 300C                                        i2l1749 39EA  
                                      i2l6111 3046                                        i2l6103 3014  
                                      i2l6031 29E2                                        i2l6121 306C  
                                      i2l6113 304E                                        i2l6105 301C  
                                      i2l6041 2A2A                                        i2l6033 29E2  
                                      i2l6123 3074                                        i2l6115 3050  
                                      i2l6107 302A                                        i2l6131 3090  
                                      i2l6051 2B28                                        i2l6043 2A8C  
                                      i2l6035 29F4                                        i2l6117 3056  
                                      i2l6109 3030                                        i2l6141 30C4  
                                      i2l6133 3098                                        i2l6045 2AE8  
                                      i2l6037 2A16                                        i2l6061 324E  
                                      i2l6119 305C                                        i2l6151 3100  
                                      i2l6143 30CC                                        i2l6135 309C  
                                      i2l6127 307E                                        i2l6047 2AEC  
                                      i2l6039 2A26                                        i2l6063 3260  
                                      i2l6153 3106                                        i2l6145 30D4  
                                      i2l6137 30AA                                        i2l6129 3082  
                                      i2l6049 2B16                                        i2l6073 328C  
                                      i2l6065 3270                                        i2l6241 36B6  
                                      i2l7201 37EE                                        i2l1898 3850  
                                      i2l6235 3A08                                        i2l6091 2FD8  
                                      i2l6083 2FBA                                        i2l6147 30E2  
                                      i2l6155 310C                                        i2l6139 30B2  
                                      i2l6075 32BA                                        i2l6067 3274  
                                      i2l6059 324A                                        i2l7203 3A00  
                                      i2l6093 2FE6                                        i2l6085 2FBE  
                                      i2l6157 311C                                        i2l6149 30F8  
                                      i2l6069 3278                                        i2l6095 2FEE  
                                      i2l6087 2FCC                                        i2l6159 3124  
                                      i2l6079 32C0                                        i2l6239 39E6  
                                      i2l6097 2FF2                                        i2l6089 2FD4  
                                      i2l7401 39F8                                        i2l6099 2FFA  
                                      i2l7411 38F4                                        i2l7173 3932  
                                      i2l7405 39F4                                        i2l7421 38DA  
                                      i2l7183 3808                                        i2l7191 37AC  
                                      i2l7415 3908                                        i2l7431 38C0  
                                      i2l7185 381C                                        i2l7177 3A04  
                                      i2l7193 37C0                                        i2l7409 38F2  
                                      i2l7425 38EE                                        i2l7441 396C  
                                      i2l7355 3A0C                                        i2l7179 3946  
                                      i2l7195 391E                                        i2l7187 390A  
                                      i2l7419 38D8                                        i2l7435 38D4  
                                      i2l7443 3972                                        i2l7461 2EEA  
                                      i2l7429 38BE                                        i2l7199 37DA  
                                      i2l7471 2F1E                                        i2l7463 2EF2  
                                      i2l7455 2EBE                                        i2l7439 396A  
                                      i2l7473 2F22                                        i2l7465 2EFA  
                                      i2l7457 2EC2                                        i2l7483 2F5E  
                                      i2l7475 2F36                                        i2l7491 2FB4  
                                      i2l7467 2F0E                                        i2l7459 2ED6  
                                      i2l7485 2F72                                        i2l7477 2F3E  
                                      i2l7469 2F16                                        i2l7397 39FC  
                                      i2l8701 1E3C                                        i2l7479 2F46  
                                      i2l8711 1E7A                                        i2l8703 1E4A  
                                      i2l7489 2F7A                                        i2l8721 1EBA  
                                      i2l8705 1E58                                        i2l8713 1E80  
                                      i2l8641 1CC4                                        i2l6971 383A  
                                      i2l6963 39C0                                        i2l8731 1EEE  
                                      i2l8723 1EBE                                        i2l8715 1E8E  
                                      i2l8707 1E66                                        i2l8651 1CF6  
                                      i2l8643 1CC8                                        i2l6965 39DC  
                                      i2l8741 1F24                                        i2l8733 1EFE  
                                      i2l8717 1E9C                                        i2l8725 1EC4  
                                      i2l8709 1E76                                        i2l8661 1D32  
                                      i2l8653 1D04                                        i2l8645 1CD6  
                                      i2l8637 1CA8                                        i2l6967 39CA  
                                      i2l6975 3854                                        i2l8743 1F28  
                                      i2l8735 1F02                                        i2l8727 1ED2  
                                      i2l8719 1EAA                                        i2l8671 1D9A  
                                      i2l8663 1D5E                                        i2l8655 1D08  
                                      i2l8647 1CE4                                        i2l8639 1CB6  
                                      i2l6969 3836                                        i2l8745 1F36  
                                      i2l8729 1EE0                                        i2l8737 1F08  
                                      i2l8681 1DD0                                        i2l8673 1DAA  
                                      i2l8657 1D16                                        i2l8649 1CE8  
                                      i2l8747 1F44                                        i2l8739 1F16  
                                      i2l8691 1E06                                        i2l8683 1DDE  
                                      i2l8675 1DAE                                        i2l8667 1D7E  
                                      i2l8659 1D24                                        i2l8693 1E14  
                                      i2l8685 1DEE                                        i2l8669 1D8C  
                                      i2l8677 1DB4                                        i2l8695 1E22  
                                      i2l8687 1DF2                                        i2l8679 1DC2  
                                      i2l8697 1E32                                        i2l8689 1DF8  
                                      i2l8699 1E36                              ?_I2C_SlaveIsAddr 0001  
                                      _SPBRGH 000FB0                                        _SSPADD 000FC8  
                            ?_I2C_SlaveIsRead 0001                                        _SSPBUF 000FC9  
                            __end_of___xxtofl 22F6                                 ??_Timer2_Init 001C  
                    ??i2_gpio_pin_logic_write 0004                   __end_of_dc_motor_move_right 3618  
                            __end_of_led_init 3668                                     ??___fladd 00D7  
                                   ??___fldiv 0049                                     ??___awdiv 0005  
                                   ??___awmod 0005                                     ??___flmul 0030  
                                   ??___fltol 0137                        _I2C_SlaveSetIsrHandler 39A2  
                                      _led_on 34C8                                        clear_0 3194  
                                      clear_1 31A0                                        clear_2 31AC  
                            ___awdiv@quotient 0007                               ___awmod@divisor 0003  
                                      _motor1 00F9                                        _motor2 00F6  
                                      _timer2 0150                                        isa$std 000001  
                             ___awmod@counter 0005                     seven_segment_init@counter 0057  
                      ?_I2C_SlaveReleaseClock 0001                                     ??_led_off 0026  
                     ??_I2C_SlaveIsTxBufEmpty 0001                                  __pdataCOMRAM 005A  
                       seven_segment_init@seg 0029                                     ?_I2C_Open 0001  
         I2C_SlaveSetBusColIntHandler@handler 001A                             Timer2_Init@_timer 001A  
                                __mediumconst 0000                                        tblptrh 000FF7  
                                      tblptrl 000FF6                                        tblptru 000FF8  
                               _I2C_SlaveOpen 389E                                     ?_CCP_Init 0147  
                 CCP_PWM_Mode_Config@_ccp_obj 013B                                  ___xxtofl@arg 0024  
                                ___xxtofl@exp 0023                                  ___xxtofl@val 001A  
                                  __accesstop 0080                       __end_of__initialization 31B2  
                                   ?_INT0_ISR 0001                                     ?_INT1_ISR 0001  
                            _CCP_PWM_Set_Duty 22F6                                     ?_INT2_ISR 0001  
          I2C_SlaveSetWrColIntHandler@handler 001A                  ??_I2C_SlaveSetAddrIntHandler 001C  
                            ??_print_num_7seg 0010                            _seven_segment_init 36FC  
                               ___rparam_used 000001                                    ___fltol@f1 0133  
                      ?_I2C_SlaveSetSlaveAddr 0001                        ?_I2C_SlaveSetSlaveMask 0001  
                CCP_Interrupt_Config@_ccp_obj 001A                             RB5_ISR@RB5_Source 0001  
                              __pcstackCOMRAM 0001                           ?_seven_segment_init 0029  
                                __pidataBANK0 3880                                  __pidataBANK1 3778  
                   i2gpio_pin_logic_write@pin 0001                                     ?_TMR0_ISR 0001  
                      ?_CCP_Mode_Timer_Select 001A                                   ?_Initialize 0001  
                         __end_of_Timer2_Init 324A                I2C_SlaveSetSlaveAddr@slaveAddr 001A  
                ??_I2C_SlaveSetReadIntHandler 001C                                    ??_I2C_Open 001C  
                              ?_I2C_SlaveOpen 0001                          ??_seven_segment_init 002B  
                                  ??_CCP_Init 00E1                         CCP_PWM_Set_Duty@_duty 013D  
                                  __pbssBANK0 0080                                    __pbssBANK1 014A  
                         fp__MY_I2C_slave_ISR 0000                         _INT0_InterruptHandler 00B8  
                                  ??_INT0_ISR 0001                                    ??_INT1_ISR 0001  
                                  ??_INT2_ISR 0001           __end_of_I2C_SlaveSetWrColIntHandler 3998  
                 _I2C_SlaveSetWrColIntHandler 398E                      __end_of_MY_I2C_slave_ISR 385C  
                                  ??_TMR0_ISR 0001                   CCP_PWM_Set_Duty@l_duty_temp 0144  
                 __end_of_I2C_SlaveRdCallBack 3808                 ??_I2C_SlaveSetWrColIntHandler 001C  
                                     ?_led_on 0024                                       _ADC_ISR 3A0C  
                                     _I2C_Isr 2EBE                             print_num_7seg@num 0010  
                                     i2l10795 2F8E                                       _RB4_ISR 38F0  
                                     i2l10797 2B00                                       _RB5_ISR 38D6  
                                     _RB6_ISR 38BC                                     ?___xxtofl 001A  
                 seven_segment_write@gpio_ret 000F                              lcd_send_number@i 0054  
                 __end_of_CCP_PWM_Mode_Config 2142                     _RB6_InterruptHandler_high 00AA  
                                     _SSPCON1 000FC6                                       _SSPCON2 000FC5  
                                     _SSPSTAT 000FC7                                     ?_led_init 0029  
                    _RB6_InterruptHandler_low 00A8                          _ADC_InterruptHandler 00BE  
                                     __Hparam 0000                                   _Timer2_Init 31BC  
                                     __Lparam 0000                  __end_of_CCP_Interrupt_Config 3778  
                        _SPI_InterruptHandler 00A2                                       ___fladd 1006  
                                     ___fldiv 18F2                                       ___awdiv 2FBA  
                     I2C_SlaveSendTxData@data 0001                                       ___awmod 307E  
                                     ___flmul 14C8               CCP_Compare_Mode_Config@_ccp_obj 001D  
                                     ___fltol 2DA0                                  __psmallconst 1000  
                    _CCP_PWM_Mode_Config$5874 013F                      _CCP_PWM_Mode_Config$5875 0143  
                       _I2C_SlaveAddrCallBack 3808                                       __pcinit 312E  
                              _I2C_Initialize 395A                 gpio_pin_logic_write@pin_logic 001C  
             i2gpio_pin_logic_write@pin_logic 0003                                       __ramtop 1000  
                                     __ptext0 2894                                       __ptext1 34C8  
                                     __ptext2 351C                                       __ptext3 3570  
                                     __ptext4 35C4                                       __ptext5 32C2  
                                     __ptext6 36FC                                       __ptext7 3618  
                                     __ptext8 3668                                       __ptext9 31BC  
                                   _T0CONbits 000FD5                                       _led_off 351C  
                                     _led_red 00FE                                    fp__I2C_Isr 0000  
                                   _T1CONbits 000FCD                               ??_I2C_SlaveOpen 001A  
                                   _T2CONbits 000FCA                                    ??___xxtofl 001E  
                                   _T3CONbits 000FB1                              ___awmod@dividend 0001  
                     _CCP_Compare_Mode_Config 2488                      ??_PIN_MANAGER_Initialize 001A  
                      i2_gpio_pin_logic_write 29E2                 I2C_SlaveSetIsrHandler@handler 001A  
                    ?_CCP_Capture_Mode_Config 001D                   __end_of_I2C_SlaveSendTxData 39EC  
                              __pintcode_body 1C8E                                    ??_led_init 002B  
                        end_of_initialization 31B2                   __end_of_I2C_SlaveWrCallBack 37DA  
                              led_on@gpio_ret 0026            __end_of_I2C_SlaveSetAddrIntHandler 39C0  
                  _I2C_SlaveSetAddrIntHandler 39B6                                       int_func 1C8E  
                          _I2C_SlaveEnableIrq 39F0                            _I2C_SlaveGetRxData 3A08  
                     ?_I2C_SlaveSetIsrHandler 001A                                 _dc_motor_init 3668  
                                _i2cSlaveAddr 00C0                                 _dc_motor_stop 3570  
                    _gpio_pin_output_low_init 33A2                      CCP_PWM_Set_Duty@_ccp_obj 013B  
                                   _RCSTAbits 000FAB                                       postdec1 000FE5  
                                     postdec2 000FDD                                       postinc0 000FEE  
                                     postinc2 000FDE                        __end_of_I2C_Initialize 396A  
                     ??_I2C_SlaveReleaseClock 0001                           ?_I2C_SlaveEnableIrq 0001  
                         ?_I2C_SlaveGetRxData 0001            __end_of_I2C_SlaveSetReadIntHandler 39A2  
                  _I2C_SlaveSetReadIntHandler 3998                  ?_I2C_SlaveSetWriteIntHandler 001A  
                 dc_motor_move_right@dc_motor 0024                         _INT1_InterruptHandler 00B6  
                                   _PORTBbits 000F81                      __end_of_CCP_PWM_Set_Duty 2488  
                                 ___fladd@grs 00DE                                 ___xxtofl@sign 0022  
               __end_of_I2C_SlaveIsTxBufEmpty 391E                                     _TRISCbits 000F94  
                                 ___fldiv@grs 00C9                                   ___fldiv@rem 00C2  
                 dc_motor_move_right@gpio_ret 0026                          ??_I2C_SlaveEnableIrq 001A  
                        ??_I2C_SlaveGetRxData 0001                           _seven_segment_write 324A  
                     ??_I2C_SlaveSetSlaveAddr 001A              gpio_pin_output_low_init@gpio_ret 0027  
                                 ___flmul@grs 0036                       ??_I2C_SlaveSetSlaveMask 001A  
                                 _CCP1CONbits 000FBD                              CCP_Init@_ccp_obj 0147  
                                 _CCP2CONbits 000FBA                                     _TXSTAbits 000FAC  
              __end_of_I2C_SlaveSetIsrHandler 39AC                        seven_segment_write@seg 000A  
                      seven_segment_write@num 000C                                ?_dc_motor_init 0029  
                                  led_off@led 0024                                ?_dc_motor_stop 0024  
                     ??_CCP_Mode_Timer_Select 001C                    CCP_Capture_Mode_Config@ret 0021  
                               _CCP_PWM_Start 346C                        ?_I2C_SlaveAddrCallBack 0001  
                __end_of_INTERRUPT_Initialize 39F0                    CCP_Compare_Mode_Config@ret 0021  
                             ?_I2C_Initialize 0001                 convert_uint16_to_string@F3167 014A  
                     _gpio_pin_direction_init 2742                                  ??_Initialize 004D  
                        ?_seven_segment_write 000A                                   _BAUDCONbits 000FB8  
                               __pidataCOMRAM 3978                                _timer0_preload 009E  
                              __end_of_led_on 351C                                     _i2cRdData 00C1  
                   ??_CCP_Compare_Mode_Config 001F                                _timer1_preload 009A  
                                   _i2cWrData 004F                                _timer2_preload 0050  
             __end_of_CCP_Capture_Mode_Config 2C6A                           start_initialization 312E  
                              _timer3_preload 0094  SPI_Master_Mode_GPIO_PIN_Configurations@F3101 0064  
SPI_Master_Mode_GPIO_PIN_Configurations@F3103 0063   SPI_Slave_Mode_GPIO_PIN_Configurations@F3111 0060  
SPI_Master_Mode_GPIO_PIN_Configurations@F3105 0062   SPI_Slave_Mode_GPIO_PIN_Configurations@F3113 005F  
 SPI_Slave_Mode_GPIO_PIN_Configurations@F3115 005E   SPI_Slave_Mode_GPIO_PIN_Configurations@F3109 0061  
                        _CCP_Interrupt_Config 373E                     _EUSART_RxInterruptHandler 0090  
                          __end_of_Initialize 3332                         lcd_send_number@number 0059  
                              ?_CCP_PWM_Start 001A                    _EUSART_FramingErrorHandler 008E  
                           ?_MY_I2C_slave_ISR 0001                                      ??_led_on 0026  
                                 __pdataBANK0 00E2                                   __pdataBANK1 0100  
                       ??_seven_segment_write 000D                                      ?_ADC_ISR 0001  
                                    ?_I2C_Isr 0001                            ??_MY_I2C_slave_ISR 0011  
                   lcd_send_number_pos@number 0058                                     ___fladd@a 00D3  
                                   ___fladd@b 00CF                                     ___fldiv@a 0045  
                                   ___fldiv@b 0041                                      ?_RB4_ISR 0001  
                                    ?_RB5_ISR 0001                                      ?_RB6_ISR 0001  
                                   ___flmul@a 002C                                     ___flmul@b 0028  
                                 __pbssCOMRAM 004D                                 __pcstackBANK0 00C2  
                               __pcstackBANK1 0133                         ?_CCP_Interrupt_Config 001A  
                 lcd_send_custom_char@counter 0055                         _INT2_InterruptHandler 00B4  
                             ??_dc_motor_init 002B                ??_I2C_SlaveSetBusColIntHandler 001C  
                             ??_dc_motor_stop 0026                         _TMR0_InterruptHandler 00A0  
                __end_of_gpio_pin_logic_write 2742                                  ?_Timer2_Init 001A  
                                   _main$5877 0149                        _PIN_MANAGER_Initialize 385C  
                   ??_gpio_pin_direction_init 001D                                     __pintcode 0008  
                                    ?___fladd 00CF                                      ?___fldiv 0041  
                                    ?___awdiv 0001                                      ?___awmod 0001  
                                    ?___flmul 0028                                      ?___fltol 0133  
                ??_INTERRUPT_InterruptManager 0014                       ?i2_gpio_pin_logic_write 0001  
                           ??_I2C_SlaveIsAddr 0001                                      ?_led_off 0024  
                           ??_I2C_SlaveIsRead 0001             fp__I2C_SlaveDefRdInterruptHandler 0000  
            ??_I2C_SlaveDefRdInterruptHandler 0001               ?_I2C_SlaveDefRdInterruptHandler 0001  
           fp__I2C_SlaveDefWrInterruptHandler 0000              ??_I2C_SlaveDefWrInterruptHandler 0002  
             ?_I2C_SlaveDefWrInterruptHandler 0001                                   __smallconst 1000  
                                    _I2C_Open 340E                     _RB4_InterruptHandler_high 00B2  
               CCP_Mode_Timer_Select@_ccp_obj 001A                     _RB7_InterruptHandler_high 00A6  
                                    _CCP_Init 2C6A                          _INTERRUPT_Initialize 39EC  
                  ??_gpio_pin_output_low_init 0026                   ?_I2C_SlaveSetAddrIntHandler 001A  
                                    _INT0_ISR 39FC                                      _INT1_ISR 39F8  
                                    _INT2_ISR 39F4                                      _RB4_Flag 005D  
                                    _RB5_Flag 005C                                      _RB6_Flag 005B  
                             ??_CCP_PWM_Start 001C                                      _RB7_Flag 005A  
                    _RB5_InterruptHandler_low 00AC                             RB4_ISR@RB4_Source 0001  
                                    _PIE1bits 000F9D                                      _PIE2bits 000FA0  
                           _I2C_SlaveClearIrq 3A04                                      _PIR1bits 000F9E  
                                    i2u450_44 2AAC                                      i2u450_45 2AA8  
                                    _PIR2bits 000FA1                                      i2u451_45 2B26  
                                    i2u451_46 2B28                                      i2u460_40 3046  
                                    i2u452_40 3260                                      i2u620_40 37C0  
                                    i2u460_41 3042                                      i2u452_41 325C  
                                    i2u620_41 37BC                                      i2u613_40 3942  
                                    i2u461_40 306C                                      i2u453_40 3270  
                                    i2u613_41 393C                                      i2u461_41 3068  
                                    i2u453_41 326C                                      i2u613_46 3944  
                                    i2u614_40 3956                                      i2u622_40 392E  
                                    i2u462_40 3090                                      i2u446_40 29F4  
                                    i2u454_40 3288                                      i2u621_48 37C6  
                                    i2u614_41 3950                                      i2u622_41 3928  
                                    i2u462_41 308C                                      i2u446_41 29F0  
                                    i2u454_41 3284                                      i2u621_49 37D8  
                                    i2u622_46 3930                                      i2u615_40 3958  
                                    i2u463_40 30AA                                      i2u447_40 2A16  
                                    i2u623_40 37EE                                      i2u463_41 30A6  
                                    i2u447_41 2A12                                      i2u623_41 37EA  
                                    i2u455_44 32AA                                      i2u455_45 32A6  
                                    i2u616_40 381C                                      i2u456_40 2FCC  
                                    i2u464_40 30C4                                      i2u448_40 2A26  
                                    i2u800_40 1E58                                      i2u616_41 3818  
                                    i2u456_41 2FC8                                      i2u464_41 30C0  
                                    i2u448_41 2A22                                      i2u800_41 1E54  
                                    i2u457_40 2FE6                                      i2u465_40 30E2  
                                    i2u624_48 37F4                                      i2u801_40 1E66  
                                    i2u457_41 2FE2                                      i2u465_41 30DE  
                                    i2u624_49 3806                                      i2u801_41 1E62  
                                    i2u449_44 2A4A                                      i2u449_45 2A46  
                                    i2u617_48 3822                                      i2u618_40 391A  
                                    i2u458_40 300C                                      i2u466_40 30F8  
                                    i2u650_40 38D0                                      i2u810_40 1EFE  
                                    i2u802_40 1E76                                      i2u617_49 3834  
                                    i2u618_41 3914                                      i2u458_41 3008  
                                    i2u466_41 30F4                                      i2u650_41 38CC  
                                    i2u810_41 1EFA                                      i2u802_41 1E72  
                                    i2u619_40 391C                                      i2u459_40 302A  
                                    i2u467_40 311C                                      i2u651_40 2ED6  
                                    i2u811_40 1F16                                      i2u803_40 1E8E  
                                    i2u459_41 3026                                      i2u467_41 3118  
                                    i2u651_41 2ED2                                      i2u811_41 1F12  
                                    i2u803_41 1E8A                                      i2u652_40 2EEA  
                                    i2u812_40 1F24                                      i2u804_40 1E9C  
                                    i2u652_41 2EE6                                      i2u812_41 1F20  
                                    i2u804_41 1E98                                      i2u653_40 2F0E  
                                    i2u813_40 1F36                                      i2u805_40 1EAA  
                                    i2u653_41 2F0A                                      i2u813_41 1F32  
                                    i2u805_41 1EA6                                      i2u654_40 2F36  
                                    i2u814_40 1F44                                      i2u806_40 1EBA  
                                    i2u654_41 2F32                                      i2u814_41 1F40  
                                    i2u806_41 1EB6                                      i2u655_40 2F5A  
                                    i2u807_40 1ED2                                      i2u655_41 2F56  
                                    i2u807_41 1ECE                                      i2u592_40 384C  
                                    i2u656_40 2F72                                      i2u648_40 3904  
                                    i2u808_40 1EE0                                      i2u592_41 3848  
                                    i2u656_41 2F6E                                      i2u648_41 3900  
                                    i2u808_41 1EDC                                      i2u649_40 38EA  
                                    i2u809_40 1EEE                                      i2u649_41 38E6  
                                    i2u809_41 1EEA                                      i2u780_40 1D04  
                                    i2u780_41 1D00                                      i2u781_40 1D16  
                                    i2u781_41 1D12                                      i2u790_40 1DAA  
                                    i2u782_40 1D24                                      i2u790_41 1DA6  
                                    i2u782_41 1D20                                      i2u791_40 1DC2  
                                    i2u783_40 1D32                                      i2u775_40 1CB6  
                                    i2u791_41 1DBE                                      i2u783_41 1D2E  
                                    i2u775_41 1CB2                                      i2u792_40 1DD0  
                                    i2u776_40 1CC4                                      i2u792_41 1DCC  
                                    i2u776_41 1CC0                            ?_I2C_SlaveClearIrq 0001  
                                    i2u793_40 1DDE                                      i2u785_40 1D5E  
                                    i2u784_48 1D38                                      i2u777_40 1CD6  
                                    i2u793_41 1DDA                                      i2u785_41 1D5A  
                                    i2u784_49 1D4C                                      i2u777_41 1CD2  
                                    i2u794_40 1DEE                                      i2u786_40 1D6C  
                                    i2u778_40 1CE4                                      i2u794_41 1DEA  
                                    i2u786_41 1D68                                      i2u778_41 1CE0  
                                    i2u795_40 1E06                                      i2u787_40 1D7E  
                                    i2u779_40 1CF6                                      i2u795_41 1E02  
                                    i2u787_41 1D7A                                      i2u779_41 1CF2  
                                    i2u796_40 1E14                                      i2u788_40 1D8C  
                                    i2u796_41 1E10                                      i2u788_41 1D88  
                                    i2u797_40 1E22                                      i2u789_40 1D9A  
                                    i2u797_41 1E1E                                      i2u789_41 1D96  
                                    i2u798_40 1E32                                      i2u798_41 1E2E  
                                    i2u799_40 1E4A                                      i2u799_41 1E46  
                                    _RCONbits 000FD0                      MY_I2C_slave_ISR@temp_var 0011  
                                   _var_slave 004D                                      _TMR0_ISR 396A  
                __end_of_I2C_SlaveIsRxBufFull 3932                __end_ofi2_gpio_pin_logic_write 2B2A  
                 ?_I2C_SlaveSetReadIntHandler 001A                 __end_of_I2C_SlaveReleaseClock 3A04  
                         ??_I2C_SlaveClearIrq 0001                                    _ADCON0bits 000FC2  
                                  _ADCON1bits 000FC1                                    _ADCON2bits 000FC0  
                           ?_CCP_PWM_Set_Duty 013B                                     led_on@led 0024  
                       __end_of_I2C_SlaveOpen 38BC                            ??_CCP_PWM_Set_Duty 013E  
                      ??_CCP_Interrupt_Config 001C               __end_of_gpio_pin_direction_init 2894  
                                 _INTCON2bits 000FF1                                   _INTCON3bits 000FF0  
                                   copy_data0 3142                                     copy_data1 3162  
                                   copy_data2 3182                         ?_INTERRUPT_Initialize 0001  
           _I2C_SlaveDefWrColInterruptHandler 000000                           _dc_motor_move_right 35C4  
                   __end_of_I2C_SlaveClearIrq 3A08                 __end_of_I2C_SlaveSetSlaveAddr 39DC  
                                  _EECON1bits 000FA6                 __end_of_I2C_SlaveSetSlaveMask 3A12  
                            ??_I2C_Initialize 001A                       ??_I2C_SlaveAddrCallBack 0001  
                                    __Hrparam 0000          gpio_pin_direction_init@pin_direction 001C  
                                    __Lrparam 0000                         dc_motor_stop@dc_motor 0024  
               __end_of_CCP_Mode_Timer_Select 33A2                             RB6_ISR@RB6_Source 0001  
               _I2C_SlaveAddrInterruptHandler 0084                         _CCP1_InterruptHandler 00BC  
                  lcd_send_number_pos@counter 0051                          lcd_send_number_pos@i 0052  
                        ?_dc_motor_move_right 0024            _I2C_SlaveDefBusColInterruptHandler 000000  
                       _TMR1_InterruptHandler 009C                         dc_motor_stop@gpio_ret 0026  
                                    ___xxtofl 2142                _I2C_SlaveWrColInterruptHandler 0080  
                        _gpio_pin_logic_write 25F0                                      __ptext10 385C  
                                    __ptext11 39EC                                      __ptext20 2B2A  
                                    __ptext12 395A                                      __ptext21 3332  
                                    __ptext13 2C6A                                      __ptext30 39B6  
                                    __ptext22 340E                                      __ptext14 33A2  
                                    __ptext31 389E                                      __ptext23 3984  
                                    __ptext15 25F0                                      __ptext32 39F0  
                                    __ptext24 398E                                      __ptext16 2742  
                                    __ptext41 396A                                      __ptext33 346C  
                                    __ptext25 3A10                                      __ptext17 1F64  
                                    __ptext50 39DC                                      __ptext42 38BC  
                                    __ptext34 22F6                                      __ptext26 39D4  
                                    __ptext18 373E                                      __ptext51 39E4  
                                    __ptext43 38D6                                      __ptext35 2142  
                                    __ptext27 3998                                      __ptext19 2488  
                                    __ptext60 2FBA                                      __ptext52 3A00  
                                    __ptext44 38F0                                      __ptext36 2DA0  
                                    __ptext28 39A2                                      __ptext61 390A  
                                    __ptext53 37DA                                      __ptext45 39F4  
                                    __ptext37 14C8                                      __ptext29 39AC  
                                    __ptext70 0000                                      __ptext62 391E  
                                    __ptext54 39C0                                      __ptext46 39F8  
                                    __ptext38 18F2                                      __ptext63 3932  
                                    __ptext55 3836                                      __ptext47 39FC  
                                    __ptext39 1006                                      __ptext64 3946  
                                    __ptext56 36B4                                      __ptext48 2EBE  
                                    __ptext65 3A04                                      __ptext57 324A  
                                    __ptext49 37AC                                      __ptext66 3808  
                                    __ptext58 29E2                                      __ptext67 39CA  
                                    __ptext59 307E                                      __ptext68 3A08  
                                    __ptext69 3A0C                                   _keypad_btns 0100  
                       _I2C_SlaveIsTxBufEmpty 390A                                      _led_blue 00FC  
                                    _led_init 3618                         dc_motor_init@dc_motor 0029  
                ?_I2C_SlaveSetWrColIntHandler 001A                                      isa$xinst 000000  
                                    int$flags 0066                                _print_num_7seg 36B4  
          __end_of_INTERRUPT_InterruptManager 1F64                    _INTERRUPT_InterruptManager 0008  
                       dc_motor_init@gpio_ret 002B                         ??_dc_motor_move_right 0026  
                                  _INTCONbits 000FF2                         ?_gpio_pin_logic_write 001A  
                             led_off@gpio_ret 0026                        ??_INTERRUPT_Initialize 001A  
                     gpio_pin_logic_write@pin 001A                       gpio_pin_logic_write@ret 0023  
            __end_of_gpio_pin_output_low_init 340E                          _I2C_SlaveIsRxBufFull 391E  
                                    intlevel2 0000               _I2C_SlaveBusColInterruptHandler 0082  
                   _EUSART_TxInterruptHandler 0092                       ?_PIN_MANAGER_Initialize 0001  
                     _CCP_Capture_Mode_Config 2B2A                           _I2C_SlaveRdCallBack 37DA  
                 __end_of_seven_segment_write 32C2                               _I2C_SlaveIsAddr 3946  
                             _I2C_SlaveIsRead 3932                        __end_of_print_num_7seg 36FC  
                               _i2cSlaveState 004E                      ?_CCP_Compare_Mode_Config 001D  
          I2C_SlaveSetWriteIntHandler@handler 001A           __end_of_I2C_SlaveSetWriteIntHandler 398E  
                 _I2C_SlaveSetWriteIntHandler 3984                           _CCP_PWM_Mode_Config 1F64  
                        ?_I2C_SlaveRdCallBack 0001                    __end_of_seven_segment_init 373E  
                      ?_I2C_SlaveIsTxBufEmpty 0001                 ??_I2C_SlaveSetWriteIntHandler 001C  
                                 _SSPCON1bits 000FC6                                   _SSPCON2bits 000FC5  
                  gpio_pin_direction_init@pin 001A                    gpio_pin_direction_init@ret 0023  
                               ___fladd@signs 00DB                              led_init@gpio_ret 002B  
                    ??_I2C_SlaveSetIsrHandler 001C                         ?_I2C_SlaveIsRxBufFull 0001  
                       _CCP2_InterruptHandler 00BA                __end_of_PIN_MANAGER_Initialize 3880  
                        ?_CCP_PWM_Mode_Config 013B                                  ___fladd@aexp 00DC  
                                ___fladd@bexp 00DD        __end_of_I2C_SlaveDefRdInterruptHandler 39CA  
              _I2C_SlaveDefRdInterruptHandler 39C0        __end_of_I2C_SlaveDefWrInterruptHandler 39E4  
              _I2C_SlaveDefWrInterruptHandler 39DC                         _TMR2_InterruptHandler 0098  
                       _MSSP_InterruptHandler 008A                         __end_of_dc_motor_init 36B4  
                       __end_of_dc_motor_stop 35C4  
