

Microchip MPLAB XC8 Assembler V2.45 build 20230818022343 
                                                                                               Tue Mar 05 21:32:26 2024

Microchip MPLAB XC8 C Compiler v2.45 (Free license) build 20230818022343 Og1 
     1                           	processor	18F4620
     2                           	fnconf	rparam,??,?,0
     3                           	pagewidth 120
     4                           	opt	flic
     5                           	psect	idataCOMRAM,global,class=CODE,delta=1,noexec
     6                           	psect	idataBANK0,global,class=CODE,delta=1,noexec
     7                           	psect	idataBANK1,global,class=CODE,delta=1,noexec
     8                           	psect	smallconst,global,reloc=2,class=SMALLCONST,delta=1,noexec
     9                           	psect	cinit,global,reloc=2,class=CODE,delta=1
    10                           	psect	bssCOMRAM,global,class=COMRAM,space=1,delta=1,lowdata,noexec
    11                           	psect	dataCOMRAM,global,class=COMRAM,space=1,delta=1,lowdata,noexec
    12                           	psect	bssBANK0,global,class=BANK0,space=1,delta=1,lowdata,noexec
    13                           	psect	dataBANK0,global,class=BANK0,space=1,delta=1,lowdata,noexec
    14                           	psect	bssBANK1,global,class=BANK1,space=1,delta=1,lowdata,noexec
    15                           	psect	dataBANK1,global,class=BANK1,space=1,delta=1,lowdata,noexec
    16                           	psect	cstackBANK1,global,class=BANK1,space=1,delta=1,lowdata,noexec
    17                           	psect	cstackBANK0,global,class=BANK0,space=1,delta=1,lowdata,noexec
    18                           	psect	cstackCOMRAM,global,class=COMRAM,space=1,delta=1,lowdata,noexec
    19                           	psect	text0,global,reloc=2,class=CODE,delta=1
    20                           	psect	text1,global,reloc=2,class=CODE,delta=1
    21                           	psect	text2,global,reloc=2,class=CODE,delta=1
    22                           	psect	text3,global,reloc=2,class=CODE,delta=1
    23                           	psect	text4,global,reloc=2,class=CODE,delta=1
    24                           	psect	text5,global,reloc=2,class=CODE,delta=1
    25                           	psect	text6,global,reloc=2,class=CODE,delta=1
    26                           	psect	text7,global,reloc=2,class=CODE,delta=1
    27                           	psect	text8,global,reloc=2,class=CODE,delta=1
    28                           	psect	text9,global,reloc=2,class=CODE,delta=1
    29                           	psect	text10,global,reloc=2,class=CODE,delta=1
    30                           	psect	text11,global,reloc=2,class=CODE,delta=1
    31                           	psect	text12,global,reloc=2,class=CODE,delta=1
    32                           	psect	text13,global,reloc=2,class=CODE,delta=1
    33                           	psect	text14,global,reloc=2,class=CODE,delta=1
    34                           	psect	text15,global,reloc=2,class=CODE,delta=1
    35                           	psect	text16,global,reloc=2,class=CODE,delta=1
    36                           	psect	text17,global,reloc=2,class=CODE,delta=1
    37                           	psect	text18,global,reloc=2,class=CODE,delta=1
    38                           	psect	text19,global,reloc=2,class=CODE,delta=1
    39                           	psect	text20,global,reloc=2,class=CODE,delta=1
    40                           	psect	text21,global,reloc=2,class=CODE,delta=1
    41                           	psect	text22,global,reloc=2,class=CODE,delta=1
    42                           	psect	text23,global,reloc=2,class=CODE,delta=1
    43                           	psect	text24,global,reloc=2,class=CODE,delta=1
    44                           	psect	text25,global,reloc=2,class=CODE,delta=1,inline
    45                           	psect	text26,global,reloc=2,class=CODE,delta=1,inline
    46                           	psect	text27,global,reloc=2,class=CODE,delta=1
    47                           	psect	text28,global,reloc=2,class=CODE,delta=1
    48                           	psect	text29,global,reloc=2,class=CODE,delta=1
    49                           	psect	text30,global,reloc=2,class=CODE,delta=1
    50                           	psect	text31,global,reloc=2,class=CODE,delta=1,inline
    51                           	psect	text32,global,reloc=2,class=CODE,delta=1,inline
    52                           	psect	text33,global,reloc=2,class=CODE,delta=1
    53                           	psect	text34,global,reloc=2,class=CODE,delta=1
    54                           	psect	text35,global,reloc=2,class=CODE,delta=1,group=1
    55                           	psect	text36,global,reloc=2,class=CODE,delta=1,group=1
    56                           	psect	text37,global,reloc=2,class=CODE,delta=1,group=1
    57                           	psect	text38,global,reloc=2,class=CODE,delta=1,group=1
    58                           	psect	text39,global,reloc=2,class=CODE,delta=1,group=1
    59                           	psect	intcode,global,reloc=2,class=CODE,delta=1
    60                           	psect	intcode_body,global,reloc=2,class=CODE,delta=1
    61                           	psect	text41,global,reloc=2,class=CODE,delta=1
    62                           	psect	text42,global,reloc=2,class=CODE,delta=1
    63                           	psect	text43,global,reloc=2,class=CODE,delta=1
    64                           	psect	text44,global,reloc=2,class=CODE,delta=1
    65                           	psect	text45,global,reloc=2,class=CODE,delta=1
    66                           	psect	text46,global,reloc=2,class=CODE,delta=1
    67                           	psect	text47,global,reloc=2,class=CODE,delta=1
    68                           	psect	text48,global,reloc=2,class=CODE,delta=1
    69                           	psect	text49,global,reloc=2,class=CODE,delta=1
    70                           	psect	text50,global,reloc=2,class=CODE,delta=1
    71                           	psect	text51,global,reloc=2,class=CODE,delta=1
    72                           	psect	text52,global,reloc=2,class=CODE,delta=1
    73                           	psect	text53,global,reloc=2,class=CODE,delta=1
    74                           	psect	text54,global,reloc=2,class=CODE,delta=1,inline
    75                           	psect	text55,global,reloc=2,class=CODE,delta=1,inline
    76                           	psect	text56,global,reloc=2,class=CODE,delta=1
    77                           	psect	text57,global,reloc=2,class=CODE,delta=1
    78                           	psect	text58,global,reloc=2,class=CODE,delta=1
    79                           	psect	text59,global,reloc=2,class=CODE,delta=1
    80                           	psect	text60,global,reloc=2,class=CODE,delta=1
    81                           	psect	text61,global,reloc=2,class=CODE,delta=1
    82                           	psect	text62,global,reloc=2,class=CODE,delta=1,group=1
    83                           	psect	text63,global,reloc=2,class=CODE,delta=1,group=1
    84                           	psect	text64,global,reloc=2,class=CODE,delta=1,inline
    85                           	psect	text65,global,reloc=2,class=CODE,delta=1,inline
    86                           	psect	text66,global,reloc=2,class=CODE,delta=1,inline
    87                           	psect	text67,global,reloc=2,class=CODE,delta=1,inline
    88                           	psect	text68,global,reloc=2,class=CODE,delta=1,inline
    89                           	psect	text69,global,reloc=2,class=CODE,delta=1
    90                           	psect	text70,global,reloc=2,class=CODE,delta=1
    91                           	psect	text71,global,reloc=2,class=CODE,delta=1,inline
    92                           	psect	text72,global,reloc=2,class=CODE,delta=1
    93                           	psect	intsave_regs,global,class=BIGRAM,space=1,delta=1,noexec
    94                           	psect	text73,global,reloc=2,class=CODE,delta=1
    95                           	psect	rparam,global,class=COMRAM,space=1,delta=1,noexec
    96                           	psect	temp,global,ovrld,common,class=COMRAM,space=1,delta=1
    97                           	psect	config,global,abs,ovrld,class=CONFIG,space=4,delta=1,noexec
    98   000000                     
    99                           ; Generated 23/03/2023 GMT
   100                           ; 
   101                           ; Copyright © 2023, Microchip Technology Inc. and its subsidiaries ("Microchip")
   102                           ; All rights reserved.
   103                           ; 
   104                           ; This software is developed by Microchip Technology Inc. and its subsidiaries ("Microch
      +                          ip").
   105                           ; 
   106                           ; Redistribution and use in source and binary forms, with or without modification, are
   107                           ; permitted provided that the following conditions are met:
   108                           ; 
   109                           ;     1. Redistributions of source code must retain the above copyright notice, this lis
      +                          t of
   110                           ;        conditions and the following disclaimer.
   111                           ; 
   112                           ;     2. Redistributions in binary form must reproduce the above copyright notice, this 
      +                          list
   113                           ;        of conditions and the following disclaimer in the documentation and/or other
   114                           ;        materials provided with the distribution. Publication is not required when
   115                           ;        this file is used in an embedded application.
   116                           ; 
   117                           ;     3. Microchip's name may not be used to endorse or promote products derived from th
      +                          is
   118                           ;        software without specific prior written permission.
   119                           ; 
   120                           ; THIS SOFTWARE IS PROVIDED BY MICROCHIP "AS IS" AND ANY EXPRESS OR IMPLIED WARRANTIES,
   121                           ; INCLUDING, BUT NOT LIMITED TO, THE IMPLIED WARRANTIES OF MERCHANTABILITY AND FITNESS F
      +                          OR
   122                           ; PURPOSE ARE DISCLAIMED.  IN NO EVENT SHALL MICROCHIP BE LIABLE FOR ANY DIRECT, INDIREC
      +                          T,
   123                           ; INCIDENTAL, SPECIAL, EXEMPLARY, OR CONSEQUENTIAL DAMAGES (INCLUDING BUT NOT LIMITED TO
   124                           ; PROCUREMENT OF SUBSTITUTE GOODS OR SERVICES; LOSS OF USE, DATA OR PROFITS; OR BUSINESS
   125                           ; INTERRUPTION) HOWSOEVER CAUSED AND ON ANY THEORY OF LIABILITY, WHETHER IN CONTRACT, ST
      +                          RICT
   126                           ; LIABILITY, OR TORT (INCLUDING NEGLIGENCE OR OTHERWISE) ARISING IN ANY WAY OUT OF THE U
      +                          SE OF
   127                           ; THIS SOFTWARE, EVEN IF ADVISED OF THE POSSIBILITY OF SUCH DAMAGE.
   128                           ; 
   129                           ; 
   130                           ; Code-generator required, PIC18F4620 Definitions
   131                           ; 
   132                           ; SFR Addresses
   133   000000                     
   134 ;; Function _I2C_SlaveDefWrColInterruptHandler is unused but had its address taken
   135   000000                     
   136 ;; Function _I2C_SlaveDefBusColInterruptHandler is unused but had its address taken
   137   000000                     
   138                           	psect	idataCOMRAM
   139   0039BE                     __pidataCOMRAM:
   140                           	callstack 0
   141                           
   142                           ;initializer for _RB7_Flag
   143   0039BE  01                 	db	1
   144                           
   145                           ;initializer for _RB6_Flag
   146   0039BF  01                 	db	1
   147                           
   148                           ;initializer for _RB5_Flag
   149   0039C0  01                 	db	1
   150                           
   151                           ;initializer for _RB4_Flag
   152   0039C1  01                 	db	1
   153                           
   154                           ;initializer for SPI_Slave_Mode_GPIO_PIN_Configurations@F3128
   155   0039C2  28                 	db	40
   156                           
   157                           ;initializer for SPI_Slave_Mode_GPIO_PIN_Configurations@F3126
   158   0039C3  2A                 	db	42
   159                           
   160                           ;initializer for SPI_Slave_Mode_GPIO_PIN_Configurations@F3124
   161   0039C4  22                 	db	34
   162                           
   163                           ;initializer for SPI_Slave_Mode_GPIO_PIN_Configurations@F3122
   164   0039C5  1A                 	db	26
   165                           
   166                           ;initializer for SPI_Master_Mode_GPIO_PIN_Configurations@F3118
   167   0039C6  2A                 	db	42
   168                           
   169                           ;initializer for SPI_Master_Mode_GPIO_PIN_Configurations@F3116
   170   0039C7  22                 	db	34
   171                           
   172                           ;initializer for SPI_Master_Mode_GPIO_PIN_Configurations@F3114
   173   0039C8  1A                 	db	26
   174                           
   175                           ;initializer for _n
   176   0039C9  04                 	db	4
   177                           
   178                           	psect	idataBANK0
   179   003898                     __pidataBANK0:
   180                           	callstack 0
   181                           
   182                           ;initializer for _latx
   183   003898  89                 	db	137
   184   003899  0F                 	db	15
   185   00389A  8A                 	db	138
   186   00389B  0F                 	db	15
   187   00389C  8B                 	db	139
   188   00389D  0F                 	db	15
   189   00389E  8C                 	db	140
   190   00389F  0F                 	db	15
   191   0038A0  8D                 	db	141
   192   0038A1  0F                 	db	15
   193                           
   194                           ;initializer for _trisx
   195   0038A2  92                 	db	146
   196   0038A3  0F                 	db	15
   197   0038A4  93                 	db	147
   198   0038A5  0F                 	db	15
   199   0038A6  94                 	db	148
   200   0038A7  0F                 	db	15
   201   0038A8  95                 	db	149
   202   0038A9  0F                 	db	15
   203   0038AA  96                 	db	150
   204   0038AB  0F                 	db	15
   205                           
   206                           ;initializer for _seg_1
   207   0038AC  01                 	db	1
   208   0038AD  09                 	db	9
   209   0038AE  11                 	db	17
   210   0038AF  19                 	db	25
   211   0038B0  00                 	db	0
   212                           
   213                           ;initializer for _motor2
   214   0038B1  13                 	db	19
   215   0038B2  1B                 	db	27
   216   0038B3  00                 	db	0
   217                           
   218                           ;initializer for _motor1
   219   0038B4  03                 	db	3
   220   0038B5  0B                 	db	11
   221   0038B6  00                 	db	0
   222                           
   223                           ;initializer for _led_blue
   224   0038B7  2B                 	db	43
   225   0038B8  00                 	db	0
   226                           
   227                           ;initializer for _led_red
   228   0038B9  23                 	db	35
   229   0038BA  00                 	db	0
   230                           
   231                           	psect	idataBANK1
   232   003796                     __pidataBANK1:
   233                           	callstack 0
   234                           
   235                           ;initializer for _keypad_btns
   236   003796  37                 	db	55
   237   003797  38                 	db	56
   238   003798  39                 	db	57
   239   003799  2F                 	db	47
   240   00379A  34                 	db	52
   241   00379B  35                 	db	53
   242   00379C  36                 	db	54
   243   00379D  2A                 	db	42
   244   00379E  31                 	db	49
   245   00379F  32                 	db	50
   246   0037A0  33                 	db	51
   247   0037A1  2D                 	db	45
   248   0037A2  23                 	db	35
   249   0037A3  30                 	db	48
   250   0037A4  3D                 	db	61
   251   0037A5  2B                 	db	43
   252                           
   253                           ;initializer for _portx
   254   0037A6  80                 	db	128
   255   0037A7  0F                 	db	15
   256   0037A8  81                 	db	129
   257   0037A9  0F                 	db	15
   258   0037AA  82                 	db	130
   259   0037AB  0F                 	db	15
   260   0037AC  83                 	db	131
   261   0037AD  0F                 	db	15
   262   0037AE  84                 	db	132
   263   0037AF  0F                 	db	15
   264                           
   265                           ;initializer for _ccp1
   266   0037B0  00                 	db	0
   267   0037B1  02                 	db	2
   268   0037B2  00                 	db	0
   269   0037B3  12                 	db	18
   270   0037B4  00                 	db	0
   271   0037B5  2710               	dw	10000
   272   0037B7  01                 	db	1
   273   0037B8  01                 	db	1
   274   0037B9  00                 	db	0
   275   0037BA  00                 	db	0
   276   0037BB  00                 	db	0
   277   0037BC  00                 	db	0
   278   0037BD  00                 	db	0
   279   0037BE  00                 	db	0
   280                           
   281                           ;initializer for _seg_2
   282   0037BF  21                 	db	33
   283   0037C0  29                 	db	41
   284   0037C1  31                 	db	49
   285   0037C2  39                 	db	57
   286   0037C3  00                 	db	0
   287   000000                     _SSPADD	set	4040
   288   000000                     _SSPCON2	set	4037
   289   000000                     _SPBRGH	set	4016
   290   000000                     _SPBRG	set	4015
   291   000000                     _RCREG	set	4014
   292   000000                     _TXREG	set	4013
   293   000000                     _TXSTAbits	set	4012
   294   000000                     _RCSTAbits	set	4011
   295   000000                     _TMR3L	set	4018
   296   000000                     _TMR3H	set	4019
   297   000000                     _TMR2	set	4044
   298   000000                     _T2CONbits	set	4042
   299   000000                     _TMR1L	set	4046
   300   000000                     _TMR1H	set	4047
   301   000000                     _T1CONbits	set	4045
   302   000000                     _TMR0L	set	4054
   303   000000                     _TMR0H	set	4055
   304   000000                     _T0CONbits	set	4053
   305   000000                     _SSPBUF	set	4041
   306   000000                     _SSPSTATbits	set	4039
   307   000000                     _SSPCON1bits	set	4038
   308   000000                     _INTCON2bits	set	4081
   309   000000                     _INTCON3bits	set	4080
   310   000000                     _EECON2	set	4007
   311   000000                     _ADCON1bits	set	4033
   312   000000                     _ADRESH	set	4036
   313   000000                     _ADRESL	set	4035
   314   000000                     _INTCONbits	set	4082
   315   000000                     _TRISD	set	3989
   316   000000                     _TRISC	set	3988
   317   000000                     _PR2	set	4043
   318   000000                     _TRISB	set	3987
   319   000000                     _TRISE	set	3990
   320   000000                     _SSPCON2bits	set	4037
   321   000000                     _SSPCON1	set	4038
   322   000000                     _SSPSTAT	set	4039
   323   000000                     _PORTBbits	set	3969
   324   000000                     _TRISCbits	set	3988
   325   000000                     _PIE1bits	set	3997
   326   000000                     _PIR1bits	set	3998
   327   000000                     _ADCON2bits	set	4032
   328   000000                     _ADCON0bits	set	4034
   329   000000                     _PORTE	set	3972
   330   000000                     _PORTD	set	3971
   331   000000                     _PORTC	set	3970
   332   000000                     _PORTB	set	3969
   333   000000                     _PORTA	set	3968
   334   000000                     _LATA	set	3977
   335   000000                     _TRISA	set	3986
   336   000000                     _PIE2bits	set	4000
   337   000000                     _CCP2CONbits	set	4026
   338   000000                     _CCP1CONbits	set	4029
   339   000000                     _CCPR1L	set	4030
   340   000000                     _CCPR2L	set	4027
   341   000000                     _EECON1bits	set	4006
   342   000000                     _EEDATA	set	4008
   343   000000                     _EEADR	set	4009
   344   000000                     _EEADRH	set	4010
   345   000000                     _T3CONbits	set	4017
   346   000000                     _PIR2bits	set	4001
   347   000000                     _LATE	set	3981
   348   000000                     _LATD	set	3980
   349   000000                     _LATC	set	3979
   350   000000                     _LATB	set	3978
   351   000000                     _RCONbits	set	4048
   352   000000                     _BAUDCONbits	set	4024
   353                           
   354                           	psect	smallconst
   355   001000                     __psmallconst:
   356                           	callstack 0
   357   001000  00                 	db	0
   358   001001                     STR_1:
   359   001001  25                 	db	37
   360   001002  69                 	db	105	;'i'
   361   001003  00                 	db	0
   362   001004  00                 	db	0	; dummy byte at the end
   363   000000                     
   364                           ; #config settings
   365                           
   366                           	psect	cinit
   367   003188                     __pcinit:
   368                           	callstack 0
   369   003188                     start_initialization:
   370                           	callstack 0
   371   003188                     __initialization:
   372                           	callstack 0
   373                           
   374                           ; Initialize objects allocated to BANK1 (46 bytes)
   375                           ; load TBLPTR registers with __pidataBANK1
   376   003188  0E96               	movlw	low __pidataBANK1
   377   00318A  6EF6               	movwf	tblptrl,c
   378   00318C  0E37               	movlw	high __pidataBANK1
   379   00318E  6EF7               	movwf	tblptrh,c
   380   003190  0E00               	movlw	low (__pidataBANK1 shr (0+16))
   381   003192  6EF8               	movwf	tblptru,c
   382   003194  EE01  F000         	lfsr	0,__pdataBANK1
   383   003198  EE10 F02E          	lfsr	1,46
   384   00319C                     copy_data0:
   385   00319C  0009               	tblrd		*+
   386   00319E  CFF5 FFEE          	movff	tablat,postinc0
   387   0031A2  50E5               	movf	postdec1,w,c
   388   0031A4  50E1               	movf	fsr1l,w,c
   389   0031A6  E1FA               	bnz	copy_data0
   390                           
   391                           ; Initialize objects allocated to BANK0 (35 bytes)
   392                           ; load TBLPTR registers with __pidataBANK0
   393   0031A8  0E98               	movlw	low __pidataBANK0
   394   0031AA  6EF6               	movwf	tblptrl,c
   395   0031AC  0E38               	movlw	high __pidataBANK0
   396   0031AE  6EF7               	movwf	tblptrh,c
   397   0031B0  0E00               	movlw	low (__pidataBANK0 shr (0+16))
   398   0031B2  6EF8               	movwf	tblptru,c
   399   0031B4  EE00  F0C4         	lfsr	0,__pdataBANK0
   400   0031B8  EE10 F023          	lfsr	1,35
   401   0031BC                     copy_data1:
   402   0031BC  0009               	tblrd		*+
   403   0031BE  CFF5 FFEE          	movff	tablat,postinc0
   404   0031C2  50E5               	movf	postdec1,w,c
   405   0031C4  50E1               	movf	fsr1l,w,c
   406   0031C6  E1FA               	bnz	copy_data1
   407                           
   408                           ; Initialize objects allocated to COMRAM (12 bytes)
   409                           ; load TBLPTR registers with __pidataCOMRAM
   410   0031C8  0EBE               	movlw	low __pidataCOMRAM
   411   0031CA  6EF6               	movwf	tblptrl,c
   412   0031CC  0E39               	movlw	high __pidataCOMRAM
   413   0031CE  6EF7               	movwf	tblptrh,c
   414   0031D0  0E00               	movlw	low (__pidataCOMRAM shr (0+16))
   415   0031D2  6EF8               	movwf	tblptru,c
   416   0031D4  EE00  F050         	lfsr	0,__pdataCOMRAM
   417   0031D8  EE10 F00C          	lfsr	1,12
   418   0031DC                     copy_data2:
   419   0031DC  0009               	tblrd		*+
   420   0031DE  CFF5 FFEE          	movff	tablat,postinc0
   421   0031E2  50E5               	movf	postdec1,w,c
   422   0031E4  50E1               	movf	fsr1l,w,c
   423   0031E6  E1FA               	bnz	copy_data2
   424                           
   425                           ; Clear objects allocated to BANK1 (13 bytes)
   426   0031E8  EE01  F048         	lfsr	0,__pbssBANK1
   427   0031EC  0E0D               	movlw	13
   428   0031EE                     clear_0:
   429   0031EE  6AEE               	clrf	postinc0,c
   430   0031F0  06E8               	decf	wreg,f,c
   431   0031F2  E1FD               	bnz	clear_0
   432                           
   433                           ; Clear objects allocated to BANK0 (68 bytes)
   434   0031F4  EE00  F080         	lfsr	0,__pbssBANK0
   435   0031F8  0E44               	movlw	68
   436   0031FA                     clear_1:
   437   0031FA  6AEE               	clrf	postinc0,c
   438   0031FC  06E8               	decf	wreg,f,c
   439   0031FE  E1FD               	bnz	clear_1
   440                           
   441                           ; Clear objects allocated to COMRAM (11 bytes)
   442   003200  EE00  F05C         	lfsr	0,__pbssCOMRAM
   443   003204  0E0B               	movlw	11
   444   003206                     clear_2:
   445   003206  6AEE               	clrf	postinc0,c
   446   003208  06E8               	decf	wreg,f,c
   447   00320A  E1FD               	bnz	clear_2
   448   00320C                     end_of_initialization:
   449                           	callstack 0
   450   00320C                     __end_of__initialization:
   451                           	callstack 0
   452   00320C  9067               	bcf	int$flags,0,c	;clear compiler interrupt flag (level 1)
   453   00320E  9267               	bcf	int$flags,1,c	;clear compiler interrupt flag (level 2)
   454   003210  0100               	movlb	0
   455   003212  EF75  F016         	goto	_main	;jump to C main() function
   456                           
   457                           	psect	bssCOMRAM
   458   00005C                     __pbssCOMRAM:
   459                           	callstack 0
   460   00005C                     _var_slave:
   461                           	callstack 0
   462   00005C                     	ds	1
   463   00005D                     _i2cSlaveState:
   464                           	callstack 0
   465   00005D                     	ds	1
   466   00005E                     _i2cWrData:
   467                           	callstack 0
   468   00005E                     	ds	1
   469   00005F                     _timer2_preload:
   470                           	callstack 0
   471   00005F                     	ds	1
   472   000060                     	ds	1
   473   000061                     	ds	1
   474   000062                     lcd_send_custom_char@counter:
   475                           	callstack 0
   476   000062                     	ds	1
   477   000063                     seven_segment_write@counter:
   478                           	callstack 0
   479   000063                     	ds	1
   480   000064                     seven_segment_init@counter:
   481                           	callstack 0
   482   000064                     	ds	1
   483   000065                     lcd_send_number_pos@number:
   484                           	callstack 0
   485   000065                     	ds	1
   486   000066                     lcd_send_number@number:
   487                           	callstack 0
   488   000066                     	ds	1
   489                           
   490                           	psect	dataCOMRAM
   491   000050                     __pdataCOMRAM:
   492                           	callstack 0
   493   000050                     _RB7_Flag:
   494                           	callstack 0
   495   000050                     	ds	1
   496   000051                     _RB6_Flag:
   497                           	callstack 0
   498   000051                     	ds	1
   499   000052                     _RB5_Flag:
   500                           	callstack 0
   501   000052                     	ds	1
   502   000053                     _RB4_Flag:
   503                           	callstack 0
   504   000053                     	ds	1
   505   000054                     SPI_Slave_Mode_GPIO_PIN_Configurations@F3128:
   506                           	callstack 0
   507   000054                     	ds	1
   508   000055                     SPI_Slave_Mode_GPIO_PIN_Configurations@F3126:
   509                           	callstack 0
   510   000055                     	ds	1
   511   000056                     SPI_Slave_Mode_GPIO_PIN_Configurations@F3124:
   512                           	callstack 0
   513   000056                     	ds	1
   514   000057                     SPI_Slave_Mode_GPIO_PIN_Configurations@F3122:
   515                           	callstack 0
   516   000057                     	ds	1
   517   000058                     SPI_Master_Mode_GPIO_PIN_Configurations@F3118:
   518                           	callstack 0
   519   000058                     	ds	1
   520   000059                     SPI_Master_Mode_GPIO_PIN_Configurations@F3116:
   521                           	callstack 0
   522   000059                     	ds	1
   523   00005A                     SPI_Master_Mode_GPIO_PIN_Configurations@F3114:
   524                           	callstack 0
   525   00005A                     	ds	1
   526   00005B                     _n:
   527                           	callstack 0
   528   00005B                     	ds	1
   529                           
   530                           	psect	bssBANK0
   531   000080                     __pbssBANK0:
   532                           	callstack 0
   533   000080                     _I2C_SlaveWrColInterruptHandler:
   534                           	callstack 0
   535   000080                     	ds	2
   536   000082                     _I2C_SlaveBusColInterruptHandler:
   537                           	callstack 0
   538   000082                     	ds	2
   539   000084                     _I2C_SlaveAddrInterruptHandler:
   540                           	callstack 0
   541   000084                     	ds	2
   542   000086                     _I2C_SlaveWrInterruptHandler:
   543                           	callstack 0
   544   000086                     	ds	2
   545   000088                     _I2C_SlaveRdInterruptHandler:
   546                           	callstack 0
   547   000088                     	ds	2
   548   00008A                     _MSSP_InterruptHandler:
   549                           	callstack 0
   550   00008A                     	ds	2
   551   00008C                     	ds	2
   552   00008E                     	ds	2
   553   000090                     	ds	2
   554   000092                     _EUSART_TxInterruptHandler:
   555                           	callstack 0
   556   000092                     	ds	2
   557   000094                     _timer3_preload:
   558                           	callstack 0
   559   000094                     	ds	2
   560   000096                     _TMR3_InterruptHandler:
   561                           	callstack 0
   562   000096                     	ds	2
   563   000098                     _TMR2_InterruptHandler:
   564                           	callstack 0
   565   000098                     	ds	2
   566   00009A                     _timer1_preload:
   567                           	callstack 0
   568   00009A                     	ds	2
   569   00009C                     _TMR1_InterruptHandler:
   570                           	callstack 0
   571   00009C                     	ds	2
   572   00009E                     _timer0_preload:
   573                           	callstack 0
   574   00009E                     	ds	2
   575   0000A0                     _TMR0_InterruptHandler:
   576                           	callstack 0
   577   0000A0                     	ds	2
   578   0000A2                     _SPI_InterruptHandler:
   579                           	callstack 0
   580   0000A2                     	ds	2
   581   0000A4                     _RB7_InterruptHandler_low:
   582                           	callstack 0
   583   0000A4                     	ds	2
   584   0000A6                     _RB7_InterruptHandler_high:
   585                           	callstack 0
   586   0000A6                     	ds	2
   587   0000A8                     _RB6_InterruptHandler_low:
   588                           	callstack 0
   589   0000A8                     	ds	2
   590   0000AA                     _RB6_InterruptHandler_high:
   591                           	callstack 0
   592   0000AA                     	ds	2
   593   0000AC                     _RB5_InterruptHandler_low:
   594                           	callstack 0
   595   0000AC                     	ds	2
   596   0000AE                     _RB5_InterruptHandler_high:
   597                           	callstack 0
   598   0000AE                     	ds	2
   599   0000B0                     _RB4_InterruptHandler_low:
   600                           	callstack 0
   601   0000B0                     	ds	2
   602   0000B2                     _RB4_InterruptHandler_high:
   603                           	callstack 0
   604   0000B2                     	ds	2
   605   0000B4                     _INT2_InterruptHandler:
   606                           	callstack 0
   607   0000B4                     	ds	2
   608   0000B6                     _INT1_InterruptHandler:
   609                           	callstack 0
   610   0000B6                     	ds	2
   611   0000B8                     _INT0_InterruptHandler:
   612                           	callstack 0
   613   0000B8                     	ds	2
   614   0000BA                     _CCP2_InterruptHandler:
   615                           	callstack 0
   616   0000BA                     	ds	2
   617   0000BC                     _CCP1_InterruptHandler:
   618                           	callstack 0
   619   0000BC                     	ds	2
   620   0000BE                     _ADC_InterruptHandler:
   621                           	callstack 0
   622   0000BE                     	ds	2
   623   0000C0                     _i2cSlaveAddr:
   624                           	callstack 0
   625   0000C0                     	ds	1
   626   0000C1                     _i2cRdData:
   627                           	callstack 0
   628   0000C1                     	ds	1
   629   0000C2                     	ds	1
   630   0000C3                     	ds	1
   631                           
   632                           	psect	dataBANK0
   633   0000C4                     __pdataBANK0:
   634                           	callstack 0
   635   0000C4                     _latx:
   636                           	callstack 0
   637   0000C4                     	ds	10
   638   0000CE                     _trisx:
   639                           	callstack 0
   640   0000CE                     	ds	10
   641   0000D8                     _seg_1:
   642                           	callstack 0
   643   0000D8                     	ds	5
   644   0000DD                     _motor2:
   645                           	callstack 0
   646   0000DD                     	ds	3
   647   0000E0                     _motor1:
   648                           	callstack 0
   649   0000E0                     	ds	3
   650   0000E3                     _led_blue:
   651                           	callstack 0
   652   0000E3                     	ds	2
   653   0000E5                     _led_red:
   654                           	callstack 0
   655   0000E5                     	ds	2
   656                           
   657                           	psect	bssBANK1
   658   000148                     __pbssBANK1:
   659                           	callstack 0
   660   000148                     	ds	6
   661   00014E                     _timer2:
   662                           	callstack 0
   663   00014E                     	ds	7
   664                           
   665                           	psect	dataBANK1
   666   000100                     __pdataBANK1:
   667                           	callstack 0
   668   000100                     _keypad_btns:
   669                           	callstack 0
   670   000100                     	ds	16
   671   000110                     _portx:
   672                           	callstack 0
   673   000110                     	ds	10
   674   00011A                     _ccp1:
   675                           	callstack 0
   676   00011A                     	ds	15
   677   000129                     _seg_2:
   678                           	callstack 0
   679   000129                     	ds	5
   680                           
   681                           	psect	cstackBANK1
   682   00012E                     __pcstackBANK1:
   683                           	callstack 0
   684   00012E                     ?___fltol:
   685                           	callstack 0
   686   00012E                     ___fltol@f1:
   687                           	callstack 0
   688                           
   689                           ; 4 bytes @ 0x0
   690   00012E                     	ds	4
   691   000132                     ??___fltol:
   692                           
   693                           ; 1 bytes @ 0x4
   694   000132                     	ds	4
   695   000136                     ___fltol@sign1:
   696                           	callstack 0
   697                           
   698                           ; 1 bytes @ 0x8
   699   000136                     	ds	1
   700   000137                     ___fltol@exp1:
   701                           	callstack 0
   702                           
   703                           ; 1 bytes @ 0x9
   704   000137                     	ds	1
   705   000138                     CCP_PWM_Set_Duty@_ccp_obj:
   706                           	callstack 0
   707   000138                     CCP_PWM_Mode_Config@_ccp_obj:
   708                           	callstack 0
   709                           
   710                           ; 2 bytes @ 0xA
   711   000138                     	ds	2
   712   00013A                     ??_CCP_PWM_Mode_Config:
   713   00013A                     CCP_PWM_Set_Duty@_duty:
   714                           	callstack 0
   715                           
   716                           ; 1 bytes @ 0xC
   717   00013A                     	ds	1
   718   00013B                     ??_CCP_PWM_Set_Duty:
   719                           
   720                           ; 1 bytes @ 0xD
   721   00013B                     	ds	1
   722   00013C                     _CCP_PWM_Mode_Config$5875:
   723                           	callstack 0
   724                           
   725                           ; 4 bytes @ 0xE
   726   00013C                     	ds	1
   727   00013D                     _CCP_PWM_Set_Duty$5874:
   728                           	callstack 0
   729                           
   730                           ; 4 bytes @ 0xF
   731   00013D                     	ds	3
   732   000140                     _CCP_PWM_Mode_Config$5876:
   733                           	callstack 0
   734                           
   735                           ; 4 bytes @ 0x12
   736   000140                     	ds	1
   737   000141                     CCP_PWM_Set_Duty@l_duty_temp:
   738                           	callstack 0
   739                           
   740                           ; 2 bytes @ 0x13
   741   000141                     	ds	3
   742   000144                     CCP_Init@_ccp_obj:
   743                           	callstack 0
   744                           
   745                           ; 2 bytes @ 0x16
   746   000144                     	ds	2
   747   000146                     
   748                           ; 1 bytes @ 0x18
   749   000146                     	ds	1
   750   000147                     _main$5878:
   751                           	callstack 0
   752                           
   753                           ; 1 bytes @ 0x19
   754   000147                     	ds	1
   755                           
   756                           	psect	cstackBANK0
   757   0000E7                     __pcstackBANK0:
   758                           	callstack 0
   759   0000E7                     ___fldiv@rem:
   760                           	callstack 0
   761                           
   762                           ; 4 bytes @ 0x0
   763   0000E7                     	ds	4
   764   0000EB                     ___fldiv@sign:
   765                           	callstack 0
   766                           
   767                           ; 1 bytes @ 0x4
   768   0000EB                     	ds	1
   769   0000EC                     ___fldiv@new_exp:
   770                           	callstack 0
   771                           
   772                           ; 2 bytes @ 0x5
   773   0000EC                     	ds	2
   774   0000EE                     ___fldiv@grs:
   775                           	callstack 0
   776                           
   777                           ; 4 bytes @ 0x7
   778   0000EE                     	ds	4
   779   0000F2                     ___fldiv@bexp:
   780                           	callstack 0
   781                           
   782                           ; 1 bytes @ 0xB
   783   0000F2                     	ds	1
   784   0000F3                     ___fldiv@aexp:
   785                           	callstack 0
   786                           
   787                           ; 1 bytes @ 0xC
   788   0000F3                     	ds	1
   789   0000F4                     ?___fladd:
   790                           	callstack 0
   791   0000F4                     ___fladd@b:
   792                           	callstack 0
   793                           
   794                           ; 4 bytes @ 0xD
   795   0000F4                     	ds	4
   796   0000F8                     ___fladd@a:
   797                           	callstack 0
   798                           
   799                           ; 4 bytes @ 0x11
   800   0000F8                     	ds	4
   801   0000FC                     ___fladd@signs:
   802                           	callstack 0
   803                           
   804                           ; 1 bytes @ 0x15
   805   0000FC                     	ds	1
   806   0000FD                     ___fladd@aexp:
   807                           	callstack 0
   808                           
   809                           ; 1 bytes @ 0x16
   810   0000FD                     	ds	1
   811   0000FE                     ___fladd@bexp:
   812                           	callstack 0
   813                           
   814                           ; 1 bytes @ 0x17
   815   0000FE                     	ds	1
   816   0000FF                     ___fladd@grs:
   817                           	callstack 0
   818                           
   819                           ; 1 bytes @ 0x18
   820   0000FF                     	ds	1
   821                           
   822                           	psect	cstackCOMRAM
   823   000001                     __pcstackCOMRAM:
   824                           	callstack 0
   825   000001                     ?___awdiv:
   826                           	callstack 0
   827   000001                     ?___awmod:
   828                           	callstack 0
   829   000001                     RB4_ISR@RB4_Source:
   830                           	callstack 0
   831   000001                     RB5_ISR@RB5_Source:
   832                           	callstack 0
   833   000001                     RB6_ISR@RB6_Source:
   834                           	callstack 0
   835   000001                     RB7_ISR@RB7_Source:
   836                           	callstack 0
   837   000001                     I2C_SlaveSendTxData@data:
   838                           	callstack 0
   839   000001                     ___awdiv@dividend:
   840                           	callstack 0
   841   000001                     ___awmod@dividend:
   842                           	callstack 0
   843   000001                     i2gpio_pin_logic_write@pin:
   844                           	callstack 0
   845                           
   846                           ; 2 bytes @ 0x0
   847   000001                     	ds	1
   848   000002                     
   849                           ; 1 bytes @ 0x1
   850   000002                     	ds	1
   851   000003                     i2gpio_pin_logic_write@pin_logic:
   852                           	callstack 0
   853   000003                     ___awdiv@divisor:
   854                           	callstack 0
   855   000003                     ___awmod@divisor:
   856                           	callstack 0
   857                           
   858                           ; 2 bytes @ 0x2
   859   000003                     	ds	1
   860   000004                     ??i2_gpio_pin_logic_write:
   861                           
   862                           ; 1 bytes @ 0x3
   863   000004                     	ds	1
   864   000005                     ___awdiv@counter:
   865                           	callstack 0
   866   000005                     ___awmod@counter:
   867                           	callstack 0
   868                           
   869                           ; 1 bytes @ 0x4
   870   000005                     	ds	1
   871   000006                     ___awdiv@sign:
   872                           	callstack 0
   873   000006                     ___awmod@sign:
   874                           	callstack 0
   875                           
   876                           ; 1 bytes @ 0x5
   877   000006                     	ds	1
   878   000007                     ___awdiv@quotient:
   879                           	callstack 0
   880                           
   881                           ; 2 bytes @ 0x6
   882   000007                     	ds	2
   883   000009                     seven_segment_write@seg:
   884                           	callstack 0
   885                           
   886                           ; 2 bytes @ 0x8
   887   000009                     	ds	2
   888   00000B                     seven_segment_write@num:
   889                           	callstack 0
   890                           
   891                           ; 1 bytes @ 0xA
   892   00000B                     	ds	1
   893   00000C                     ??_seven_segment_write:
   894                           
   895                           ; 1 bytes @ 0xB
   896   00000C                     	ds	2
   897   00000E                     seven_segment_write@gpio_ret:
   898                           	callstack 0
   899                           
   900                           ; 1 bytes @ 0xD
   901   00000E                     	ds	1
   902   00000F                     print_num_7seg@num:
   903                           	callstack 0
   904                           
   905                           ; 1 bytes @ 0xE
   906   00000F                     	ds	1
   907   000010                     MY_I2C_slave_ISR@temp_var:
   908                           	callstack 0
   909                           
   910                           ; 1 bytes @ 0xF
   911   000010                     	ds	1
   912   000011                     ??_I2C_Isr:
   913   000011                     
   914                           ; 1 bytes @ 0x10
   915   000011                     	ds	2
   916   000013                     ??_INTERRUPT_InterruptManager:
   917                           
   918                           ; 1 bytes @ 0x12
   919   000013                     	ds	6
   920   000019                     ?___xxtofl:
   921                           	callstack 0
   922   000019                     I2C_SlaveSetSlaveAddr@slaveAddr:
   923                           	callstack 0
   924   000019                     CCP_PWM_Start@_ccp_obj:
   925                           	callstack 0
   926   000019                     CCP_Interrupt_Config@_ccp_obj:
   927                           	callstack 0
   928   000019                     CCP_Mode_Timer_Select@_ccp_obj:
   929                           	callstack 0
   930   000019                     gpio_pin_direction_init@pin:
   931                           	callstack 0
   932   000019                     gpio_pin_logic_write@pin:
   933                           	callstack 0
   934   000019                     Timer2_Init@_timer:
   935                           	callstack 0
   936   000019                     I2C_SlaveSetIsrHandler@handler:
   937                           	callstack 0
   938   000019                     I2C_SlaveSetReadIntHandler@handler:
   939                           	callstack 0
   940   000019                     I2C_SlaveSetWriteIntHandler@handler:
   941                           	callstack 0
   942   000019                     I2C_SlaveSetAddrIntHandler@handler:
   943                           	callstack 0
   944   000019                     I2C_SlaveSetWrColIntHandler@handler:
   945                           	callstack 0
   946   000019                     I2C_SlaveSetBusColIntHandler@handler:
   947                           	callstack 0
   948   000019                     ___xxtofl@val:
   949                           	callstack 0
   950                           
   951                           ; 4 bytes @ 0x18
   952   000019                     	ds	2
   953   00001B                     ??_Timer2_Init:
   954   00001B                     gpio_pin_direction_init@pin_direction:
   955                           	callstack 0
   956   00001B                     gpio_pin_logic_write@pin_logic:
   957                           	callstack 0
   958                           
   959                           ; 1 bytes @ 0x1A
   960   00001B                     	ds	1
   961   00001C                     ??_gpio_pin_logic_write:
   962   00001C                     ??_gpio_pin_direction_init:
   963   00001C                     CCP_Capture_Mode_Config@_ccp_obj:
   964                           	callstack 0
   965   00001C                     CCP_Compare_Mode_Config@_ccp_obj:
   966                           	callstack 0
   967                           
   968                           ; 2 bytes @ 0x1B
   969   00001C                     	ds	1
   970   00001D                     ??___xxtofl:
   971                           
   972                           ; 1 bytes @ 0x1C
   973   00001D                     	ds	1
   974   00001E                     ??_CCP_Capture_Mode_Config:
   975   00001E                     ??_CCP_Compare_Mode_Config:
   976                           
   977                           ; 1 bytes @ 0x1D
   978   00001E                     	ds	2
   979   000020                     CCP_Capture_Mode_Config@ret:
   980                           	callstack 0
   981   000020                     CCP_Compare_Mode_Config@ret:
   982                           	callstack 0
   983                           
   984                           ; 1 bytes @ 0x1F
   985   000020                     	ds	1
   986   000021                     gpio_pin_direction_init@ret:
   987                           	callstack 0
   988   000021                     gpio_pin_logic_write@ret:
   989                           	callstack 0
   990   000021                     ___xxtofl@sign:
   991                           	callstack 0
   992                           
   993                           ; 1 bytes @ 0x20
   994   000021                     	ds	1
   995   000022                     dc_motor_move_right@dc_motor:
   996                           	callstack 0
   997   000022                     dc_motor_stop@dc_motor:
   998                           	callstack 0
   999   000022                     led_on@led:
  1000                           	callstack 0
  1001   000022                     led_off@led:
  1002                           	callstack 0
  1003   000022                     ___xxtofl@exp:
  1004                           	callstack 0
  1005   000022                     gpio_pin_output_low_init@pin:
  1006                           	callstack 0
  1007                           
  1008                           ; 2 bytes @ 0x21
  1009   000022                     	ds	1
  1010   000023                     ??_dc_motor_move_right:
  1011   000023                     ??_dc_motor_stop:
  1012   000023                     led_on@gpio_ret:
  1013                           	callstack 0
  1014   000023                     led_off@gpio_ret:
  1015                           	callstack 0
  1016   000023                     ___xxtofl@arg:
  1017                           	callstack 0
  1018                           
  1019                           ; 4 bytes @ 0x22
  1020   000023                     	ds	1
  1021   000024                     ??_gpio_pin_output_low_init:
  1022   000024                     dc_motor_move_right@gpio_ret:
  1023                           	callstack 0
  1024   000024                     dc_motor_stop@gpio_ret:
  1025                           	callstack 0
  1026                           
  1027                           ; 1 bytes @ 0x23
  1028   000024                     	ds	1
  1029   000025                     gpio_pin_output_low_init@gpio_ret:
  1030                           	callstack 0
  1031                           
  1032                           ; 1 bytes @ 0x24
  1033   000025                     	ds	1
  1034   000026                     gpio_pin_output_low_init@ret:
  1035                           	callstack 0
  1036                           
  1037                           ; 1 bytes @ 0x25
  1038   000026                     	ds	1
  1039   000027                     ?___flmul:
  1040                           	callstack 0
  1041   000027                     dc_motor_init@dc_motor:
  1042                           	callstack 0
  1043   000027                     led_init@led:
  1044                           	callstack 0
  1045   000027                     seven_segment_init@seg:
  1046                           	callstack 0
  1047   000027                     ___flmul@b:
  1048                           	callstack 0
  1049                           
  1050                           ; 4 bytes @ 0x26
  1051   000027                     	ds	1
  1052   000028                     ??_dc_motor_init:
  1053   000028                     led_init@gpio_ret:
  1054                           	callstack 0
  1055                           
  1056                           ; 1 bytes @ 0x27
  1057   000028                     	ds	1
  1058   000029                     seven_segment_init@gpio_ret:
  1059                           	callstack 0
  1060   000029                     dc_motor_init@gpio_ret:
  1061                           	callstack 0
  1062                           
  1063                           ; 1 bytes @ 0x28
  1064   000029                     	ds	2
  1065   00002B                     ___flmul@a:
  1066                           	callstack 0
  1067                           
  1068                           ; 4 bytes @ 0x2A
  1069   00002B                     	ds	4
  1070   00002F                     ??___flmul:
  1071                           
  1072                           ; 1 bytes @ 0x2E
  1073   00002F                     	ds	4
  1074   000033                     ___flmul@sign:
  1075                           	callstack 0
  1076                           
  1077                           ; 1 bytes @ 0x32
  1078   000033                     	ds	1
  1079   000034                     ___flmul@aexp:
  1080                           	callstack 0
  1081                           
  1082                           ; 1 bytes @ 0x33
  1083   000034                     	ds	1
  1084   000035                     ___flmul@grs:
  1085                           	callstack 0
  1086                           
  1087                           ; 4 bytes @ 0x34
  1088   000035                     	ds	4
  1089   000039                     ___flmul@bexp:
  1090                           	callstack 0
  1091                           
  1092                           ; 1 bytes @ 0x38
  1093   000039                     	ds	1
  1094   00003A                     ___flmul@prod:
  1095                           	callstack 0
  1096                           
  1097                           ; 4 bytes @ 0x39
  1098   00003A                     	ds	4
  1099   00003E                     ___flmul@temp:
  1100                           	callstack 0
  1101                           
  1102                           ; 2 bytes @ 0x3D
  1103   00003E                     	ds	2
  1104   000040                     ?___fldiv:
  1105                           	callstack 0
  1106   000040                     ___fldiv@b:
  1107                           	callstack 0
  1108                           
  1109                           ; 4 bytes @ 0x3F
  1110   000040                     	ds	4
  1111   000044                     ___fldiv@a:
  1112                           	callstack 0
  1113                           
  1114                           ; 4 bytes @ 0x43
  1115   000044                     	ds	4
  1116   000048                     ??___fldiv:
  1117                           
  1118                           ; 1 bytes @ 0x47
  1119   000048                     	ds	4
  1120   00004C                     ??___fladd:
  1121                           
  1122                           ; 1 bytes @ 0x4B
  1123   00004C                     	ds	4
  1124   000050                     
  1125                           ; 1 bytes @ 0x4F
  1126 ;;
  1127 ;;Main: autosize = 0, tempsize = 0, incstack = 0, save=0
  1128 ;;
  1129 ;; *************** function _main *****************
  1130 ;; Defined at:
  1131 ;;		line 23 in file "app.c"
  1132 ;; Parameters:    Size  Location     Type
  1133 ;;		None
  1134 ;; Auto vars:     Size  Location     Type
  1135 ;;		None
  1136 ;; Return value:  Size  Location     Type
  1137 ;;                  1    wreg      void 
  1138 ;; Registers used:
  1139 ;;		wreg, fsr1l, fsr1h, fsr2l, fsr2h, status,2, status,0, prodl, prodh, cstack
  1140 ;; Tracked objects:
  1141 ;;		On entry : 0/0
  1142 ;;		On exit  : 0/0
  1143 ;;		Unchanged: 0/0
  1144 ;; Data sizes:     COMRAM   BANK0   BANK1   BANK2   BANK3   BANK4   BANK5   BANK6   BANK7   BANK8   BANK9  BANK10  BANK1
      +1  BANK12  BANK13  BANK14  BANK15
  1145 ;;      Params:         0       0       0       0       0       0       0       0       0       0       0       0       
      +0       0       0       0       0
  1146 ;;      Locals:         0       0       1       0       0       0       0       0       0       0       0       0       
      +0       0       0       0       0
  1147 ;;      Temps:          0       0       0       0       0       0       0       0       0       0       0       0       
      +0       0       0       0       0
  1148 ;;      Totals:         0       0       1       0       0       0       0       0       0       0       0       0       
      +0       0       0       0       0
  1149 ;;Total ram usage:        1 bytes
  1150 ;; Hardware stack levels required when called: 11
  1151 ;; This function calls:
  1152 ;;		_CCP_PWM_Set_Duty
  1153 ;;		_CCP_PWM_Start
  1154 ;;		_I2C_Open
  1155 ;;		_I2C_SlaveSetReadIntHandler
  1156 ;;		_Initialize
  1157 ;;		___flmul
  1158 ;;		___fltol
  1159 ;;		___xxtofl
  1160 ;;		_dc_motor_move_right
  1161 ;;		_dc_motor_stop
  1162 ;;		_led_off
  1163 ;;		_led_on
  1164 ;; This function is called by:
  1165 ;;		Startup code after reset
  1166 ;; This function uses a non-reentrant model
  1167 ;;
  1168                           
  1169                           	psect	text0
  1170   002CEA                     __ptext0:
  1171                           	callstack 0
  1172   002CEA                     _main:
  1173                           	callstack 20
  1174   002CEA                     
  1175                           ;app.c: 27:     (INTCONbits.GIE=1);
  1176   002CEA  8EF2               	bsf	242,7,c	;volatile
  1177                           
  1178                           ;app.c: 29:     (INTCONbits.PEIE=1);
  1179   002CEC  8CF2               	bsf	242,6,c	;volatile
  1180   002CEE                     
  1181                           ;app.c: 31:     Initialize();
  1182   002CEE  ECFC  F019         	call	_Initialize	;wreg free
  1183   002CF2                     
  1184                           ;app.c: 32:     I2C_Open();
  1185   002CF2  EC2B  F01A         	call	_I2C_Open	;wreg free
  1186   002CF6                     
  1187                           ;app.c: 33:     I2C_SlaveSetReadIntHandler(MY_I2C_slave_ISR);
  1188   002CF6  0E4E               	movlw	low _MY_I2C_slave_ISR
  1189   002CF8  6E19               	movwf	I2C_SlaveSetReadIntHandler@handler^0,c
  1190   002CFA  0E38               	movlw	high _MY_I2C_slave_ISR
  1191   002CFC  6E1A               	movwf	(I2C_SlaveSetReadIntHandler@handler+1)^0,c
  1192   002CFE  ECEF  F01C         	call	_I2C_SlaveSetReadIntHandler	;wreg free
  1193   002D02                     l10959:
  1194                           
  1195                           ;app.c: 36:     {;app.c: 37:         if(var_slave>=30){
  1196   002D02  0E1D               	movlw	29
  1197   002D04  645C               	cpfsgt	_var_slave^0,c	;volatile
  1198   002D06  EF87  F016         	goto	u11381
  1199   002D0A  EF89  F016         	goto	u11380
  1200   002D0E                     u11381:
  1201   002D0E  EFCC  F016         	goto	l10971
  1202   002D12                     u11380:
  1203   002D12                     
  1204                           ;app.c: 38:             dc_motor_move_right(&motor1);
  1205   002D12  0EE0               	movlw	low _motor1
  1206   002D14  6E22               	movwf	dc_motor_move_right@dc_motor^0,c
  1207   002D16  EC88  F01A         	call	_dc_motor_move_right	;wreg free
  1208                           
  1209                           ;app.c: 39:             dc_motor_stop(&motor2);
  1210   002D1A  0EDD               	movlw	low _motor2
  1211   002D1C  6E22               	movwf	dc_motor_stop@dc_motor^0,c
  1212   002D1E  ECB0  F01A         	call	_dc_motor_stop	;wreg free
  1213   002D22                     
  1214                           ;app.c: 40:             led_on(&led_blue);
  1215   002D22  0EE3               	movlw	low _led_blue
  1216   002D24  6E22               	movwf	led_on@led^0,c
  1217   002D26  ECD7  F01A         	call	_led_on	;wreg free
  1218   002D2A                     
  1219                           ;app.c: 41:             CCP_PWM_Set_Duty(&ccp1,var_slave*2.5);
  1220   002D2A  0E00               	movlw	0
  1221   002D2C  6E2B               	movwf	___flmul@a^0,c
  1222   002D2E  0E00               	movlw	0
  1223   002D30  6E2C               	movwf	(___flmul@a+1)^0,c
  1224   002D32  0E20               	movlw	32
  1225   002D34  6E2D               	movwf	(___flmul@a+2)^0,c
  1226   002D36  0E40               	movlw	64
  1227   002D38  6E2E               	movwf	(___flmul@a+3)^0,c
  1228   002D3A  505C               	movf	_var_slave^0,w,c	;volatile
  1229   002D3C  6E19               	movwf	___xxtofl@val^0,c
  1230   002D3E  6A1A               	clrf	(___xxtofl@val+1)^0,c
  1231   002D40  6A1B               	clrf	(___xxtofl@val+2)^0,c
  1232   002D42  6A1C               	clrf	(___xxtofl@val+3)^0,c
  1233   002D44  0E01               	movlw	1
  1234   002D46  EC05  F011         	call	___xxtofl
  1235   002D4A  C019  F027         	movff	?___xxtofl,___flmul@b
  1236   002D4E  C01A  F028         	movff	?___xxtofl+1,___flmul@b+1
  1237   002D52  C01B  F029         	movff	?___xxtofl+2,___flmul@b+2
  1238   002D56  C01C  F02A         	movff	?___xxtofl+3,___flmul@b+3
  1239   002D5A  EC64  F00A         	call	___flmul	;wreg free
  1240   002D5E  C027  F12E         	movff	?___flmul,___fltol@f1
  1241   002D62  C028  F12F         	movff	?___flmul+1,___fltol@f1+1
  1242   002D66  C029  F130         	movff	?___flmul+2,___fltol@f1+2
  1243   002D6A  C02A  F131         	movff	?___flmul+3,___fltol@f1+3
  1244   002D6E  EC08  F017         	call	___fltol	;wreg free
  1245   002D72  0101               	movlb	1	; () banked
  1246   002D74  512E               	movf	?___fltol& (0+255),w,b
  1247   002D76  6F47               	movwf	_main$5878& (0+255),b
  1248   002D78                     
  1249                           ; BSR set to: 1
  1250                           ;app.c: 41:             CCP_PWM_Set_Duty(&ccp1,var_slave*2.5);
  1251   002D78  0E1A               	movlw	low _ccp1
  1252   002D7A  6F38               	movwf	CCP_PWM_Set_Duty@_ccp_obj& (0+255),b
  1253   002D7C  0E01               	movlw	high _ccp1
  1254   002D7E  6F39               	movwf	(CCP_PWM_Set_Duty@_ccp_obj+1)& (0+255),b
  1255   002D80  C147  F13A         	movff	_main$5878,CCP_PWM_Set_Duty@_duty
  1256   002D84  ECDF  F011         	call	_CCP_PWM_Set_Duty	;wreg free
  1257   002D88                     
  1258                           ;app.c: 42:             CCP_PWM_Start(&ccp1);
  1259   002D88  0E1A               	movlw	low _ccp1
  1260   002D8A  6E19               	movwf	CCP_PWM_Start@_ccp_obj^0,c
  1261   002D8C  0E01               	movlw	high _ccp1
  1262   002D8E  6E1A               	movwf	(CCP_PWM_Start@_ccp_obj+1)^0,c
  1263   002D90  EC5A  F01A         	call	_CCP_PWM_Start	;wreg free
  1264                           
  1265                           ;app.c: 43:         }
  1266   002D94  EF81  F016         	goto	l10959
  1267   002D98                     l10971:
  1268   002D98  0E1E               	movlw	30
  1269   002D9A  605C               	cpfslt	_var_slave^0,c	;volatile
  1270   002D9C  EFD2  F016         	goto	u11391
  1271   002DA0  EFD4  F016         	goto	u11390
  1272   002DA4                     u11391:
  1273   002DA4  EFEE  F016         	goto	l10981
  1274   002DA8                     u11390:
  1275   002DA8  0E19               	movlw	25
  1276   002DAA  645C               	cpfsgt	_var_slave^0,c	;volatile
  1277   002DAC  EFDA  F016         	goto	u11401
  1278   002DB0  EFDC  F016         	goto	u11400
  1279   002DB4                     u11401:
  1280   002DB4  EFEE  F016         	goto	l10981
  1281   002DB8                     u11400:
  1282   002DB8                     
  1283                           ;app.c: 45:             dc_motor_stop(&motor1);
  1284   002DB8  0EE0               	movlw	low _motor1
  1285   002DBA  6E22               	movwf	dc_motor_stop@dc_motor^0,c
  1286   002DBC  ECB0  F01A         	call	_dc_motor_stop	;wreg free
  1287                           
  1288                           ;app.c: 46:             dc_motor_stop(&motor2);
  1289   002DC0  0EDD               	movlw	low _motor2
  1290   002DC2  6E22               	movwf	dc_motor_stop@dc_motor^0,c
  1291   002DC4  ECB0  F01A         	call	_dc_motor_stop	;wreg free
  1292   002DC8                     
  1293                           ;app.c: 47:             led_off(&led_blue);
  1294   002DC8  0EE3               	movlw	low _led_blue
  1295   002DCA  6E22               	movwf	led_off@led^0,c
  1296   002DCC  ECFD  F01A         	call	_led_off	;wreg free
  1297   002DD0                     
  1298                           ;app.c: 48:             led_off(&led_red);
  1299   002DD0  0EE5               	movlw	low _led_red
  1300   002DD2  6E22               	movwf	led_off@led^0,c
  1301   002DD4  ECFD  F01A         	call	_led_off	;wreg free
  1302                           
  1303                           ;app.c: 50:         }
  1304   002DD8  EF81  F016         	goto	l10959
  1305   002DDC                     l10981:
  1306   002DDC  0E1A               	movlw	26
  1307   002DDE  605C               	cpfslt	_var_slave^0,c	;volatile
  1308   002DE0  EFF4  F016         	goto	u11411
  1309   002DE4  EFF6  F016         	goto	u11410
  1310   002DE8                     u11411:
  1311   002DE8  EF04  F017         	goto	l1917
  1312   002DEC                     u11410:
  1313   002DEC                     
  1314                           ;app.c: 52:             dc_motor_move_right(&motor2);
  1315   002DEC  0EDD               	movlw	low _motor2
  1316   002DEE  6E22               	movwf	dc_motor_move_right@dc_motor^0,c
  1317   002DF0  EC88  F01A         	call	_dc_motor_move_right	;wreg free
  1318                           
  1319                           ;app.c: 53:             dc_motor_stop(&motor1);
  1320   002DF4  0EE0               	movlw	low _motor1
  1321   002DF6  6E22               	movwf	dc_motor_stop@dc_motor^0,c
  1322   002DF8  ECB0  F01A         	call	_dc_motor_stop	;wreg free
  1323   002DFC                     
  1324                           ;app.c: 54:             led_on(&led_red);
  1325   002DFC  0EE5               	movlw	low _led_red
  1326   002DFE  6E22               	movwf	led_on@led^0,c
  1327   002E00  ECD7  F01A         	call	_led_on	;wreg free
  1328   002E04  EF81  F016         	goto	l10959
  1329   002E08                     l1917:
  1330   002E08  EF81  F016         	goto	l10959
  1331   002E0C  EF07  F000         	goto	start
  1332   002E10                     __end_of_main:
  1333                           	callstack 0
  1334                           
  1335 ;; *************** function _led_on *****************
  1336 ;; Defined at:
  1337 ;;		line 41 in file "ECUAL/LED/led.c"
  1338 ;; Parameters:    Size  Location     Type
  1339 ;;  led             1   33[COMRAM] PTR struct .
  1340 ;;		 -> led_blue(2), led_red(2), 
  1341 ;; Auto vars:     Size  Location     Type
  1342 ;;  ret             1    0        unsigned char 
  1343 ;;  gpio_ret        1   34[COMRAM] unsigned char 
  1344 ;; Return value:  Size  Location     Type
  1345 ;;                  1    wreg      unsigned char 
  1346 ;; Registers used:
  1347 ;;		wreg, fsr1l, fsr1h, fsr2l, fsr2h, status,2, status,0, prodl, prodh, cstack
  1348 ;; Tracked objects:
  1349 ;;		On entry : 0/0
  1350 ;;		On exit  : 0/0
  1351 ;;		Unchanged: 0/0
  1352 ;; Data sizes:     COMRAM   BANK0   BANK1   BANK2   BANK3   BANK4   BANK5   BANK6   BANK7   BANK8   BANK9  BANK10  BANK1
      +1  BANK12  BANK13  BANK14  BANK15
  1353 ;;      Params:         1       0       0       0       0       0       0       0       0       0       0       0       
      +0       0       0       0       0
  1354 ;;      Locals:         1       0       0       0       0       0       0       0       0       0       0       0       
      +0       0       0       0       0
  1355 ;;      Temps:          0       0       0       0       0       0       0       0       0       0       0       0       
      +0       0       0       0       0
  1356 ;;      Totals:         2       0       0       0       0       0       0       0       0       0       0       0       
      +0       0       0       0       0
  1357 ;;Total ram usage:        2 bytes
  1358 ;; Hardware stack levels used: 1
  1359 ;; Hardware stack levels required when called: 8
  1360 ;; This function calls:
  1361 ;;		_gpio_pin_logic_write
  1362 ;; This function is called by:
  1363 ;;		_main
  1364 ;; This function uses a non-reentrant model
  1365 ;;
  1366                           
  1367                           	psect	text1
  1368   0035AE                     __ptext1:
  1369                           	callstack 0
  1370   0035AE                     _led_on:
  1371                           	callstack 22
  1372   0035AE                     
  1373                           ;ECUAL/LED/led.c: 44:     Std_ReturnType gpio_ret=(Std_ReturnType)0x00;
  1374   0035AE  0E00               	movlw	0
  1375   0035B0  6E23               	movwf	led_on@gpio_ret^0,c
  1376                           
  1377                           ;ECUAL/LED/led.c: 45:     if(((void*)0)==led){
  1378   0035B2  5022               	movf	led_on@led^0,w,c
  1379   0035B4  A4D8               	btfss	status,2,c
  1380   0035B6  EFDF  F01A         	goto	u10271
  1381   0035BA  EFE1  F01A         	goto	u10270
  1382   0035BE                     u10271:
  1383   0035BE  EFE3  F01A         	goto	l10231
  1384   0035C2                     u10270:
  1385   0035C2                     
  1386                           ;ECUAL/LED/led.c: 47:     }
  1387   0035C2  EFFC  F01A         	goto	l257
  1388   0035C6                     l10231:
  1389   0035C6  C022  F019         	movff	led_on@led,gpio_pin_logic_write@pin
  1390   0035CA  6A1A               	clrf	(gpio_pin_logic_write@pin+1)^0,c
  1391   0035CC  0E01               	movlw	1
  1392   0035CE  6E1B               	movwf	gpio_pin_logic_write@pin_logic^0,c
  1393   0035D0  EC5C  F013         	call	_gpio_pin_logic_write	;wreg free
  1394   0035D4                     
  1395                           ;ECUAL/LED/led.c: 50:         led->led_state=led->led_pin.logic;
  1396   0035D4  5022               	movf	led_on@led^0,w,c
  1397   0035D6  6ED9               	movwf	fsr2l,c
  1398   0035D8  6ADA               	clrf	fsr2h,c
  1399   0035DA  0E01               	movlw	1
  1400   0035DC  26D9               	addwf	fsr2l,f,c
  1401   0035DE  5022               	movf	led_on@led^0,w,c
  1402   0035E0  6EE1               	movwf	fsr1l,c
  1403   0035E2  6AE2               	clrf	fsr1h,c
  1404   0035E4  BEE7               	btfsc	indf1,7,c
  1405   0035E6  EFF7  F01A         	goto	u10281
  1406   0035EA  EFFA  F01A         	goto	u10280
  1407   0035EE                     u10281:
  1408   0035EE  0E01               	movlw	1
  1409   0035F0  EFFB  F01A         	goto	u10286
  1410   0035F4                     u10280:
  1411   0035F4  0E00               	movlw	0
  1412   0035F6                     u10286:
  1413   0035F6  6EDF               	movwf	indf2,c
  1414   0035F8                     l257:
  1415   0035F8  0012               	return		;funcret
  1416   0035FA                     __end_of_led_on:
  1417                           	callstack 0
  1418                           
  1419 ;; *************** function _led_off *****************
  1420 ;; Defined at:
  1421 ;;		line 65 in file "ECUAL/LED/led.c"
  1422 ;; Parameters:    Size  Location     Type
  1423 ;;  led             1   33[COMRAM] PTR struct .
  1424 ;;		 -> led_blue(2), led_red(2), 
  1425 ;; Auto vars:     Size  Location     Type
  1426 ;;  ret             1    0        unsigned char 
  1427 ;;  gpio_ret        1   34[COMRAM] unsigned char 
  1428 ;; Return value:  Size  Location     Type
  1429 ;;                  1    wreg      unsigned char 
  1430 ;; Registers used:
  1431 ;;		wreg, fsr1l, fsr1h, fsr2l, fsr2h, status,2, status,0, prodl, prodh, cstack
  1432 ;; Tracked objects:
  1433 ;;		On entry : 0/0
  1434 ;;		On exit  : 0/0
  1435 ;;		Unchanged: 0/0
  1436 ;; Data sizes:     COMRAM   BANK0   BANK1   BANK2   BANK3   BANK4   BANK5   BANK6   BANK7   BANK8   BANK9  BANK10  BANK1
      +1  BANK12  BANK13  BANK14  BANK15
  1437 ;;      Params:         1       0       0       0       0       0       0       0       0       0       0       0       
      +0       0       0       0       0
  1438 ;;      Locals:         1       0       0       0       0       0       0       0       0       0       0       0       
      +0       0       0       0       0
  1439 ;;      Temps:          0       0       0       0       0       0       0       0       0       0       0       0       
      +0       0       0       0       0
  1440 ;;      Totals:         2       0       0       0       0       0       0       0       0       0       0       0       
      +0       0       0       0       0
  1441 ;;Total ram usage:        2 bytes
  1442 ;; Hardware stack levels used: 1
  1443 ;; Hardware stack levels required when called: 8
  1444 ;; This function calls:
  1445 ;;		_gpio_pin_logic_write
  1446 ;; This function is called by:
  1447 ;;		_main
  1448 ;; This function uses a non-reentrant model
  1449 ;;
  1450                           
  1451                           	psect	text2
  1452   0035FA                     __ptext2:
  1453                           	callstack 0
  1454   0035FA                     _led_off:
  1455                           	callstack 22
  1456   0035FA                     
  1457                           ;ECUAL/LED/led.c: 68:     Std_ReturnType gpio_ret=(Std_ReturnType)0x00;
  1458   0035FA  0E00               	movlw	0
  1459   0035FC  6E23               	movwf	led_off@gpio_ret^0,c
  1460                           
  1461                           ;ECUAL/LED/led.c: 69:     if(((void*)0)==led){
  1462   0035FE  5022               	movf	led_off@led^0,w,c
  1463   003600  A4D8               	btfss	status,2,c
  1464   003602  EF05  F01B         	goto	u10291
  1465   003606  EF07  F01B         	goto	u10290
  1466   00360A                     u10291:
  1467   00360A  EF09  F01B         	goto	l10243
  1468   00360E                     u10290:
  1469   00360E                     
  1470                           ;ECUAL/LED/led.c: 71:     }
  1471   00360E  EF22  F01B         	goto	l262
  1472   003612                     l10243:
  1473   003612  C022  F019         	movff	led_off@led,gpio_pin_logic_write@pin
  1474   003616  6A1A               	clrf	(gpio_pin_logic_write@pin+1)^0,c
  1475   003618  0E00               	movlw	0
  1476   00361A  6E1B               	movwf	gpio_pin_logic_write@pin_logic^0,c
  1477   00361C  EC5C  F013         	call	_gpio_pin_logic_write	;wreg free
  1478   003620                     
  1479                           ;ECUAL/LED/led.c: 74:         led->led_state=led->led_pin.logic;
  1480   003620  5022               	movf	led_off@led^0,w,c
  1481   003622  6ED9               	movwf	fsr2l,c
  1482   003624  6ADA               	clrf	fsr2h,c
  1483   003626  0E01               	movlw	1
  1484   003628  26D9               	addwf	fsr2l,f,c
  1485   00362A  5022               	movf	led_off@led^0,w,c
  1486   00362C  6EE1               	movwf	fsr1l,c
  1487   00362E  6AE2               	clrf	fsr1h,c
  1488   003630  BEE7               	btfsc	indf1,7,c
  1489   003632  EF1D  F01B         	goto	u10301
  1490   003636  EF20  F01B         	goto	u10300
  1491   00363A                     u10301:
  1492   00363A  0E01               	movlw	1
  1493   00363C  EF21  F01B         	goto	u10306
  1494   003640                     u10300:
  1495   003640  0E00               	movlw	0
  1496   003642                     u10306:
  1497   003642  6EDF               	movwf	indf2,c
  1498   003644                     l262:
  1499   003644  0012               	return		;funcret
  1500   003646                     __end_of_led_off:
  1501                           	callstack 0
  1502                           
  1503 ;; *************** function _dc_motor_stop *****************
  1504 ;; Defined at:
  1505 ;;		line 91 in file "ECUAL/DC_MOTOR/dc_motor.c"
  1506 ;; Parameters:    Size  Location     Type
  1507 ;;  dc_motor        1   33[COMRAM] PTR struct .
  1508 ;;		 -> motor2(3), motor1(3), 
  1509 ;; Auto vars:     Size  Location     Type
  1510 ;;  ret             1    0        unsigned char 
  1511 ;;  gpio_ret        1   35[COMRAM] unsigned char 
  1512 ;; Return value:  Size  Location     Type
  1513 ;;                  1    wreg      unsigned char 
  1514 ;; Registers used:
  1515 ;;		wreg, fsr2l, fsr2h, status,2, status,0, prodl, prodh, cstack
  1516 ;; Tracked objects:
  1517 ;;		On entry : 0/0
  1518 ;;		On exit  : 0/0
  1519 ;;		Unchanged: 0/0
  1520 ;; Data sizes:     COMRAM   BANK0   BANK1   BANK2   BANK3   BANK4   BANK5   BANK6   BANK7   BANK8   BANK9  BANK10  BANK1
      +1  BANK12  BANK13  BANK14  BANK15
  1521 ;;      Params:         1       0       0       0       0       0       0       0       0       0       0       0       
      +0       0       0       0       0
  1522 ;;      Locals:         1       0       0       0       0       0       0       0       0       0       0       0       
      +0       0       0       0       0
  1523 ;;      Temps:          1       0       0       0       0       0       0       0       0       0       0       0       
      +0       0       0       0       0
  1524 ;;      Totals:         3       0       0       0       0       0       0       0       0       0       0       0       
      +0       0       0       0       0
  1525 ;;Total ram usage:        3 bytes
  1526 ;; Hardware stack levels used: 1
  1527 ;; Hardware stack levels required when called: 8
  1528 ;; This function calls:
  1529 ;;		_gpio_pin_logic_write
  1530 ;; This function is called by:
  1531 ;;		_main
  1532 ;; This function uses a non-reentrant model
  1533 ;;
  1534                           
  1535                           	psect	text3
  1536   003560                     __ptext3:
  1537                           	callstack 0
  1538   003560                     _dc_motor_stop:
  1539                           	callstack 22
  1540   003560                     
  1541                           ;ECUAL/DC_MOTOR/dc_motor.c: 94:     Std_ReturnType gpio_ret=(Std_ReturnType)0x00;
  1542   003560  0E00               	movlw	0
  1543   003562  6E24               	movwf	dc_motor_stop@gpio_ret^0,c
  1544                           
  1545                           ;ECUAL/DC_MOTOR/dc_motor.c: 95:     if(((void*)0)==dc_motor){
  1546   003564  5022               	movf	dc_motor_stop@dc_motor^0,w,c
  1547   003566  A4D8               	btfss	status,2,c
  1548   003568  EFB8  F01A         	goto	u10181
  1549   00356C  EFBA  F01A         	goto	u10180
  1550   003570                     u10181:
  1551   003570  EFBC  F01A         	goto	l10169
  1552   003574                     u10180:
  1553   003574                     
  1554                           ;ECUAL/DC_MOTOR/dc_motor.c: 97:     }
  1555   003574  EFD6  F01A         	goto	l71
  1556   003578                     l10169:
  1557                           
  1558                           ;ECUAL/DC_MOTOR/dc_motor.c: 99:         gpio_ret =gpio_pin_logic_write(&(dc_motor->dc_mo
      +                          tor_pin0),LOW);
  1559   003578  C022  F019         	movff	dc_motor_stop@dc_motor,gpio_pin_logic_write@pin
  1560   00357C  6A1A               	clrf	(gpio_pin_logic_write@pin+1)^0,c
  1561   00357E  0E00               	movlw	0
  1562   003580  6E1B               	movwf	gpio_pin_logic_write@pin_logic^0,c
  1563   003582  EC5C  F013         	call	_gpio_pin_logic_write	;wreg free
  1564   003586  6E24               	movwf	dc_motor_stop@gpio_ret^0,c
  1565                           
  1566                           ;ECUAL/DC_MOTOR/dc_motor.c: 100:         gpio_ret =gpio_pin_logic_write(&(dc_motor->dc_m
      +                          otor_pin1),LOW);
  1567   003588  C022  F023         	movff	dc_motor_stop@dc_motor,??_dc_motor_stop
  1568   00358C  0E01               	movlw	1
  1569   00358E  2623               	addwf	??_dc_motor_stop^0,f,c
  1570   003590  C023  F019         	movff	??_dc_motor_stop,gpio_pin_logic_write@pin
  1571   003594  6A1A               	clrf	(gpio_pin_logic_write@pin+1)^0,c
  1572   003596  0E00               	movlw	0
  1573   003598  6E1B               	movwf	gpio_pin_logic_write@pin_logic^0,c
  1574   00359A  EC5C  F013         	call	_gpio_pin_logic_write	;wreg free
  1575   00359E  6E24               	movwf	dc_motor_stop@gpio_ret^0,c
  1576   0035A0                     
  1577                           ;ECUAL/DC_MOTOR/dc_motor.c: 101:         dc_motor->dc_motor_state=DC_MOTOR_OFF;
  1578   0035A0  5022               	movf	dc_motor_stop@dc_motor^0,w,c
  1579   0035A2  6ED9               	movwf	fsr2l,c
  1580   0035A4  6ADA               	clrf	fsr2h,c
  1581   0035A6  0E02               	movlw	2
  1582   0035A8  26D9               	addwf	fsr2l,f,c
  1583   0035AA  6ADF               	clrf	indf2,c
  1584   0035AC                     l71:
  1585   0035AC  0012               	return		;funcret
  1586   0035AE                     __end_of_dc_motor_stop:
  1587                           	callstack 0
  1588                           
  1589 ;; *************** function _dc_motor_move_right *****************
  1590 ;; Defined at:
  1591 ;;		line 41 in file "ECUAL/DC_MOTOR/dc_motor.c"
  1592 ;; Parameters:    Size  Location     Type
  1593 ;;  dc_motor        1   33[COMRAM] PTR struct .
  1594 ;;		 -> motor2(3), motor1(3), 
  1595 ;; Auto vars:     Size  Location     Type
  1596 ;;  ret             1    0        unsigned char 
  1597 ;;  gpio_ret        1   35[COMRAM] unsigned char 
  1598 ;; Return value:  Size  Location     Type
  1599 ;;                  1    wreg      unsigned char 
  1600 ;; Registers used:
  1601 ;;		wreg, fsr2l, fsr2h, status,2, status,0, prodl, prodh, cstack
  1602 ;; Tracked objects:
  1603 ;;		On entry : 0/0
  1604 ;;		On exit  : 0/0
  1605 ;;		Unchanged: 0/0
  1606 ;; Data sizes:     COMRAM   BANK0   BANK1   BANK2   BANK3   BANK4   BANK5   BANK6   BANK7   BANK8   BANK9  BANK10  BANK1
      +1  BANK12  BANK13  BANK14  BANK15
  1607 ;;      Params:         1       0       0       0       0       0       0       0       0       0       0       0       
      +0       0       0       0       0
  1608 ;;      Locals:         1       0       0       0       0       0       0       0       0       0       0       0       
      +0       0       0       0       0
  1609 ;;      Temps:          1       0       0       0       0       0       0       0       0       0       0       0       
      +0       0       0       0       0
  1610 ;;      Totals:         3       0       0       0       0       0       0       0       0       0       0       0       
      +0       0       0       0       0
  1611 ;;Total ram usage:        3 bytes
  1612 ;; Hardware stack levels used: 1
  1613 ;; Hardware stack levels required when called: 8
  1614 ;; This function calls:
  1615 ;;		_gpio_pin_logic_write
  1616 ;; This function is called by:
  1617 ;;		_main
  1618 ;; This function uses a non-reentrant model
  1619 ;;
  1620                           
  1621                           	psect	text4
  1622   003510                     __ptext4:
  1623                           	callstack 0
  1624   003510                     _dc_motor_move_right:
  1625                           	callstack 22
  1626   003510                     
  1627                           ;ECUAL/DC_MOTOR/dc_motor.c: 44:     Std_ReturnType gpio_ret=(Std_ReturnType)0x00;
  1628   003510  0E00               	movlw	0
  1629   003512  6E24               	movwf	dc_motor_move_right@gpio_ret^0,c
  1630                           
  1631                           ;ECUAL/DC_MOTOR/dc_motor.c: 45:     if(((void*)0)==dc_motor){
  1632   003514  5022               	movf	dc_motor_move_right@dc_motor^0,w,c
  1633   003516  A4D8               	btfss	status,2,c
  1634   003518  EF90  F01A         	goto	u10171
  1635   00351C  EF92  F01A         	goto	u10170
  1636   003520                     u10171:
  1637   003520  EF94  F01A         	goto	l10157
  1638   003524                     u10170:
  1639   003524                     
  1640                           ;ECUAL/DC_MOTOR/dc_motor.c: 47:     }
  1641   003524  EFAF  F01A         	goto	l61
  1642   003528                     l10157:
  1643                           
  1644                           ;ECUAL/DC_MOTOR/dc_motor.c: 49:         gpio_ret =gpio_pin_logic_write(&(dc_motor->dc_mo
      +                          tor_pin0),HIGH);
  1645   003528  C022  F019         	movff	dc_motor_move_right@dc_motor,gpio_pin_logic_write@pin
  1646   00352C  6A1A               	clrf	(gpio_pin_logic_write@pin+1)^0,c
  1647   00352E  0E01               	movlw	1
  1648   003530  6E1B               	movwf	gpio_pin_logic_write@pin_logic^0,c
  1649   003532  EC5C  F013         	call	_gpio_pin_logic_write	;wreg free
  1650   003536  6E24               	movwf	dc_motor_move_right@gpio_ret^0,c
  1651                           
  1652                           ;ECUAL/DC_MOTOR/dc_motor.c: 50:         gpio_ret =gpio_pin_logic_write(&(dc_motor->dc_mo
      +                          tor_pin1),LOW);
  1653   003538  C022  F023         	movff	dc_motor_move_right@dc_motor,??_dc_motor_move_right
  1654   00353C  0E01               	movlw	1
  1655   00353E  2623               	addwf	??_dc_motor_move_right^0,f,c
  1656   003540  C023  F019         	movff	??_dc_motor_move_right,gpio_pin_logic_write@pin
  1657   003544  6A1A               	clrf	(gpio_pin_logic_write@pin+1)^0,c
  1658   003546  0E00               	movlw	0
  1659   003548  6E1B               	movwf	gpio_pin_logic_write@pin_logic^0,c
  1660   00354A  EC5C  F013         	call	_gpio_pin_logic_write	;wreg free
  1661   00354E  6E24               	movwf	dc_motor_move_right@gpio_ret^0,c
  1662   003550                     
  1663                           ;ECUAL/DC_MOTOR/dc_motor.c: 51:         dc_motor->dc_motor_state=DC_MOTOR_ON;
  1664   003550  5022               	movf	dc_motor_move_right@dc_motor^0,w,c
  1665   003552  6ED9               	movwf	fsr2l,c
  1666   003554  6ADA               	clrf	fsr2h,c
  1667   003556  0E02               	movlw	2
  1668   003558  26D9               	addwf	fsr2l,f,c
  1669   00355A  0E01               	movlw	1
  1670   00355C  6EDF               	movwf	indf2,c
  1671   00355E                     l61:
  1672   00355E  0012               	return		;funcret
  1673   003560                     __end_of_dc_motor_move_right:
  1674                           	callstack 0
  1675                           
  1676 ;; *************** function _Initialize *****************
  1677 ;; Defined at:
  1678 ;;		line 46 in file "mcc_generated_files/init.c"
  1679 ;; Parameters:    Size  Location     Type
  1680 ;;		None
  1681 ;; Auto vars:     Size  Location     Type
  1682 ;;		None
  1683 ;; Return value:  Size  Location     Type
  1684 ;;                  1    wreg      void 
  1685 ;; Registers used:
  1686 ;;		wreg, fsr1l, fsr1h, fsr2l, fsr2h, status,2, status,0, prodl, prodh, cstack
  1687 ;; Tracked objects:
  1688 ;;		On entry : 0/0
  1689 ;;		On exit  : 0/0
  1690 ;;		Unchanged: 0/0
  1691 ;; Data sizes:     COMRAM   BANK0   BANK1   BANK2   BANK3   BANK4   BANK5   BANK6   BANK7   BANK8   BANK9  BANK10  BANK1
      +1  BANK12  BANK13  BANK14  BANK15
  1692 ;;      Params:         0       0       0       0       0       0       0       0       0       0       0       0       
      +0       0       0       0       0
  1693 ;;      Locals:         0       0       0       0       0       0       0       0       0       0       0       0       
      +0       0       0       0       0
  1694 ;;      Temps:          0       0       0       0       0       0       0       0       0       0       0       0       
      +0       0       0       0       0
  1695 ;;      Totals:         0       0       0       0       0       0       0       0       0       0       0       0       
      +0       0       0       0       0
  1696 ;;Total ram usage:        0 bytes
  1697 ;; Hardware stack levels used: 1
  1698 ;; Hardware stack levels required when called: 10
  1699 ;; This function calls:
  1700 ;;		_CCP_Init
  1701 ;;		_I2C_Initialize
  1702 ;;		_INTERRUPT_Initialize
  1703 ;;		_PIN_MANAGER_Initialize
  1704 ;;		_Timer2_Init
  1705 ;;		_dc_motor_init
  1706 ;;		_led_init
  1707 ;;		_seven_segment_init
  1708 ;; This function is called by:
  1709 ;;		_main
  1710 ;; This function uses a non-reentrant model
  1711 ;;
  1712                           
  1713                           	psect	text5
  1714   0033F8                     __ptext5:
  1715                           	callstack 0
  1716   0033F8                     _Initialize:
  1717                           	callstack 20
  1718   0033F8                     
  1719                           ;mcc_generated_files/init.c: 48:     INTERRUPT_Initialize();
  1720   0033F8  EC1D  F01D         	call	_INTERRUPT_Initialize	;wreg free
  1721   0033FC                     
  1722                           ;mcc_generated_files/init.c: 49:     I2C_Initialize();
  1723   0033FC  ECC9  F01C         	call	_I2C_Initialize	;wreg free
  1724   003400                     
  1725                           ;mcc_generated_files/init.c: 50:     PIN_MANAGER_Initialize();
  1726   003400  EC3A  F01C         	call	_PIN_MANAGER_Initialize	;wreg free
  1727   003404                     
  1728                           ;mcc_generated_files/init.c: 51:     led_init(&led_red);
  1729   003404  0EE5               	movlw	low _led_red
  1730   003406  6E27               	movwf	led_init@led^0,c
  1731   003408  EC23  F01B         	call	_led_init	;wreg free
  1732   00340C                     
  1733                           ;mcc_generated_files/init.c: 52:     led_init(&led_blue);
  1734   00340C  0EE3               	movlw	low _led_blue
  1735   00340E  6E27               	movwf	led_init@led^0,c
  1736   003410  EC23  F01B         	call	_led_init	;wreg free
  1737   003414                     
  1738                           ;mcc_generated_files/init.c: 53:     dc_motor_init(&motor1);
  1739   003414  0EE0               	movlw	low _motor1
  1740   003416  6E27               	movwf	dc_motor_init@dc_motor^0,c
  1741   003418  EC47  F01B         	call	_dc_motor_init	;wreg free
  1742   00341C                     
  1743                           ;mcc_generated_files/init.c: 54:     dc_motor_init(&motor2);
  1744   00341C  0EDD               	movlw	low _motor2
  1745   00341E  6E27               	movwf	dc_motor_init@dc_motor^0,c
  1746   003420  EC47  F01B         	call	_dc_motor_init	;wreg free
  1747   003424                     
  1748                           ;mcc_generated_files/init.c: 55:     seven_segment_init(&seg_1);
  1749   003424  0ED8               	movlw	low _seg_1
  1750   003426  6E27               	movwf	seven_segment_init@seg^0,c
  1751   003428  6A28               	clrf	(seven_segment_init@seg+1)^0,c
  1752   00342A  EC8D  F01B         	call	_seven_segment_init	;wreg free
  1753   00342E                     
  1754                           ;mcc_generated_files/init.c: 56:     seven_segment_init(&seg_2);
  1755   00342E  0E29               	movlw	low _seg_2
  1756   003430  6E27               	movwf	seven_segment_init@seg^0,c
  1757   003432  0E01               	movlw	high _seg_2
  1758   003434  6E28               	movwf	(seven_segment_init@seg+1)^0,c
  1759   003436  EC8D  F01B         	call	_seven_segment_init	;wreg free
  1760   00343A                     
  1761                           ;mcc_generated_files/init.c: 57:     CCP_Init(&ccp1);
  1762   00343A  0E1A               	movlw	low _ccp1
  1763   00343C  0101               	movlb	1	; () banked
  1764   00343E  6F44               	movwf	CCP_Init@_ccp_obj& (0+255),b
  1765   003440  0E01               	movlw	high _ccp1
  1766   003442  6F45               	movwf	(CCP_Init@_ccp_obj+1)& (0+255),b
  1767   003444  ECDA  F015         	call	_CCP_Init	;wreg free
  1768   003448                     
  1769                           ;mcc_generated_files/init.c: 58:     Timer2_Init(&timer2);
  1770   003448  0E4E               	movlw	low _timer2
  1771   00344A  6E19               	movwf	Timer2_Init@_timer^0,c
  1772   00344C  0E01               	movlw	high _timer2
  1773   00344E  6E1A               	movwf	(Timer2_Init@_timer+1)^0,c
  1774   003450  EC0B  F019         	call	_Timer2_Init	;wreg free
  1775   003454  0012               	return		;funcret
  1776   003456                     __end_of_Initialize:
  1777                           	callstack 0
  1778                           
  1779 ;; *************** function _seven_segment_init *****************
  1780 ;; Defined at:
  1781 ;;		line 16 in file "ECUAL/7_SEGMENT/seven_segment.c"
  1782 ;; Parameters:    Size  Location     Type
  1783 ;;  seg             2   38[COMRAM] PTR struct .
  1784 ;;		 -> seg_2(5), seg_1(5), 
  1785 ;; Auto vars:     Size  Location     Type
  1786 ;;  ret             1    0        unsigned char 
  1787 ;;  gpio_ret        1   40[COMRAM] unsigned char 
  1788 ;; Return value:  Size  Location     Type
  1789 ;;                  1    wreg      unsigned char 
  1790 ;; Registers used:
  1791 ;;		wreg, fsr2l, fsr2h, status,2, status,0, prodl, prodh, cstack
  1792 ;; Tracked objects:
  1793 ;;		On entry : 0/0
  1794 ;;		On exit  : 0/0
  1795 ;;		Unchanged: 0/0
  1796 ;; Data sizes:     COMRAM   BANK0   BANK1   BANK2   BANK3   BANK4   BANK5   BANK6   BANK7   BANK8   BANK9  BANK10  BANK1
      +1  BANK12  BANK13  BANK14  BANK15
  1797 ;;      Params:         2       0       0       0       0       0       0       0       0       0       0       0       
      +0       0       0       0       0
  1798 ;;      Locals:         1       0       0       0       0       0       0       0       0       0       0       0       
      +0       0       0       0       0
  1799 ;;      Temps:          0       0       0       0       0       0       0       0       0       0       0       0       
      +0       0       0       0       0
  1800 ;;      Totals:         3       0       0       0       0       0       0       0       0       0       0       0       
      +0       0       0       0       0
  1801 ;;Total ram usage:        3 bytes
  1802 ;; Hardware stack levels used: 1
  1803 ;; Hardware stack levels required when called: 9
  1804 ;; This function calls:
  1805 ;;		_gpio_pin_output_low_init
  1806 ;; This function is called by:
  1807 ;;		_Initialize
  1808 ;; This function uses a non-reentrant model
  1809 ;;
  1810                           
  1811                           	psect	text6
  1812   00371A                     __ptext6:
  1813                           	callstack 0
  1814   00371A                     _seven_segment_init:
  1815                           	callstack 20
  1816   00371A                     
  1817                           ;ECUAL/7_SEGMENT/seven_segment.c: 20:     Std_ReturnType gpio_ret=(Std_ReturnType)0x00;
  1818   00371A  0E00               	movlw	0
  1819   00371C  6E29               	movwf	seven_segment_init@gpio_ret^0,c
  1820   00371E                     
  1821                           ;ECUAL/7_SEGMENT/seven_segment.c: 21:     if(((void*)0)==seg){
  1822   00371E  5027               	movf	seven_segment_init@seg^0,w,c
  1823   003720  1028               	iorwf	(seven_segment_init@seg+1)^0,w,c
  1824   003722  A4D8               	btfss	status,2,c
  1825   003724  EF96  F01B         	goto	u9931
  1826   003728  EF98  F01B         	goto	u9930
  1827   00372C                     u9931:
  1828   00372C  EF9A  F01B         	goto	l9935
  1829   003730                     u9930:
  1830   003730                     
  1831                           ;ECUAL/7_SEGMENT/seven_segment.c: 23:     }
  1832   003730  EFAD  F01B         	goto	l13
  1833   003734                     l9935:
  1834                           
  1835                           ;ECUAL/7_SEGMENT/seven_segment.c: 25:         for(counter=0;counter<8;counter++){
  1836   003734  0E00               	movlw	0
  1837   003736  6E64               	movwf	seven_segment_init@counter^0,c
  1838   003738                     l9941:
  1839   003738  5064               	movf	seven_segment_init@counter^0,w,c
  1840   00373A  2427               	addwf	seven_segment_init@seg^0,w,c
  1841   00373C  6E22               	movwf	gpio_pin_output_low_init@pin^0,c
  1842   00373E  0E00               	movlw	0
  1843   003740  2028               	addwfc	(seven_segment_init@seg+1)^0,w,c
  1844   003742  6E23               	movwf	(gpio_pin_output_low_init@pin+1)^0,c
  1845   003744  ECC6  F019         	call	_gpio_pin_output_low_init	;wreg free
  1846   003748                     
  1847                           ;ECUAL/7_SEGMENT/seven_segment.c: 27:         }
  1848   003748  2A64               	incf	seven_segment_init@counter^0,f,c
  1849   00374A  0E07               	movlw	7
  1850   00374C  6464               	cpfsgt	seven_segment_init@counter^0,c
  1851   00374E  EFAB  F01B         	goto	u9941
  1852   003752  EFAD  F01B         	goto	u9940
  1853   003756                     u9941:
  1854   003756  EF9C  F01B         	goto	l9941
  1855   00375A                     u9940:
  1856   00375A                     l13:
  1857   00375A  0012               	return		;funcret
  1858   00375C                     __end_of_seven_segment_init:
  1859                           	callstack 0
  1860                           
  1861 ;; *************** function _led_init *****************
  1862 ;; Defined at:
  1863 ;;		line 17 in file "ECUAL/LED/led.c"
  1864 ;; Parameters:    Size  Location     Type
  1865 ;;  led             1   38[COMRAM] PTR struct .
  1866 ;;		 -> led_blue(2), led_red(2), 
  1867 ;; Auto vars:     Size  Location     Type
  1868 ;;  ret             1    0        unsigned char 
  1869 ;;  gpio_ret        1   39[COMRAM] unsigned char 
  1870 ;; Return value:  Size  Location     Type
  1871 ;;                  1    wreg      unsigned char 
  1872 ;; Registers used:
  1873 ;;		wreg, fsr1l, fsr1h, fsr2l, fsr2h, status,2, status,0, prodl, prodh, cstack
  1874 ;; Tracked objects:
  1875 ;;		On entry : 0/0
  1876 ;;		On exit  : 0/0
  1877 ;;		Unchanged: 0/0
  1878 ;; Data sizes:     COMRAM   BANK0   BANK1   BANK2   BANK3   BANK4   BANK5   BANK6   BANK7   BANK8   BANK9  BANK10  BANK1
      +1  BANK12  BANK13  BANK14  BANK15
  1879 ;;      Params:         1       0       0       0       0       0       0       0       0       0       0       0       
      +0       0       0       0       0
  1880 ;;      Locals:         1       0       0       0       0       0       0       0       0       0       0       0       
      +0       0       0       0       0
  1881 ;;      Temps:          0       0       0       0       0       0       0       0       0       0       0       0       
      +0       0       0       0       0
  1882 ;;      Totals:         2       0       0       0       0       0       0       0       0       0       0       0       
      +0       0       0       0       0
  1883 ;;Total ram usage:        2 bytes
  1884 ;; Hardware stack levels used: 1
  1885 ;; Hardware stack levels required when called: 9
  1886 ;; This function calls:
  1887 ;;		_gpio_pin_output_low_init
  1888 ;; This function is called by:
  1889 ;;		_Initialize
  1890 ;; This function uses a non-reentrant model
  1891 ;;
  1892                           
  1893                           	psect	text7
  1894   003646                     __ptext7:
  1895                           	callstack 0
  1896   003646                     _led_init:
  1897                           	callstack 20
  1898   003646                     
  1899                           ;ECUAL/LED/led.c: 20:     Std_ReturnType gpio_ret=(Std_ReturnType)0x00;
  1900   003646  0E00               	movlw	0
  1901   003648  6E28               	movwf	led_init@gpio_ret^0,c
  1902                           
  1903                           ;ECUAL/LED/led.c: 21:     if(((void*)0)==led){
  1904   00364A  5027               	movf	led_init@led^0,w,c
  1905   00364C  A4D8               	btfss	status,2,c
  1906   00364E  EF2B  F01B         	goto	u10011
  1907   003652  EF2D  F01B         	goto	u10010
  1908   003656                     u10011:
  1909   003656  EF2F  F01B         	goto	l10009
  1910   00365A                     u10010:
  1911   00365A                     
  1912                           ;ECUAL/LED/led.c: 23:     }
  1913   00365A  EF46  F01B         	goto	l252
  1914   00365E                     l10009:
  1915   00365E  C027  F022         	movff	led_init@led,gpio_pin_output_low_init@pin
  1916   003662  6A23               	clrf	(gpio_pin_output_low_init@pin+1)^0,c
  1917   003664  ECC6  F019         	call	_gpio_pin_output_low_init	;wreg free
  1918   003668                     
  1919                           ;ECUAL/LED/led.c: 26:         led->led_state=led->led_pin.logic;
  1920   003668  5027               	movf	led_init@led^0,w,c
  1921   00366A  6ED9               	movwf	fsr2l,c
  1922   00366C  6ADA               	clrf	fsr2h,c
  1923   00366E  0E01               	movlw	1
  1924   003670  26D9               	addwf	fsr2l,f,c
  1925   003672  5027               	movf	led_init@led^0,w,c
  1926   003674  6EE1               	movwf	fsr1l,c
  1927   003676  6AE2               	clrf	fsr1h,c
  1928   003678  BEE7               	btfsc	indf1,7,c
  1929   00367A  EF41  F01B         	goto	u10021
  1930   00367E  EF44  F01B         	goto	u10020
  1931   003682                     u10021:
  1932   003682  0E01               	movlw	1
  1933   003684  EF45  F01B         	goto	u10026
  1934   003688                     u10020:
  1935   003688  0E00               	movlw	0
  1936   00368A                     u10026:
  1937   00368A  6EDF               	movwf	indf2,c
  1938   00368C                     l252:
  1939   00368C  0012               	return		;funcret
  1940   00368E                     __end_of_led_init:
  1941                           	callstack 0
  1942                           
  1943 ;; *************** function _dc_motor_init *****************
  1944 ;; Defined at:
  1945 ;;		line 16 in file "ECUAL/DC_MOTOR/dc_motor.c"
  1946 ;; Parameters:    Size  Location     Type
  1947 ;;  dc_motor        1   38[COMRAM] PTR struct .
  1948 ;;		 -> motor2(3), motor1(3), 
  1949 ;; Auto vars:     Size  Location     Type
  1950 ;;  ret             1    0        unsigned char 
  1951 ;;  gpio_ret        1   40[COMRAM] unsigned char 
  1952 ;; Return value:  Size  Location     Type
  1953 ;;                  1    wreg      unsigned char 
  1954 ;; Registers used:
  1955 ;;		wreg, fsr2l, fsr2h, status,2, status,0, prodl, prodh, cstack
  1956 ;; Tracked objects:
  1957 ;;		On entry : 0/0
  1958 ;;		On exit  : 0/0
  1959 ;;		Unchanged: 0/0
  1960 ;; Data sizes:     COMRAM   BANK0   BANK1   BANK2   BANK3   BANK4   BANK5   BANK6   BANK7   BANK8   BANK9  BANK10  BANK1
      +1  BANK12  BANK13  BANK14  BANK15
  1961 ;;      Params:         1       0       0       0       0       0       0       0       0       0       0       0       
      +0       0       0       0       0
  1962 ;;      Locals:         1       0       0       0       0       0       0       0       0       0       0       0       
      +0       0       0       0       0
  1963 ;;      Temps:          1       0       0       0       0       0       0       0       0       0       0       0       
      +0       0       0       0       0
  1964 ;;      Totals:         3       0       0       0       0       0       0       0       0       0       0       0       
      +0       0       0       0       0
  1965 ;;Total ram usage:        3 bytes
  1966 ;; Hardware stack levels used: 1
  1967 ;; Hardware stack levels required when called: 9
  1968 ;; This function calls:
  1969 ;;		_gpio_pin_output_low_init
  1970 ;; This function is called by:
  1971 ;;		_Initialize
  1972 ;; This function uses a non-reentrant model
  1973 ;;
  1974                           
  1975                           	psect	text8
  1976   00368E                     __ptext8:
  1977                           	callstack 0
  1978   00368E                     _dc_motor_init:
  1979                           	callstack 20
  1980   00368E                     
  1981                           ;ECUAL/DC_MOTOR/dc_motor.c: 19:     Std_ReturnType gpio_ret=(Std_ReturnType)0x00;
  1982   00368E  0E00               	movlw	0
  1983   003690  6E29               	movwf	dc_motor_init@gpio_ret^0,c
  1984                           
  1985                           ;ECUAL/DC_MOTOR/dc_motor.c: 20:     if(((void*)0)==dc_motor){
  1986   003692  5027               	movf	dc_motor_init@dc_motor^0,w,c
  1987   003694  A4D8               	btfss	status,2,c
  1988   003696  EF4F  F01B         	goto	u9951
  1989   00369A  EF51  F01B         	goto	u9950
  1990   00369E                     u9951:
  1991   00369E  EF53  F01B         	goto	l9955
  1992   0036A2                     u9950:
  1993   0036A2                     
  1994                           ;ECUAL/DC_MOTOR/dc_motor.c: 22:     }
  1995   0036A2  EF69  F01B         	goto	l56
  1996   0036A6                     l9955:
  1997                           
  1998                           ;ECUAL/DC_MOTOR/dc_motor.c: 24:         gpio_ret=gpio_pin_output_low_init(&(dc_motor->dc
      +                          _motor_pin0));
  1999   0036A6  C027  F022         	movff	dc_motor_init@dc_motor,gpio_pin_output_low_init@pin
  2000   0036AA  6A23               	clrf	(gpio_pin_output_low_init@pin+1)^0,c
  2001   0036AC  ECC6  F019         	call	_gpio_pin_output_low_init	;wreg free
  2002   0036B0  6E29               	movwf	dc_motor_init@gpio_ret^0,c
  2003                           
  2004                           ;ECUAL/DC_MOTOR/dc_motor.c: 25:         gpio_ret=gpio_pin_output_low_init(&(dc_motor->dc
      +                          _motor_pin1));
  2005   0036B2  C027  F028         	movff	dc_motor_init@dc_motor,??_dc_motor_init
  2006   0036B6  0E01               	movlw	1
  2007   0036B8  2628               	addwf	??_dc_motor_init^0,f,c
  2008   0036BA  C028  F022         	movff	??_dc_motor_init,gpio_pin_output_low_init@pin
  2009   0036BE  6A23               	clrf	(gpio_pin_output_low_init@pin+1)^0,c
  2010   0036C0  ECC6  F019         	call	_gpio_pin_output_low_init	;wreg free
  2011   0036C4  6E29               	movwf	dc_motor_init@gpio_ret^0,c
  2012   0036C6                     
  2013                           ;ECUAL/DC_MOTOR/dc_motor.c: 26:         dc_motor->dc_motor_state=DC_MOTOR_OFF;
  2014   0036C6  5027               	movf	dc_motor_init@dc_motor^0,w,c
  2015   0036C8  6ED9               	movwf	fsr2l,c
  2016   0036CA  6ADA               	clrf	fsr2h,c
  2017   0036CC  0E02               	movlw	2
  2018   0036CE  26D9               	addwf	fsr2l,f,c
  2019   0036D0  6ADF               	clrf	indf2,c
  2020   0036D2                     l56:
  2021   0036D2  0012               	return		;funcret
  2022   0036D4                     __end_of_dc_motor_init:
  2023                           	callstack 0
  2024                           
  2025 ;; *************** function _Timer2_Init *****************
  2026 ;; Defined at:
  2027 ;;		line 27 in file "MCAL/TIMER2/timer2.c"
  2028 ;; Parameters:    Size  Location     Type
  2029 ;;  _timer          2   24[COMRAM] PTR const struct .
  2030 ;;		 -> timer2(7), 
  2031 ;; Auto vars:     Size  Location     Type
  2032 ;;  ret             1    0        unsigned char 
  2033 ;; Return value:  Size  Location     Type
  2034 ;;                  1    wreg      unsigned char 
  2035 ;; Registers used:
  2036 ;;		wreg, fsr2l, fsr2h, status,2, status,0
  2037 ;; Tracked objects:
  2038 ;;		On entry : 0/0
  2039 ;;		On exit  : 0/0
  2040 ;;		Unchanged: 0/0
  2041 ;; Data sizes:     COMRAM   BANK0   BANK1   BANK2   BANK3   BANK4   BANK5   BANK6   BANK7   BANK8   BANK9  BANK10  BANK1
      +1  BANK12  BANK13  BANK14  BANK15
  2042 ;;      Params:         2       0       0       0       0       0       0       0       0       0       0       0       
      +0       0       0       0       0
  2043 ;;      Locals:         0       0       0       0       0       0       0       0       0       0       0       0       
      +0       0       0       0       0
  2044 ;;      Temps:          1       0       0       0       0       0       0       0       0       0       0       0       
      +0       0       0       0       0
  2045 ;;      Totals:         3       0       0       0       0       0       0       0       0       0       0       0       
      +0       0       0       0       0
  2046 ;;Total ram usage:        3 bytes
  2047 ;; Hardware stack levels used: 1
  2048 ;; Hardware stack levels required when called: 7
  2049 ;; This function calls:
  2050 ;;		Nothing
  2051 ;; This function is called by:
  2052 ;;		_Initialize
  2053 ;; This function uses a non-reentrant model
  2054 ;;
  2055                           
  2056                           	psect	text9
  2057   003216                     __ptext9:
  2058                           	callstack 0
  2059   003216                     _Timer2_Init:
  2060                           	callstack 22
  2061   003216                     
  2062                           ;MCAL/TIMER2/timer2.c: 29:     if(((void*)0) == _timer){
  2063   003216  5019               	movf	Timer2_Init@_timer^0,w,c
  2064   003218  101A               	iorwf	(Timer2_Init@_timer+1)^0,w,c
  2065   00321A  A4D8               	btfss	status,2,c
  2066   00321C  EF12  F019         	goto	u10111
  2067   003220  EF14  F019         	goto	u10110
  2068   003224                     u10111:
  2069   003224  EF16  F019         	goto	l1216
  2070   003228                     u10110:
  2071   003228                     
  2072                           ;MCAL/TIMER2/timer2.c: 31:     }
  2073   003228  EF51  F019         	goto	l1218
  2074   00322C                     l1216:
  2075                           
  2076                           ;MCAL/TIMER2/timer2.c: 34:         (T2CONbits.TMR2ON = 0);
  2077   00322C  94CA               	bcf	202,2,c	;volatile
  2078   00322E                     
  2079                           ;MCAL/TIMER2/timer2.c: 36:         (T2CONbits.T2CKPS = _timer->timer2_prescaler_value);
  2080   00322E  EE20 F005          	lfsr	2,5
  2081   003232  5019               	movf	Timer2_Init@_timer^0,w,c
  2082   003234  26D9               	addwf	fsr2l,f,c
  2083   003236  501A               	movf	(Timer2_Init@_timer+1)^0,w,c
  2084   003238  22DA               	addwfc	fsr2h,f,c
  2085   00323A  50DF               	movf	indf2,w,c
  2086   00323C  6E1B               	movwf	??_Timer2_Init^0,c
  2087   00323E  50CA               	movf	202,w,c	;volatile
  2088   003240  181B               	xorwf	??_Timer2_Init^0,w,c
  2089   003242  0BFC               	andlw	-4
  2090   003244  181B               	xorwf	??_Timer2_Init^0,w,c
  2091   003246  6ECA               	movwf	202,c	;volatile
  2092                           
  2093                           ;MCAL/TIMER2/timer2.c: 38:         (T2CONbits.TOUTPS = _timer->timer2_postscaler_value);
  2094   003248  EE20 F004          	lfsr	2,4
  2095   00324C  5019               	movf	Timer2_Init@_timer^0,w,c
  2096   00324E  26D9               	addwf	fsr2l,f,c
  2097   003250  501A               	movf	(Timer2_Init@_timer+1)^0,w,c
  2098   003252  22DA               	addwfc	fsr2h,f,c
  2099   003254  50DF               	movf	indf2,w,c
  2100   003256  6E1B               	movwf	??_Timer2_Init^0,c
  2101   003258  461B               	rlncf	??_Timer2_Init^0,f,c
  2102   00325A  461B               	rlncf	??_Timer2_Init^0,f,c
  2103   00325C  461B               	rlncf	??_Timer2_Init^0,f,c
  2104   00325E  50CA               	movf	202,w,c	;volatile
  2105   003260  181B               	xorwf	??_Timer2_Init^0,w,c
  2106   003262  0B87               	andlw	-121
  2107   003264  181B               	xorwf	??_Timer2_Init^0,w,c
  2108   003266  6ECA               	movwf	202,c	;volatile
  2109                           
  2110                           ;MCAL/TIMER2/timer2.c: 40:         TMR2 = _timer->timer2_preload_value;
  2111   003268  EE20 F003          	lfsr	2,3
  2112   00326C  5019               	movf	Timer2_Init@_timer^0,w,c
  2113   00326E  26D9               	addwf	fsr2l,f,c
  2114   003270  501A               	movf	(Timer2_Init@_timer+1)^0,w,c
  2115   003272  22DA               	addwfc	fsr2h,f,c
  2116   003274  50DF               	movf	indf2,w,c
  2117   003276  6ECC               	movwf	204,c	;volatile
  2118                           
  2119                           ;MCAL/TIMER2/timer2.c: 41:         timer2_preload = _timer->timer2_preload_value;
  2120   003278  EE20 F003          	lfsr	2,3
  2121   00327C  5019               	movf	Timer2_Init@_timer^0,w,c
  2122   00327E  26D9               	addwf	fsr2l,f,c
  2123   003280  501A               	movf	(Timer2_Init@_timer+1)^0,w,c
  2124   003282  22DA               	addwfc	fsr2h,f,c
  2125   003284  50DF               	movf	indf2,w,c
  2126   003286  6E5F               	movwf	_timer2_preload^0,c
  2127   003288                     
  2128                           ;MCAL/TIMER2/timer2.c: 44:         (PIR1bits.TMR2IF = 0);
  2129   003288  929E               	bcf	158,1,c	;volatile
  2130   00328A                     
  2131                           ;MCAL/TIMER2/timer2.c: 58:         (INTCONbits.GIE=1);
  2132   00328A  8EF2               	bsf	242,7,c	;volatile
  2133   00328C                     
  2134                           ;MCAL/TIMER2/timer2.c: 59:         (INTCONbits.PEIE=1);
  2135   00328C  8CF2               	bsf	242,6,c	;volatile
  2136   00328E                     
  2137                           ;MCAL/TIMER2/timer2.c: 61:         (PIE1bits.TMR2IE = 1);
  2138   00328E  829D               	bsf	157,1,c	;volatile
  2139   003290                     
  2140                           ;MCAL/TIMER2/timer2.c: 62:         TMR2_InterruptHandler=_timer->TMR2_InterruptHandler;
  2141   003290  C019  FFD9         	movff	Timer2_Init@_timer,fsr2l
  2142   003294  C01A  FFDA         	movff	Timer2_Init@_timer+1,fsr2h
  2143   003298  CFDE F098          	movff	postinc2,_TMR2_InterruptHandler
  2144   00329C  CFDD F099          	movff	postdec2,_TMR2_InterruptHandler+1
  2145   0032A0                     
  2146                           ;MCAL/TIMER2/timer2.c: 66:         (T2CONbits.TMR2ON = 1);
  2147   0032A0  84CA               	bsf	202,2,c	;volatile
  2148   0032A2                     l1218:
  2149   0032A2  0012               	return		;funcret
  2150   0032A4                     __end_of_Timer2_Init:
  2151                           	callstack 0
  2152                           
  2153 ;; *************** function _PIN_MANAGER_Initialize *****************
  2154 ;; Defined at:
  2155 ;;		line 55 in file "mcc_generated_files/pin_manager.c"
  2156 ;; Parameters:    Size  Location     Type
  2157 ;;		None
  2158 ;; Auto vars:     Size  Location     Type
  2159 ;;		None
  2160 ;; Return value:  Size  Location     Type
  2161 ;;                  1    wreg      void 
  2162 ;; Registers used:
  2163 ;;		wreg, status,2
  2164 ;; Tracked objects:
  2165 ;;		On entry : 0/0
  2166 ;;		On exit  : 0/0
  2167 ;;		Unchanged: 0/0
  2168 ;; Data sizes:     COMRAM   BANK0   BANK1   BANK2   BANK3   BANK4   BANK5   BANK6   BANK7   BANK8   BANK9  BANK10  BANK1
      +1  BANK12  BANK13  BANK14  BANK15
  2169 ;;      Params:         0       0       0       0       0       0       0       0       0       0       0       0       
      +0       0       0       0       0
  2170 ;;      Locals:         0       0       0       0       0       0       0       0       0       0       0       0       
      +0       0       0       0       0
  2171 ;;      Temps:          0       0       0       0       0       0       0       0       0       0       0       0       
      +0       0       0       0       0
  2172 ;;      Totals:         0       0       0       0       0       0       0       0       0       0       0       0       
      +0       0       0       0       0
  2173 ;;Total ram usage:        0 bytes
  2174 ;; Hardware stack levels used: 1
  2175 ;; Hardware stack levels required when called: 7
  2176 ;; This function calls:
  2177 ;;		Nothing
  2178 ;; This function is called by:
  2179 ;;		_Initialize
  2180 ;; This function uses a non-reentrant model
  2181 ;;
  2182                           
  2183                           	psect	text10
  2184   003874                     __ptext10:
  2185                           	callstack 0
  2186   003874                     _PIN_MANAGER_Initialize:
  2187                           	callstack 22
  2188   003874                     
  2189                           ;mcc_generated_files/pin_manager.c: 60:     LATE = 0x00;
  2190   003874  0E00               	movlw	0
  2191   003876  6E8D               	movwf	141,c	;volatile
  2192                           
  2193                           ;mcc_generated_files/pin_manager.c: 61:     LATD = 0x00;
  2194   003878  0E00               	movlw	0
  2195   00387A  6E8C               	movwf	140,c	;volatile
  2196                           
  2197                           ;mcc_generated_files/pin_manager.c: 62:     LATA = 0x00;
  2198   00387C  0E00               	movlw	0
  2199   00387E  6E89               	movwf	137,c	;volatile
  2200                           
  2201                           ;mcc_generated_files/pin_manager.c: 63:     LATB = 0x00;
  2202   003880  0E00               	movlw	0
  2203   003882  6E8A               	movwf	138,c	;volatile
  2204                           
  2205                           ;mcc_generated_files/pin_manager.c: 64:     LATC = 0x00;
  2206   003884  0E00               	movlw	0
  2207   003886  6E8B               	movwf	139,c	;volatile
  2208                           
  2209                           ;mcc_generated_files/pin_manager.c: 69:     TRISE = 0x07;
  2210   003888  0E07               	movlw	7
  2211   00388A  6E96               	movwf	150,c	;volatile
  2212   00388C                     
  2213                           ;mcc_generated_files/pin_manager.c: 70:     TRISA = 0xFF;
  2214   00388C  6892               	setf	146,c	;volatile
  2215   00388E                     
  2216                           ;mcc_generated_files/pin_manager.c: 71:     TRISB = 0xFF;
  2217   00388E  6893               	setf	147,c	;volatile
  2218   003890                     
  2219                           ;mcc_generated_files/pin_manager.c: 72:     TRISC = 0xFF;
  2220   003890  6894               	setf	148,c	;volatile
  2221   003892                     
  2222                           ;mcc_generated_files/pin_manager.c: 73:     TRISD = 0xFF;
  2223   003892  6895               	setf	149,c	;volatile
  2224   003894                     
  2225                           ;mcc_generated_files/pin_manager.c: 74:     INTCON2bits.nRBPU = 1;
  2226   003894  8EF1               	bsf	241,7,c	;volatile
  2227   003896  0012               	return		;funcret
  2228   003898                     __end_of_PIN_MANAGER_Initialize:
  2229                           	callstack 0
  2230                           
  2231 ;; *************** function _INTERRUPT_Initialize *****************
  2232 ;; Defined at:
  2233 ;;		line 54 in file "mcc_generated_files/interrupt_manager.c"
  2234 ;; Parameters:    Size  Location     Type
  2235 ;;		None
  2236 ;; Auto vars:     Size  Location     Type
  2237 ;;		None
  2238 ;; Return value:  Size  Location     Type
  2239 ;;                  1    wreg      void 
  2240 ;; Registers used:
  2241 ;;		None
  2242 ;; Tracked objects:
  2243 ;;		On entry : 0/0
  2244 ;;		On exit  : 0/0
  2245 ;;		Unchanged: 0/0
  2246 ;; Data sizes:     COMRAM   BANK0   BANK1   BANK2   BANK3   BANK4   BANK5   BANK6   BANK7   BANK8   BANK9  BANK10  BANK1
      +1  BANK12  BANK13  BANK14  BANK15
  2247 ;;      Params:         0       0       0       0       0       0       0       0       0       0       0       0       
      +0       0       0       0       0
  2248 ;;      Locals:         0       0       0       0       0       0       0       0       0       0       0       0       
      +0       0       0       0       0
  2249 ;;      Temps:          0       0       0       0       0       0       0       0       0       0       0       0       
      +0       0       0       0       0
  2250 ;;      Totals:         0       0       0       0       0       0       0       0       0       0       0       0       
      +0       0       0       0       0
  2251 ;;Total ram usage:        0 bytes
  2252 ;; Hardware stack levels used: 1
  2253 ;; Hardware stack levels required when called: 7
  2254 ;; This function calls:
  2255 ;;		Nothing
  2256 ;; This function is called by:
  2257 ;;		_Initialize
  2258 ;; This function uses a non-reentrant model
  2259 ;;
  2260                           
  2261                           	psect	text11
  2262   003A3A                     __ptext11:
  2263                           	callstack 0
  2264   003A3A                     _INTERRUPT_Initialize:
  2265                           	callstack 22
  2266   003A3A                     
  2267                           ;mcc_generated_files/interrupt_manager.c: 57:     RCONbits.IPEN = 0;
  2268   003A3A  9ED0               	bcf	208,7,c	;volatile
  2269   003A3C  0012               	return		;funcret
  2270   003A3E                     __end_of_INTERRUPT_Initialize:
  2271                           	callstack 0
  2272                           
  2273 ;; *************** function _I2C_Initialize *****************
  2274 ;; Defined at:
  2275 ;;		line 108 in file "mcc_generated_files/i2c_slave.c"
  2276 ;; Parameters:    Size  Location     Type
  2277 ;;		None
  2278 ;; Auto vars:     Size  Location     Type
  2279 ;;		None
  2280 ;; Return value:  Size  Location     Type
  2281 ;;                  1    wreg      void 
  2282 ;; Registers used:
  2283 ;;		wreg, status,2, status,0
  2284 ;; Tracked objects:
  2285 ;;		On entry : 0/0
  2286 ;;		On exit  : 0/0
  2287 ;;		Unchanged: 0/0
  2288 ;; Data sizes:     COMRAM   BANK0   BANK1   BANK2   BANK3   BANK4   BANK5   BANK6   BANK7   BANK8   BANK9  BANK10  BANK1
      +1  BANK12  BANK13  BANK14  BANK15
  2289 ;;      Params:         0       0       0       0       0       0       0       0       0       0       0       0       
      +0       0       0       0       0
  2290 ;;      Locals:         0       0       0       0       0       0       0       0       0       0       0       0       
      +0       0       0       0       0
  2291 ;;      Temps:          0       0       0       0       0       0       0       0       0       0       0       0       
      +0       0       0       0       0
  2292 ;;      Totals:         0       0       0       0       0       0       0       0       0       0       0       0       
      +0       0       0       0       0
  2293 ;;Total ram usage:        0 bytes
  2294 ;; Hardware stack levels used: 1
  2295 ;; Hardware stack levels required when called: 7
  2296 ;; This function calls:
  2297 ;;		Nothing
  2298 ;; This function is called by:
  2299 ;;		_Initialize
  2300 ;;		_I2C_Enable
  2301 ;; This function uses a non-reentrant model
  2302 ;;
  2303                           
  2304                           	psect	text12
  2305   003992                     __ptext12:
  2306                           	callstack 0
  2307   003992                     _I2C_Initialize:
  2308                           	callstack 22
  2309   003992                     
  2310                           ;mcc_generated_files/i2c_slave.c: 110:     SSPSTAT = 0x80;
  2311   003992  0E80               	movlw	128
  2312   003994  6EC7               	movwf	199,c	;volatile
  2313   003996                     
  2314                           ;mcc_generated_files/i2c_slave.c: 111:     SSPCON1 |= 0x06;
  2315   003996  0E06               	movlw	6
  2316   003998  12C6               	iorwf	198,f,c	;volatile
  2317   00399A                     
  2318                           ;mcc_generated_files/i2c_slave.c: 112:     SSPCON2 = 0x00;
  2319   00399A  0E00               	movlw	0
  2320   00399C  6EC5               	movwf	197,c	;volatile
  2321   00399E                     
  2322                           ;mcc_generated_files/i2c_slave.c: 113:     SSPCON1bits.SSPEN = 0;
  2323   00399E  9AC6               	bcf	198,5,c	;volatile
  2324   0039A0  0012               	return		;funcret
  2325   0039A2                     __end_of_I2C_Initialize:
  2326                           	callstack 0
  2327                           
  2328 ;; *************** function _CCP_Init *****************
  2329 ;; Defined at:
  2330 ;;		line 25 in file "MCAL/CCP/hal_ccp.c"
  2331 ;; Parameters:    Size  Location     Type
  2332 ;;  _ccp_obj        2   22[BANK1 ] PTR const struct .
  2333 ;;		 -> ccp1(15), 
  2334 ;; Auto vars:     Size  Location     Type
  2335 ;;  ret             1    0        unsigned char 
  2336 ;; Return value:  Size  Location     Type
  2337 ;;                  1    wreg      unsigned char 
  2338 ;; Registers used:
  2339 ;;		wreg, fsr2l, fsr2h, status,2, status,0, prodl, prodh, cstack
  2340 ;; Tracked objects:
  2341 ;;		On entry : 0/0
  2342 ;;		On exit  : 0/0
  2343 ;;		Unchanged: 0/0
  2344 ;; Data sizes:     COMRAM   BANK0   BANK1   BANK2   BANK3   BANK4   BANK5   BANK6   BANK7   BANK8   BANK9  BANK10  BANK1
      +1  BANK12  BANK13  BANK14  BANK15
  2345 ;;      Params:         0       0       2       0       0       0       0       0       0       0       0       0       
      +0       0       0       0       0
  2346 ;;      Locals:         0       0       0       0       0       0       0       0       0       0       0       0       
      +0       0       0       0       0
  2347 ;;      Temps:          0       0       1       0       0       0       0       0       0       0       0       0       
      +0       0       0       0       0
  2348 ;;      Totals:         0       0       3       0       0       0       0       0       0       0       0       0       
      +0       0       0       0       0
  2349 ;;Total ram usage:        3 bytes
  2350 ;; Hardware stack levels used: 1
  2351 ;; Hardware stack levels required when called: 9
  2352 ;; This function calls:
  2353 ;;		_CCP_Capture_Mode_Config
  2354 ;;		_CCP_Compare_Mode_Config
  2355 ;;		_CCP_Interrupt_Config
  2356 ;;		_CCP_PWM_Mode_Config
  2357 ;;		_gpio_pin_output_low_init
  2358 ;; This function is called by:
  2359 ;;		_Initialize
  2360 ;; This function uses a non-reentrant model
  2361 ;;
  2362                           
  2363                           	psect	text13
  2364   002BB4                     __ptext13:
  2365                           	callstack 0
  2366   002BB4                     _CCP_Init:
  2367                           	callstack 20
  2368   002BB4                     
  2369                           ;MCAL/CCP/hal_ccp.c: 27:     if(((void*)0) == _ccp_obj){
  2370   002BB4  0101               	movlb	1	; () banked
  2371   002BB6  5144               	movf	CCP_Init@_ccp_obj& (0+255),w,b
  2372   002BB8  1145               	iorwf	(CCP_Init@_ccp_obj+1)& (0+255),w,b
  2373   002BBA  A4D8               	btfss	status,2,c
  2374   002BBC  EFE2  F015         	goto	u10031
  2375   002BC0  EFE4  F015         	goto	u10030
  2376   002BC4                     u10031:
  2377   002BC4  EFE6  F015         	goto	l10023
  2378   002BC8                     u10030:
  2379   002BC8                     
  2380                           ; BSR set to: 1
  2381                           ;MCAL/CCP/hal_ccp.c: 29:     }
  2382   002BC8  EF74  F016         	goto	l469
  2383   002BCC                     l10023:
  2384                           
  2385                           ; BSR set to: 1
  2386                           ;MCAL/CCP/hal_ccp.c: 32:         if(CCP1_INST == _ccp_obj->ccp_inst){
  2387   002BCC  C144  FFD9         	movff	CCP_Init@_ccp_obj,fsr2l
  2388   002BD0  C145  FFDA         	movff	CCP_Init@_ccp_obj+1,fsr2h
  2389   002BD4  50DF               	movf	indf2,w,c
  2390   002BD6  A4D8               	btfss	status,2,c
  2391   002BD8  EFF0  F015         	goto	u10041
  2392   002BDC  EFF2  F015         	goto	u10040
  2393   002BE0                     u10041:
  2394   002BE0  EFF6  F015         	goto	l10027
  2395   002BE4                     u10040:
  2396   002BE4                     
  2397                           ; BSR set to: 1
  2398                           ;MCAL/CCP/hal_ccp.c: 33:             (CCP1CONbits.CCP1M = ((uint8)0x00));
  2399   002BE4  0EF0               	movlw	-16
  2400   002BE6  16BD               	andwf	189,f,c	;volatile
  2401                           
  2402                           ;MCAL/CCP/hal_ccp.c: 34:         }
  2403   002BE8  EF04  F016         	goto	l10031
  2404   002BEC                     l10027:
  2405                           
  2406                           ; BSR set to: 1
  2407   002BEC  C144  FFD9         	movff	CCP_Init@_ccp_obj,fsr2l
  2408   002BF0  C145  FFDA         	movff	CCP_Init@_ccp_obj+1,fsr2h
  2409   002BF4  04DE               	decf	postinc2,w,c
  2410   002BF6  A4D8               	btfss	status,2,c
  2411   002BF8  EF00  F016         	goto	u10051
  2412   002BFC  EF02  F016         	goto	u10050
  2413   002C00                     u10051:
  2414   002C00  EF04  F016         	goto	l10031
  2415   002C04                     u10050:
  2416   002C04                     
  2417                           ; BSR set to: 1
  2418                           ;MCAL/CCP/hal_ccp.c: 36:             (CCP2CONbits.CCP2M = ((uint8)0x00));
  2419   002C04  0EF0               	movlw	-16
  2420   002C06  16BA               	andwf	186,f,c	;volatile
  2421   002C08                     l10031:
  2422                           
  2423                           ; BSR set to: 1
  2424                           ;MCAL/CCP/hal_ccp.c: 41:         if(CCP_CAPTURE_MODE_SELECTED == _ccp_obj->ccp_mode){
  2425   002C08  EE20 F001          	lfsr	2,1
  2426   002C0C  5144               	movf	CCP_Init@_ccp_obj& (0+255),w,b
  2427   002C0E  26D9               	addwf	fsr2l,f,c
  2428   002C10  5145               	movf	(CCP_Init@_ccp_obj+1)& (0+255),w,b
  2429   002C12  22DA               	addwfc	fsr2h,f,c
  2430   002C14  50DF               	movf	indf2,w,c
  2431   002C16  A4D8               	btfss	status,2,c
  2432   002C18  EF10  F016         	goto	u10061
  2433   002C1C  EF12  F016         	goto	u10060
  2434   002C20                     u10061:
  2435   002C20  EF1A  F016         	goto	l10035
  2436   002C24                     u10060:
  2437   002C24                     
  2438                           ; BSR set to: 1
  2439   002C24  C144  F01C         	movff	CCP_Init@_ccp_obj,CCP_Capture_Mode_Config@_ccp_obj
  2440   002C28  C145  F01D         	movff	CCP_Init@_ccp_obj+1,CCP_Capture_Mode_Config@_ccp_obj+1
  2441   002C2C  EC9E  F014         	call	_CCP_Capture_Mode_Config	;wreg free
  2442                           
  2443                           ;MCAL/CCP/hal_ccp.c: 43:         }
  2444   002C30  EF47  F016         	goto	l10043
  2445   002C34                     l10035:
  2446                           
  2447                           ; BSR set to: 1
  2448   002C34  EE20 F001          	lfsr	2,1
  2449   002C38  5144               	movf	CCP_Init@_ccp_obj& (0+255),w,b
  2450   002C3A  26D9               	addwf	fsr2l,f,c
  2451   002C3C  5145               	movf	(CCP_Init@_ccp_obj+1)& (0+255),w,b
  2452   002C3E  22DA               	addwfc	fsr2h,f,c
  2453   002C40  04DE               	decf	postinc2,w,c
  2454   002C42  A4D8               	btfss	status,2,c
  2455   002C44  EF26  F016         	goto	u10071
  2456   002C48  EF28  F016         	goto	u10070
  2457   002C4C                     u10071:
  2458   002C4C  EF30  F016         	goto	l10039
  2459   002C50                     u10070:
  2460   002C50                     
  2461                           ; BSR set to: 1
  2462   002C50  C144  F01C         	movff	CCP_Init@_ccp_obj,CCP_Compare_Mode_Config@_ccp_obj
  2463   002C54  C145  F01D         	movff	CCP_Init@_ccp_obj+1,CCP_Compare_Mode_Config@_ccp_obj+1
  2464   002C58  ECA8  F012         	call	_CCP_Compare_Mode_Config	;wreg free
  2465                           
  2466                           ;MCAL/CCP/hal_ccp.c: 47:         }
  2467   002C5C  EF47  F016         	goto	l10043
  2468   002C60                     l10039:
  2469                           
  2470                           ; BSR set to: 1
  2471   002C60  EE20 F001          	lfsr	2,1
  2472   002C64  5144               	movf	CCP_Init@_ccp_obj& (0+255),w,b
  2473   002C66  26D9               	addwf	fsr2l,f,c
  2474   002C68  5145               	movf	(CCP_Init@_ccp_obj+1)& (0+255),w,b
  2475   002C6A  22DA               	addwfc	fsr2h,f,c
  2476   002C6C  0E02               	movlw	2
  2477   002C6E  18DE               	xorwf	postinc2,w,c
  2478   002C70  A4D8               	btfss	status,2,c
  2479   002C72  EF3D  F016         	goto	u10081
  2480   002C76  EF3F  F016         	goto	u10080
  2481   002C7A                     u10081:
  2482   002C7A  EF47  F016         	goto	l462
  2483   002C7E                     u10080:
  2484   002C7E                     
  2485                           ; BSR set to: 1
  2486                           ;MCAL/CCP/hal_ccp.c: 51:             CCP_PWM_Mode_Config(_ccp_obj);
  2487   002C7E  C144  F138         	movff	CCP_Init@_ccp_obj,CCP_PWM_Mode_Config@_ccp_obj
  2488   002C82  C145  F139         	movff	CCP_Init@_ccp_obj+1,CCP_PWM_Mode_Config@_ccp_obj+1
  2489   002C86  EC16  F010         	call	_CCP_PWM_Mode_Config	;wreg free
  2490                           
  2491                           ;MCAL/CCP/hal_ccp.c: 52:         }
  2492   002C8A  EF47  F016         	goto	l10043
  2493   002C8E                     l462:
  2494   002C8E                     l10043:
  2495   002C8E  0E03               	movlw	3
  2496   002C90  0101               	movlb	1	; () banked
  2497   002C92  2544               	addwf	CCP_Init@_ccp_obj& (0+255),w,b
  2498   002C94  6E22               	movwf	gpio_pin_output_low_init@pin^0,c
  2499   002C96  0E00               	movlw	0
  2500   002C98  2145               	addwfc	(CCP_Init@_ccp_obj+1)& (0+255),w,b
  2501   002C9A  6E23               	movwf	(gpio_pin_output_low_init@pin+1)^0,c
  2502   002C9C  ECC6  F019         	call	_gpio_pin_output_low_init	;wreg free
  2503   002CA0                     
  2504                           ;MCAL/CCP/hal_ccp.c: 59:         CCP_Interrupt_Config(_ccp_obj);
  2505   002CA0  C144  F019         	movff	CCP_Init@_ccp_obj,CCP_Interrupt_Config@_ccp_obj
  2506   002CA4  C145  F01A         	movff	CCP_Init@_ccp_obj+1,CCP_Interrupt_Config@_ccp_obj+1
  2507   002CA8  ECAE  F01B         	call	_CCP_Interrupt_Config	;wreg free
  2508   002CAC                     
  2509                           ;MCAL/CCP/hal_ccp.c: 62:         if(CCP1_INST == _ccp_obj->ccp_inst){
  2510   002CAC  C144  FFD9         	movff	CCP_Init@_ccp_obj,fsr2l
  2511   002CB0  C145  FFDA         	movff	CCP_Init@_ccp_obj+1,fsr2h
  2512   002CB4  50DF               	movf	indf2,w,c
  2513   002CB6  A4D8               	btfss	status,2,c
  2514   002CB8  EF60  F016         	goto	u10091
  2515   002CBC  EF62  F016         	goto	u10090
  2516   002CC0                     u10091:
  2517   002CC0  EF66  F016         	goto	l10051
  2518   002CC4                     u10090:
  2519   002CC4                     
  2520                           ;MCAL/CCP/hal_ccp.c: 63:             (CCP1CONbits.CCP1M = ((uint8)0x00));
  2521   002CC4  0EF0               	movlw	-16
  2522   002CC6  16BD               	andwf	189,f,c	;volatile
  2523                           
  2524                           ;MCAL/CCP/hal_ccp.c: 64:         }
  2525   002CC8  EF74  F016         	goto	l10055
  2526   002CCC                     l10051:
  2527   002CCC  C144  FFD9         	movff	CCP_Init@_ccp_obj,fsr2l
  2528   002CD0  C145  FFDA         	movff	CCP_Init@_ccp_obj+1,fsr2h
  2529   002CD4  04DE               	decf	postinc2,w,c
  2530   002CD6  A4D8               	btfss	status,2,c
  2531   002CD8  EF70  F016         	goto	u10101
  2532   002CDC  EF72  F016         	goto	u10100
  2533   002CE0                     u10101:
  2534   002CE0  EF74  F016         	goto	l10055
  2535   002CE4                     u10100:
  2536   002CE4                     
  2537                           ;MCAL/CCP/hal_ccp.c: 66:             (CCP2CONbits.CCP2M = ((uint8)0x00));
  2538   002CE4  0EF0               	movlw	-16
  2539   002CE6  16BA               	andwf	186,f,c	;volatile
  2540   002CE8                     l10055:
  2541   002CE8                     l469:
  2542   002CE8  0012               	return		;funcret
  2543   002CEA                     __end_of_CCP_Init:
  2544                           	callstack 0
  2545                           
  2546 ;; *************** function _gpio_pin_output_low_init *****************
  2547 ;; Defined at:
  2548 ;;		line 161 in file "MCAL/GPIO/gpio.c"
  2549 ;; Parameters:    Size  Location     Type
  2550 ;;  pin             2   33[COMRAM] PTR struct .
  2551 ;;		 -> ccp1$ccp_pin(1), ccp1(15), seg_2$seven_segment_pins(4), seg_2(5), 
  2552 ;;		 -> seg_1$seven_segment_pins(4), seg_1(5), motor2(3), motor1(3), 
  2553 ;;		 -> led_blue(2), led_red(2), 
  2554 ;; Auto vars:     Size  Location     Type
  2555 ;;  ret             1   37[COMRAM] unsigned char 
  2556 ;;  gpio_ret        1   36[COMRAM] unsigned char 
  2557 ;; Return value:  Size  Location     Type
  2558 ;;                  1    wreg      unsigned char 
  2559 ;; Registers used:
  2560 ;;		wreg, fsr2l, fsr2h, status,2, status,0, prodl, prodh, cstack
  2561 ;; Tracked objects:
  2562 ;;		On entry : 0/0
  2563 ;;		On exit  : 0/0
  2564 ;;		Unchanged: 0/0
  2565 ;; Data sizes:     COMRAM   BANK0   BANK1   BANK2   BANK3   BANK4   BANK5   BANK6   BANK7   BANK8   BANK9  BANK10  BANK1
      +1  BANK12  BANK13  BANK14  BANK15
  2566 ;;      Params:         2       0       0       0       0       0       0       0       0       0       0       0       
      +0       0       0       0       0
  2567 ;;      Locals:         2       0       0       0       0       0       0       0       0       0       0       0       
      +0       0       0       0       0
  2568 ;;      Temps:          1       0       0       0       0       0       0       0       0       0       0       0       
      +0       0       0       0       0
  2569 ;;      Totals:         5       0       0       0       0       0       0       0       0       0       0       0       
      +0       0       0       0       0
  2570 ;;Total ram usage:        5 bytes
  2571 ;; Hardware stack levels used: 1
  2572 ;; Hardware stack levels required when called: 8
  2573 ;; This function calls:
  2574 ;;		_gpio_pin_direction_init
  2575 ;;		_gpio_pin_logic_write
  2576 ;; This function is called by:
  2577 ;;		_seven_segment_init
  2578 ;;		_dc_motor_init
  2579 ;;		_led_init
  2580 ;;		_CCP_Init
  2581 ;;		_keypad_init
  2582 ;;		_lcd_init
  2583 ;;		_relay_init
  2584 ;; This function uses a non-reentrant model
  2585 ;;
  2586                           
  2587                           	psect	text14
  2588   00338C                     __ptext14:
  2589                           	callstack 0
  2590   00338C                     _gpio_pin_output_low_init:
  2591                           	callstack 20
  2592   00338C                     
  2593                           ;MCAL/GPIO/gpio.c: 164:     Std_ReturnType gpio_ret=(Std_ReturnType)0x00;
  2594   00338C  0E00               	movlw	0
  2595   00338E  6E25               	movwf	gpio_pin_output_low_init@gpio_ret^0,c
  2596   003390                     
  2597                           ;MCAL/GPIO/gpio.c: 165:     if(((void*)0)==pin || (pin->pin)>7){
  2598   003390  5022               	movf	gpio_pin_output_low_init@pin^0,w,c
  2599   003392  1023               	iorwf	(gpio_pin_output_low_init@pin+1)^0,w,c
  2600   003394  B4D8               	btfsc	status,2,c
  2601   003396  EFCF  F019         	goto	u9811
  2602   00339A  EFD1  F019         	goto	u9810
  2603   00339E                     u9811:
  2604   00339E  EFE2  F019         	goto	l9767
  2605   0033A2                     u9810:
  2606   0033A2  C022  FFD9         	movff	gpio_pin_output_low_init@pin,fsr2l
  2607   0033A6  C023  FFDA         	movff	gpio_pin_output_low_init@pin+1,fsr2h
  2608   0033AA  30DF               	rrcf	223,w,c
  2609   0033AC  32E8               	rrcf	wreg,f,c
  2610   0033AE  32E8               	rrcf	wreg,f,c
  2611   0033B0  0B07               	andlw	7
  2612   0033B2  6E24               	movwf	??_gpio_pin_output_low_init^0,c
  2613   0033B4  0E07               	movlw	7
  2614   0033B6  6424               	cpfsgt	??_gpio_pin_output_low_init^0,c
  2615   0033B8  EFE0  F019         	goto	u9821
  2616   0033BC  EFE2  F019         	goto	u9820
  2617   0033C0                     u9821:
  2618   0033C0  EFE6  F019         	goto	l9769
  2619   0033C4                     u9820:
  2620   0033C4                     l9767:
  2621                           
  2622                           ;MCAL/GPIO/gpio.c: 166:         ret=(Std_ReturnType)0x00;
  2623   0033C4  0E00               	movlw	0
  2624   0033C6  6E26               	movwf	gpio_pin_output_low_init@ret^0,c
  2625                           
  2626                           ;MCAL/GPIO/gpio.c: 167:     }
  2627   0033C8  EFFA  F019         	goto	l9773
  2628   0033CC                     l9769:
  2629                           
  2630                           ;MCAL/GPIO/gpio.c: 169:         gpio_ret=gpio_pin_direction_init(pin,OUTPUT);
  2631   0033CC  C022  F019         	movff	gpio_pin_output_low_init@pin,gpio_pin_direction_init@pin
  2632   0033D0  C023  F01A         	movff	gpio_pin_output_low_init@pin+1,gpio_pin_direction_init@pin+1
  2633   0033D4  0E00               	movlw	0
  2634   0033D6  6E1B               	movwf	gpio_pin_direction_init@pin_direction^0,c
  2635   0033D8  ECFD  F013         	call	_gpio_pin_direction_init	;wreg free
  2636   0033DC  6E25               	movwf	gpio_pin_output_low_init@gpio_ret^0,c
  2637                           
  2638                           ;MCAL/GPIO/gpio.c: 170:         gpio_ret=gpio_pin_logic_write(pin,LOW);
  2639   0033DE  C022  F019         	movff	gpio_pin_output_low_init@pin,gpio_pin_logic_write@pin
  2640   0033E2  C023  F01A         	movff	gpio_pin_output_low_init@pin+1,gpio_pin_logic_write@pin+1
  2641   0033E6  0E00               	movlw	0
  2642   0033E8  6E1B               	movwf	gpio_pin_logic_write@pin_logic^0,c
  2643   0033EA  EC5C  F013         	call	_gpio_pin_logic_write	;wreg free
  2644   0033EE  6E25               	movwf	gpio_pin_output_low_init@gpio_ret^0,c
  2645   0033F0                     
  2646                           ;MCAL/GPIO/gpio.c: 171:         ret=(Std_ReturnType)0x01;
  2647   0033F0  0E01               	movlw	1
  2648   0033F2  6E26               	movwf	gpio_pin_output_low_init@ret^0,c
  2649   0033F4                     l9773:
  2650                           
  2651                           ;MCAL/GPIO/gpio.c: 174:     return ret;
  2652   0033F4  5026               	movf	gpio_pin_output_low_init@ret^0,w,c
  2653   0033F6  0012               	return		;funcret
  2654   0033F8                     __end_of_gpio_pin_output_low_init:
  2655                           	callstack 0
  2656                           
  2657 ;; *************** function _gpio_pin_logic_write *****************
  2658 ;; Defined at:
  2659 ;;		line 81 in file "MCAL/GPIO/gpio.c"
  2660 ;; Parameters:    Size  Location     Type
  2661 ;;  pin             2   24[COMRAM] PTR struct .
  2662 ;;		 -> ccp1$ccp_pin(1), ccp1(15), seg_2$seven_segment_pins(4), seg_2(5), 
  2663 ;;		 -> seg_1$seven_segment_pins(4), seg_1(5), motor2(3), motor1(3), 
  2664 ;;		 -> led_blue(2), led_red(2), 
  2665 ;;  pin_logic       1   26[COMRAM] enum E2978
  2666 ;; Auto vars:     Size  Location     Type
  2667 ;;  ret             1   32[COMRAM] unsigned char 
  2668 ;; Return value:  Size  Location     Type
  2669 ;;                  1    wreg      unsigned char 
  2670 ;; Registers used:
  2671 ;;		wreg, fsr2l, fsr2h, status,2, status,0, prodl, prodh
  2672 ;; Tracked objects:
  2673 ;;		On entry : 0/0
  2674 ;;		On exit  : 0/0
  2675 ;;		Unchanged: 0/0
  2676 ;; Data sizes:     COMRAM   BANK0   BANK1   BANK2   BANK3   BANK4   BANK5   BANK6   BANK7   BANK8   BANK9  BANK10  BANK1
      +1  BANK12  BANK13  BANK14  BANK15
  2677 ;;      Params:         3       0       0       0       0       0       0       0       0       0       0       0       
      +0       0       0       0       0
  2678 ;;      Locals:         1       0       0       0       0       0       0       0       0       0       0       0       
      +0       0       0       0       0
  2679 ;;      Temps:          5       0       0       0       0       0       0       0       0       0       0       0       
      +0       0       0       0       0
  2680 ;;      Totals:         9       0       0       0       0       0       0       0       0       0       0       0       
      +0       0       0       0       0
  2681 ;;Total ram usage:        9 bytes
  2682 ;; Hardware stack levels used: 1
  2683 ;; Hardware stack levels required when called: 7
  2684 ;; This function calls:
  2685 ;;		Nothing
  2686 ;; This function is called by:
  2687 ;;		_dc_motor_move_right
  2688 ;;		_dc_motor_stop
  2689 ;;		_led_on
  2690 ;;		_led_off
  2691 ;;		_gpio_pin_output_low_init
  2692 ;;		_dc_motor_move_left
  2693 ;;		_keypad_read
  2694 ;;		_lcd_send_command
  2695 ;;		_lcd_send_char_data
  2696 ;;		_lcd_send_nbits
  2697 ;;		_lcd_send_enable
  2698 ;;		_relay_on
  2699 ;;		_relay_off
  2700 ;;		_gpio_pin_output_high_init
  2701 ;; This function uses a non-reentrant model
  2702 ;;
  2703                           
  2704                           	psect	text15
  2705   0026B8                     __ptext15:
  2706                           	callstack 0
  2707   0026B8                     _gpio_pin_logic_write:
  2708                           	callstack 22
  2709   0026B8                     
  2710                           ;MCAL/GPIO/gpio.c: 84:     if(((void*)0)==pin ||(pin->pin)>7 || pin_logic>1){
  2711   0026B8  5019               	movf	gpio_pin_logic_write@pin^0,w,c
  2712   0026BA  101A               	iorwf	(gpio_pin_logic_write@pin+1)^0,w,c
  2713   0026BC  B4D8               	btfsc	status,2,c
  2714   0026BE  EF63  F013         	goto	u8681
  2715   0026C2  EF65  F013         	goto	u8680
  2716   0026C6                     u8681:
  2717   0026C6  EF7E  F013         	goto	l9135
  2718   0026CA                     u8680:
  2719   0026CA  C019  FFD9         	movff	gpio_pin_logic_write@pin,fsr2l
  2720   0026CE  C01A  FFDA         	movff	gpio_pin_logic_write@pin+1,fsr2h
  2721   0026D2  30DF               	rrcf	223,w,c
  2722   0026D4  32E8               	rrcf	wreg,f,c
  2723   0026D6  32E8               	rrcf	wreg,f,c
  2724   0026D8  0B07               	andlw	7
  2725   0026DA  6E1C               	movwf	??_gpio_pin_logic_write^0,c
  2726   0026DC  0E08               	movlw	8
  2727   0026DE  601C               	cpfslt	??_gpio_pin_logic_write^0,c
  2728   0026E0  EF74  F013         	goto	u8691
  2729   0026E4  EF76  F013         	goto	u8690
  2730   0026E8                     u8691:
  2731   0026E8  EF7E  F013         	goto	l9135
  2732   0026EC                     u8690:
  2733   0026EC  0E01               	movlw	1
  2734   0026EE  641B               	cpfsgt	gpio_pin_logic_write@pin_logic^0,c
  2735   0026F0  EF7C  F013         	goto	u8701
  2736   0026F4  EF7E  F013         	goto	u8700
  2737   0026F8                     u8701:
  2738   0026F8  EFDB  F013         	goto	l9143
  2739   0026FC                     u8700:
  2740   0026FC                     l9135:
  2741                           
  2742                           ;MCAL/GPIO/gpio.c: 85:         ret=(Std_ReturnType)0x00;
  2743   0026FC  0E00               	movlw	0
  2744   0026FE  6E21               	movwf	gpio_pin_logic_write@ret^0,c
  2745                           
  2746                           ;MCAL/GPIO/gpio.c: 86:     }
  2747   002700  EFFB  F013         	goto	l9149
  2748   002704                     l9137:
  2749                           
  2750                           ;MCAL/GPIO/gpio.c: 90:                 (*latx[pin->port] &= ~((uint8)1<<pin->pin));
  2751   002704  C019  FFD9         	movff	gpio_pin_logic_write@pin,fsr2l
  2752   002708  C01A  FFDA         	movff	gpio_pin_logic_write@pin+1,fsr2h
  2753   00270C  30DF               	rrcf	223,w,c
  2754   00270E  32E8               	rrcf	wreg,f,c
  2755   002710  32E8               	rrcf	wreg,f,c
  2756   002712  0B07               	andlw	7
  2757   002714  6E1C               	movwf	??_gpio_pin_logic_write^0,c
  2758   002716  0E01               	movlw	1
  2759   002718  6E1D               	movwf	(??_gpio_pin_logic_write+1)^0,c
  2760   00271A  2A1C               	incf	??_gpio_pin_logic_write^0,f,c
  2761   00271C  EF92  F013         	goto	u8714
  2762   002720                     u8715:
  2763   002720  90D8               	bcf	status,0,c
  2764   002722  361D               	rlcf	(??_gpio_pin_logic_write+1)^0,f,c
  2765   002724                     u8714:
  2766   002724  2E1C               	decfsz	??_gpio_pin_logic_write^0,f,c
  2767   002726  EF90  F013         	goto	u8715
  2768   00272A  501D               	movf	(??_gpio_pin_logic_write+1)^0,w,c
  2769   00272C  0AFF               	xorlw	255
  2770   00272E  6E1E               	movwf	(??_gpio_pin_logic_write+2)^0,c
  2771   002730  C019  FFD9         	movff	gpio_pin_logic_write@pin,fsr2l
  2772   002734  C01A  FFDA         	movff	gpio_pin_logic_write@pin+1,fsr2h
  2773   002738  50DF               	movf	223,w,c
  2774   00273A  0B07               	andlw	7
  2775   00273C  0D02               	mullw	2
  2776   00273E  50F3               	movf	243,w,c
  2777   002740  0FC4               	addlw	low _latx
  2778   002742  6ED9               	movwf	fsr2l,c
  2779   002744  6ADA               	clrf	fsr2h,c
  2780   002746  CFDE F01F          	movff	postinc2,??_gpio_pin_logic_write+3
  2781   00274A  CFDD F020          	movff	postdec2,??_gpio_pin_logic_write+4
  2782   00274E  C01F  FFD9         	movff	??_gpio_pin_logic_write+3,fsr2l
  2783   002752  C020  FFDA         	movff	??_gpio_pin_logic_write+4,fsr2h
  2784   002756  501E               	movf	(??_gpio_pin_logic_write+2)^0,w,c
  2785   002758  16DF               	andwf	indf2,f,c
  2786                           
  2787                           ;MCAL/GPIO/gpio.c: 91:                 break;
  2788   00275A  EFF0  F013         	goto	l9145
  2789   00275E                     l9139:
  2790                           
  2791                           ;MCAL/GPIO/gpio.c: 94:                 (*latx[pin->port] |= ((uint8)1<<pin->pin));
  2792   00275E  C019  FFD9         	movff	gpio_pin_logic_write@pin,fsr2l
  2793   002762  C01A  FFDA         	movff	gpio_pin_logic_write@pin+1,fsr2h
  2794   002766  30DF               	rrcf	223,w,c
  2795   002768  32E8               	rrcf	wreg,f,c
  2796   00276A  32E8               	rrcf	wreg,f,c
  2797   00276C  0B07               	andlw	7
  2798   00276E  6E1C               	movwf	??_gpio_pin_logic_write^0,c
  2799   002770  0E01               	movlw	1
  2800   002772  6E1D               	movwf	(??_gpio_pin_logic_write+1)^0,c
  2801   002774  2A1C               	incf	??_gpio_pin_logic_write^0,f,c
  2802   002776  EFBF  F013         	goto	u8724
  2803   00277A                     u8725:
  2804   00277A  90D8               	bcf	status,0,c
  2805   00277C  361D               	rlcf	(??_gpio_pin_logic_write+1)^0,f,c
  2806   00277E                     u8724:
  2807   00277E  2E1C               	decfsz	??_gpio_pin_logic_write^0,f,c
  2808   002780  EFBD  F013         	goto	u8725
  2809   002784  C019  FFD9         	movff	gpio_pin_logic_write@pin,fsr2l
  2810   002788  C01A  FFDA         	movff	gpio_pin_logic_write@pin+1,fsr2h
  2811   00278C  50DF               	movf	223,w,c
  2812   00278E  0B07               	andlw	7
  2813   002790  0D02               	mullw	2
  2814   002792  50F3               	movf	243,w,c
  2815   002794  0FC4               	addlw	low _latx
  2816   002796  6ED9               	movwf	fsr2l,c
  2817   002798  6ADA               	clrf	fsr2h,c
  2818   00279A  CFDE F01E          	movff	postinc2,??_gpio_pin_logic_write+2
  2819   00279E  CFDD F01F          	movff	postdec2,??_gpio_pin_logic_write+3
  2820   0027A2  C01E  FFD9         	movff	??_gpio_pin_logic_write+2,fsr2l
  2821   0027A6  C01F  FFDA         	movff	??_gpio_pin_logic_write+3,fsr2h
  2822   0027AA  501D               	movf	(??_gpio_pin_logic_write+1)^0,w,c
  2823   0027AC  12DF               	iorwf	indf2,f,c
  2824                           
  2825                           ;MCAL/GPIO/gpio.c: 95:                 break;
  2826   0027AE  EFF0  F013         	goto	l9145
  2827   0027B2                     l9141:
  2828                           
  2829                           ;MCAL/GPIO/gpio.c: 99:         }
  2830   0027B2  EFF0  F013         	goto	l9145
  2831   0027B6                     l9143:
  2832   0027B6  501B               	movf	gpio_pin_logic_write@pin_logic^0,w,c
  2833   0027B8  6E1C               	movwf	??_gpio_pin_logic_write^0,c
  2834   0027BA  6A1D               	clrf	(??_gpio_pin_logic_write+1)^0,c
  2835                           
  2836                           ; Switch on 2 bytes has been partitioned into a top level switch of size 1, and 1 sub-sw
      +                          itches
  2837                           ; Switch size 1, requested type "simple"
  2838                           ; Number of cases is 1, Range of values is 0 to 0
  2839                           ; switch strategies available:
  2840                           ; Name         Instructions Cycles
  2841                           ; simple_byte            4     3 (average)
  2842                           ;	Chosen strategy is simple_byte
  2843   0027BC  501D               	movf	(??_gpio_pin_logic_write+1)^0,w,c
  2844   0027BE  0A00               	xorlw	0	; case 0
  2845   0027C0  B4D8               	btfsc	status,2,c
  2846   0027C2  EFE5  F013         	goto	l11147
  2847   0027C6  EFD9  F013         	goto	l9141
  2848   0027CA                     l11147:
  2849                           
  2850                           ; Switch size 1, requested type "simple"
  2851                           ; Number of cases is 2, Range of values is 0 to 1
  2852                           ; switch strategies available:
  2853                           ; Name         Instructions Cycles
  2854                           ; simple_byte            7     4 (average)
  2855                           ;	Chosen strategy is simple_byte
  2856   0027CA  501C               	movf	??_gpio_pin_logic_write^0,w,c
  2857   0027CC  0A00               	xorlw	0	; case 0
  2858   0027CE  B4D8               	btfsc	status,2,c
  2859   0027D0  EF82  F013         	goto	l9137
  2860   0027D4  0A01               	xorlw	1	; case 1
  2861   0027D6  B4D8               	btfsc	status,2,c
  2862   0027D8  EFAF  F013         	goto	l9139
  2863   0027DC  EFD9  F013         	goto	l9141
  2864   0027E0                     l9145:
  2865                           
  2866                           ;MCAL/GPIO/gpio.c: 100:         pin->logic=pin_logic;
  2867   0027E0  C019  FFD9         	movff	gpio_pin_logic_write@pin,fsr2l
  2868   0027E4  C01A  FFDA         	movff	gpio_pin_logic_write@pin+1,fsr2h
  2869   0027E8  B01B               	btfsc	gpio_pin_logic_write@pin_logic^0,0,c
  2870   0027EA  D002               	bra	u8735
  2871   0027EC  9EDF               	bcf	indf2,7,c
  2872   0027EE  D001               	bra	u8736
  2873   0027F0                     u8735:
  2874   0027F0  8EDF               	bsf	indf2,7,c
  2875   0027F2                     u8736:
  2876   0027F2                     
  2877                           ;MCAL/GPIO/gpio.c: 101:         ret=(Std_ReturnType)0x01;
  2878   0027F2  0E01               	movlw	1
  2879   0027F4  6E21               	movwf	gpio_pin_logic_write@ret^0,c
  2880   0027F6                     l9149:
  2881                           
  2882                           ;MCAL/GPIO/gpio.c: 104:     return ret;
  2883   0027F6  5021               	movf	gpio_pin_logic_write@ret^0,w,c
  2884   0027F8  0012               	return		;funcret
  2885   0027FA                     __end_of_gpio_pin_logic_write:
  2886                           	callstack 0
  2887                           
  2888 ;; *************** function _gpio_pin_direction_init *****************
  2889 ;; Defined at:
  2890 ;;		line 23 in file "MCAL/GPIO/gpio.c"
  2891 ;; Parameters:    Size  Location     Type
  2892 ;;  pin             2   24[COMRAM] PTR struct .
  2893 ;;		 -> ccp1$ccp_pin(1), ccp1(15), seg_2$seven_segment_pins(4), seg_2(5), 
  2894 ;;		 -> seg_1$seven_segment_pins(4), seg_1(5), motor2(3), motor1(3), 
  2895 ;;		 -> led_blue(2), led_red(2), SPI_Slave_Mode_GPIO_PIN_Configurations@SS_pin(1), SPI_Slave_Mode_GPIO_PIN_Configuration
      +s@SDO_pin(1), 
  2896 ;;		 -> SPI_Slave_Mode_GPIO_PIN_Configurations@SDI_pin(1), SPI_Slave_Mode_GPIO_PIN_Configurations@SCK_pin(1), SPI_Master
      +_Mode_GPIO_PIN_Configurations@SDO_pin(1), SPI_Master_Mode_GPIO_PIN_Configurations@SDI_pin(1), 
  2897 ;;		 -> SPI_Master_Mode_GPIO_PIN_Configurations@SCK_pin(1), 
  2898 ;;  pin_directio    1   26[COMRAM] enum E2982
  2899 ;; Auto vars:     Size  Location     Type
  2900 ;;  ret             1   32[COMRAM] unsigned char 
  2901 ;; Return value:  Size  Location     Type
  2902 ;;                  1    wreg      unsigned char 
  2903 ;; Registers used:
  2904 ;;		wreg, fsr2l, fsr2h, status,2, status,0, prodl, prodh
  2905 ;; Tracked objects:
  2906 ;;		On entry : 0/0
  2907 ;;		On exit  : 0/0
  2908 ;;		Unchanged: 0/0
  2909 ;; Data sizes:     COMRAM   BANK0   BANK1   BANK2   BANK3   BANK4   BANK5   BANK6   BANK7   BANK8   BANK9  BANK10  BANK1
      +1  BANK12  BANK13  BANK14  BANK15
  2910 ;;      Params:         3       0       0       0       0       0       0       0       0       0       0       0       
      +0       0       0       0       0
  2911 ;;      Locals:         1       0       0       0       0       0       0       0       0       0       0       0       
      +0       0       0       0       0
  2912 ;;      Temps:          5       0       0       0       0       0       0       0       0       0       0       0       
      +0       0       0       0       0
  2913 ;;      Totals:         9       0       0       0       0       0       0       0       0       0       0       0       
      +0       0       0       0       0
  2914 ;;Total ram usage:        9 bytes
  2915 ;; Hardware stack levels used: 1
  2916 ;; Hardware stack levels required when called: 7
  2917 ;; This function calls:
  2918 ;;		Nothing
  2919 ;; This function is called by:
  2920 ;;		_gpio_pin_output_low_init
  2921 ;;		_gpio_pin_output_high_init
  2922 ;;		_gpio_pin_input_init
  2923 ;;		_SPI_Master_Mode_GPIO_PIN_Configurations
  2924 ;;		_SPI_Slave_Mode_GPIO_PIN_Configurations
  2925 ;; This function uses a non-reentrant model
  2926 ;;
  2927                           
  2928                           	psect	text16
  2929   0027FA                     __ptext16:
  2930                           	callstack 0
  2931   0027FA                     _gpio_pin_direction_init:
  2932                           	callstack 20
  2933   0027FA                     
  2934                           ;MCAL/GPIO/gpio.c: 26:     if(((void*)0)==pin || (pin->pin)>7 || pin_direction>1){
  2935   0027FA  5019               	movf	gpio_pin_direction_init@pin^0,w,c
  2936   0027FC  101A               	iorwf	(gpio_pin_direction_init@pin+1)^0,w,c
  2937   0027FE  B4D8               	btfsc	status,2,c
  2938   002800  EF04  F014         	goto	u8771
  2939   002804  EF06  F014         	goto	u8770
  2940   002808                     u8771:
  2941   002808  EF1F  F014         	goto	l9177
  2942   00280C                     u8770:
  2943   00280C  C019  FFD9         	movff	gpio_pin_direction_init@pin,fsr2l
  2944   002810  C01A  FFDA         	movff	gpio_pin_direction_init@pin+1,fsr2h
  2945   002814  30DF               	rrcf	223,w,c
  2946   002816  32E8               	rrcf	wreg,f,c
  2947   002818  32E8               	rrcf	wreg,f,c
  2948   00281A  0B07               	andlw	7
  2949   00281C  6E1C               	movwf	??_gpio_pin_direction_init^0,c
  2950   00281E  0E08               	movlw	8
  2951   002820  601C               	cpfslt	??_gpio_pin_direction_init^0,c
  2952   002822  EF15  F014         	goto	u8781
  2953   002826  EF17  F014         	goto	u8780
  2954   00282A                     u8781:
  2955   00282A  EF1F  F014         	goto	l9177
  2956   00282E                     u8780:
  2957   00282E  0E01               	movlw	1
  2958   002830  641B               	cpfsgt	gpio_pin_direction_init@pin_direction^0,c
  2959   002832  EF1D  F014         	goto	u8791
  2960   002836  EF1F  F014         	goto	u8790
  2961   00283A                     u8791:
  2962   00283A  EF7C  F014         	goto	l9185
  2963   00283E                     u8790:
  2964   00283E                     l9177:
  2965                           
  2966                           ;MCAL/GPIO/gpio.c: 27:         ret=(Std_ReturnType)0x00;
  2967   00283E  0E00               	movlw	0
  2968   002840  6E21               	movwf	gpio_pin_direction_init@ret^0,c
  2969                           
  2970                           ;MCAL/GPIO/gpio.c: 28:     }
  2971   002842  EF9C  F014         	goto	l9191
  2972   002846                     l9179:
  2973                           
  2974                           ;MCAL/GPIO/gpio.c: 32:                 (*trisx[pin->port] &= ~((uint8)1<<pin->pin));
  2975   002846  C019  FFD9         	movff	gpio_pin_direction_init@pin,fsr2l
  2976   00284A  C01A  FFDA         	movff	gpio_pin_direction_init@pin+1,fsr2h
  2977   00284E  30DF               	rrcf	223,w,c
  2978   002850  32E8               	rrcf	wreg,f,c
  2979   002852  32E8               	rrcf	wreg,f,c
  2980   002854  0B07               	andlw	7
  2981   002856  6E1C               	movwf	??_gpio_pin_direction_init^0,c
  2982   002858  0E01               	movlw	1
  2983   00285A  6E1D               	movwf	(??_gpio_pin_direction_init+1)^0,c
  2984   00285C  2A1C               	incf	??_gpio_pin_direction_init^0,f,c
  2985   00285E  EF33  F014         	goto	u8804
  2986   002862                     u8805:
  2987   002862  90D8               	bcf	status,0,c
  2988   002864  361D               	rlcf	(??_gpio_pin_direction_init+1)^0,f,c
  2989   002866                     u8804:
  2990   002866  2E1C               	decfsz	??_gpio_pin_direction_init^0,f,c
  2991   002868  EF31  F014         	goto	u8805
  2992   00286C  501D               	movf	(??_gpio_pin_direction_init+1)^0,w,c
  2993   00286E  0AFF               	xorlw	255
  2994   002870  6E1E               	movwf	(??_gpio_pin_direction_init+2)^0,c
  2995   002872  C019  FFD9         	movff	gpio_pin_direction_init@pin,fsr2l
  2996   002876  C01A  FFDA         	movff	gpio_pin_direction_init@pin+1,fsr2h
  2997   00287A  50DF               	movf	223,w,c
  2998   00287C  0B07               	andlw	7
  2999   00287E  0D02               	mullw	2
  3000   002880  50F3               	movf	243,w,c
  3001   002882  0FCE               	addlw	low _trisx
  3002   002884  6ED9               	movwf	fsr2l,c
  3003   002886  6ADA               	clrf	fsr2h,c
  3004   002888  CFDE F01F          	movff	postinc2,??_gpio_pin_direction_init+3
  3005   00288C  CFDD F020          	movff	postdec2,??_gpio_pin_direction_init+4
  3006   002890  C01F  FFD9         	movff	??_gpio_pin_direction_init+3,fsr2l
  3007   002894  C020  FFDA         	movff	??_gpio_pin_direction_init+4,fsr2h
  3008   002898  501E               	movf	(??_gpio_pin_direction_init+2)^0,w,c
  3009   00289A  16DF               	andwf	indf2,f,c
  3010                           
  3011                           ;MCAL/GPIO/gpio.c: 33:                 break;
  3012   00289C  EF91  F014         	goto	l9187
  3013   0028A0                     l9181:
  3014                           
  3015                           ;MCAL/GPIO/gpio.c: 36:                 (*trisx[pin->port] |= ((uint8)1<<pin->pin));
  3016   0028A0  C019  FFD9         	movff	gpio_pin_direction_init@pin,fsr2l
  3017   0028A4  C01A  FFDA         	movff	gpio_pin_direction_init@pin+1,fsr2h
  3018   0028A8  30DF               	rrcf	223,w,c
  3019   0028AA  32E8               	rrcf	wreg,f,c
  3020   0028AC  32E8               	rrcf	wreg,f,c
  3021   0028AE  0B07               	andlw	7
  3022   0028B0  6E1C               	movwf	??_gpio_pin_direction_init^0,c
  3023   0028B2  0E01               	movlw	1
  3024   0028B4  6E1D               	movwf	(??_gpio_pin_direction_init+1)^0,c
  3025   0028B6  2A1C               	incf	??_gpio_pin_direction_init^0,f,c
  3026   0028B8  EF60  F014         	goto	u8814
  3027   0028BC                     u8815:
  3028   0028BC  90D8               	bcf	status,0,c
  3029   0028BE  361D               	rlcf	(??_gpio_pin_direction_init+1)^0,f,c
  3030   0028C0                     u8814:
  3031   0028C0  2E1C               	decfsz	??_gpio_pin_direction_init^0,f,c
  3032   0028C2  EF5E  F014         	goto	u8815
  3033   0028C6  C019  FFD9         	movff	gpio_pin_direction_init@pin,fsr2l
  3034   0028CA  C01A  FFDA         	movff	gpio_pin_direction_init@pin+1,fsr2h
  3035   0028CE  50DF               	movf	223,w,c
  3036   0028D0  0B07               	andlw	7
  3037   0028D2  0D02               	mullw	2
  3038   0028D4  50F3               	movf	243,w,c
  3039   0028D6  0FCE               	addlw	low _trisx
  3040   0028D8  6ED9               	movwf	fsr2l,c
  3041   0028DA  6ADA               	clrf	fsr2h,c
  3042   0028DC  CFDE F01E          	movff	postinc2,??_gpio_pin_direction_init+2
  3043   0028E0  CFDD F01F          	movff	postdec2,??_gpio_pin_direction_init+3
  3044   0028E4  C01E  FFD9         	movff	??_gpio_pin_direction_init+2,fsr2l
  3045   0028E8  C01F  FFDA         	movff	??_gpio_pin_direction_init+3,fsr2h
  3046   0028EC  501D               	movf	(??_gpio_pin_direction_init+1)^0,w,c
  3047   0028EE  12DF               	iorwf	indf2,f,c
  3048                           
  3049                           ;MCAL/GPIO/gpio.c: 37:                 break;
  3050   0028F0  EF91  F014         	goto	l9187
  3051   0028F4                     l9183:
  3052                           
  3053                           ;MCAL/GPIO/gpio.c: 41:         }
  3054   0028F4  EF91  F014         	goto	l9187
  3055   0028F8                     l9185:
  3056   0028F8  501B               	movf	gpio_pin_direction_init@pin_direction^0,w,c
  3057   0028FA  6E1C               	movwf	??_gpio_pin_direction_init^0,c
  3058   0028FC  6A1D               	clrf	(??_gpio_pin_direction_init+1)^0,c
  3059                           
  3060                           ; Switch on 2 bytes has been partitioned into a top level switch of size 1, and 1 sub-sw
      +                          itches
  3061                           ; Switch size 1, requested type "simple"
  3062                           ; Number of cases is 1, Range of values is 0 to 0
  3063                           ; switch strategies available:
  3064                           ; Name         Instructions Cycles
  3065                           ; simple_byte            4     3 (average)
  3066                           ;	Chosen strategy is simple_byte
  3067   0028FE  501D               	movf	(??_gpio_pin_direction_init+1)^0,w,c
  3068   002900  0A00               	xorlw	0	; case 0
  3069   002902  B4D8               	btfsc	status,2,c
  3070   002904  EF86  F014         	goto	l11149
  3071   002908  EF7A  F014         	goto	l9183
  3072   00290C                     l11149:
  3073                           
  3074                           ; Switch size 1, requested type "simple"
  3075                           ; Number of cases is 2, Range of values is 0 to 1
  3076                           ; switch strategies available:
  3077                           ; Name         Instructions Cycles
  3078                           ; simple_byte            7     4 (average)
  3079                           ;	Chosen strategy is simple_byte
  3080   00290C  501C               	movf	??_gpio_pin_direction_init^0,w,c
  3081   00290E  0A00               	xorlw	0	; case 0
  3082   002910  B4D8               	btfsc	status,2,c
  3083   002912  EF23  F014         	goto	l9179
  3084   002916  0A01               	xorlw	1	; case 1
  3085   002918  B4D8               	btfsc	status,2,c
  3086   00291A  EF50  F014         	goto	l9181
  3087   00291E  EF7A  F014         	goto	l9183
  3088   002922                     l9187:
  3089                           
  3090                           ;MCAL/GPIO/gpio.c: 42:         pin->direction=pin_direction;
  3091   002922  C019  FFD9         	movff	gpio_pin_direction_init@pin,fsr2l
  3092   002926  C01A  FFDA         	movff	gpio_pin_direction_init@pin+1,fsr2h
  3093   00292A  B01B               	btfsc	gpio_pin_direction_init@pin_direction^0,0,c
  3094   00292C  D002               	bra	u8825
  3095   00292E  9CDF               	bcf	indf2,6,c
  3096   002930  D001               	bra	u8826
  3097   002932                     u8825:
  3098   002932  8CDF               	bsf	indf2,6,c
  3099   002934                     u8826:
  3100   002934                     
  3101                           ;MCAL/GPIO/gpio.c: 43:         ret=(Std_ReturnType)0x01;
  3102   002934  0E01               	movlw	1
  3103   002936  6E21               	movwf	gpio_pin_direction_init@ret^0,c
  3104   002938                     l9191:
  3105                           
  3106                           ;MCAL/GPIO/gpio.c: 46:     return ret;
  3107   002938  5021               	movf	gpio_pin_direction_init@ret^0,w,c
  3108   00293A  0012               	return		;funcret
  3109   00293C                     __end_of_gpio_pin_direction_init:
  3110                           	callstack 0
  3111                           
  3112 ;; *************** function _CCP_PWM_Mode_Config *****************
  3113 ;; Defined at:
  3114 ;;		line 269 in file "MCAL/CCP/hal_ccp.c"
  3115 ;; Parameters:    Size  Location     Type
  3116 ;;  _ccp_obj        2   10[BANK1 ] PTR const struct .
  3117 ;;		 -> ccp1(15), 
  3118 ;; Auto vars:     Size  Location     Type
  3119 ;;		None
  3120 ;; Return value:  Size  Location     Type
  3121 ;;                  1    wreg      void 
  3122 ;; Registers used:
  3123 ;;		wreg, fsr2l, fsr2h, status,2, status,0, prodl, prodh, cstack
  3124 ;; Tracked objects:
  3125 ;;		On entry : 0/0
  3126 ;;		On exit  : 0/0
  3127 ;;		Unchanged: 0/0
  3128 ;; Data sizes:     COMRAM   BANK0   BANK1   BANK2   BANK3   BANK4   BANK5   BANK6   BANK7   BANK8   BANK9  BANK10  BANK1
      +1  BANK12  BANK13  BANK14  BANK15
  3129 ;;      Params:         0       0       2       0       0       0       0       0       0       0       0       0       
      +0       0       0       0       0
  3130 ;;      Locals:         0       0       8       0       0       0       0       0       0       0       0       0       
      +0       0       0       0       0
  3131 ;;      Temps:          0       0       2       0       0       0       0       0       0       0       0       0       
      +0       0       0       0       0
  3132 ;;      Totals:         0       0      12       0       0       0       0       0       0       0       0       0       
      +0       0       0       0       0
  3133 ;;Total ram usage:       12 bytes
  3134 ;; Hardware stack levels used: 1
  3135 ;; Hardware stack levels required when called: 8
  3136 ;; This function calls:
  3137 ;;		___fladd
  3138 ;;		___fldiv
  3139 ;;		___flmul
  3140 ;;		___fltol
  3141 ;;		___xxtofl
  3142 ;; This function is called by:
  3143 ;;		_CCP_Init
  3144 ;; This function uses a non-reentrant model
  3145 ;;
  3146                           
  3147                           	psect	text17
  3148   00202C                     __ptext17:
  3149                           	callstack 0
  3150   00202C                     _CCP_PWM_Mode_Config:
  3151                           	callstack 20
  3152   00202C                     
  3153                           ;MCAL/CCP/hal_ccp.c: 271:     PR2 = (uint8)(((float)8000000 / ((float)_ccp_obj->PWM_Freq
      +                          uency * 4.0 * (float)_ccp_obj->timer2_prescaler_value *
  3154   00202C  0E00               	movlw	0
  3155   00202E  6E2B               	movwf	___flmul@a^0,c
  3156   002030  0E00               	movlw	0
  3157   002032  6E2C               	movwf	(___flmul@a+1)^0,c
  3158   002034  0E80               	movlw	128
  3159   002036  6E2D               	movwf	(___flmul@a+2)^0,c
  3160   002038  0E40               	movlw	64
  3161   00203A  6E2E               	movwf	(___flmul@a+3)^0,c
  3162   00203C  0101               	movlb	1	; () banked
  3163   00203E  EE20 F005          	lfsr	2,5
  3164   002042  5138               	movf	CCP_PWM_Mode_Config@_ccp_obj& (0+255),w,b
  3165   002044  26D9               	addwf	fsr2l,f,c
  3166   002046  5139               	movf	(CCP_PWM_Mode_Config@_ccp_obj+1)& (0+255),w,b
  3167   002048  22DA               	addwfc	fsr2h,f,c
  3168   00204A  CFDE F13A          	movff	postinc2,??_CCP_PWM_Mode_Config
  3169   00204E  CFDD F13B          	movff	postdec2,??_CCP_PWM_Mode_Config+1
  3170   002052  C13A  F019         	movff	??_CCP_PWM_Mode_Config,___xxtofl@val
  3171   002056  C13B  F01A         	movff	??_CCP_PWM_Mode_Config+1,___xxtofl@val+1
  3172   00205A  6A1B               	clrf	(___xxtofl@val+2)^0,c
  3173   00205C  6A1C               	clrf	(___xxtofl@val+3)^0,c
  3174   00205E  0E00               	movlw	0
  3175   002060  EC05  F011         	call	___xxtofl
  3176   002064  C019  F027         	movff	?___xxtofl,___flmul@b
  3177   002068  C01A  F028         	movff	?___xxtofl+1,___flmul@b+1
  3178   00206C  C01B  F029         	movff	?___xxtofl+2,___flmul@b+2
  3179   002070  C01C  F02A         	movff	?___xxtofl+3,___flmul@b+3
  3180   002074  EC64  F00A         	call	___flmul	;wreg free
  3181   002078  C027  F13C         	movff	?___flmul,_CCP_PWM_Mode_Config$5875
  3182   00207C  C028  F13D         	movff	?___flmul+1,_CCP_PWM_Mode_Config$5875+1
  3183   002080  C029  F13E         	movff	?___flmul+2,_CCP_PWM_Mode_Config$5875+2
  3184   002084  C02A  F13F         	movff	?___flmul+3,_CCP_PWM_Mode_Config$5875+3
  3185                           
  3186                           ;MCAL/CCP/hal_ccp.c: 271:     PR2 = (uint8)(((float)8000000 / ((float)_ccp_obj->PWM_Freq
      +                          uency * 4.0 * (float)_ccp_obj->timer2_prescaler_value *
  3187   002088  0101               	movlb	1	; () banked
  3188   00208A  EE20 F008          	lfsr	2,8
  3189   00208E  5138               	movf	CCP_PWM_Mode_Config@_ccp_obj& (0+255),w,b
  3190   002090  26D9               	addwf	fsr2l,f,c
  3191   002092  5139               	movf	(CCP_PWM_Mode_Config@_ccp_obj+1)& (0+255),w,b
  3192   002094  22DA               	addwfc	fsr2h,f,c
  3193   002096  50DF               	movf	indf2,w,c
  3194   002098  6F3A               	movwf	??_CCP_PWM_Mode_Config& (0+255),b
  3195   00209A  513A               	movf	??_CCP_PWM_Mode_Config& (0+255),w,b
  3196   00209C  6E19               	movwf	___xxtofl@val^0,c
  3197   00209E  6A1A               	clrf	(___xxtofl@val+1)^0,c
  3198   0020A0  6A1B               	clrf	(___xxtofl@val+2)^0,c
  3199   0020A2  6A1C               	clrf	(___xxtofl@val+3)^0,c
  3200   0020A4  0E00               	movlw	0
  3201   0020A6  EC05  F011         	call	___xxtofl
  3202   0020AA  C019  F02B         	movff	?___xxtofl,___flmul@a
  3203   0020AE  C01A  F02C         	movff	?___xxtofl+1,___flmul@a+1
  3204   0020B2  C01B  F02D         	movff	?___xxtofl+2,___flmul@a+2
  3205   0020B6  C01C  F02E         	movff	?___xxtofl+3,___flmul@a+3
  3206   0020BA  C13C  F027         	movff	_CCP_PWM_Mode_Config$5875,___flmul@b
  3207   0020BE  C13D  F028         	movff	_CCP_PWM_Mode_Config$5875+1,___flmul@b+1
  3208   0020C2  C13E  F029         	movff	_CCP_PWM_Mode_Config$5875+2,___flmul@b+2
  3209   0020C6  C13F  F02A         	movff	_CCP_PWM_Mode_Config$5875+3,___flmul@b+3
  3210   0020CA  EC64  F00A         	call	___flmul	;wreg free
  3211   0020CE  C027  F140         	movff	?___flmul,_CCP_PWM_Mode_Config$5876
  3212   0020D2  C028  F141         	movff	?___flmul+1,_CCP_PWM_Mode_Config$5876+1
  3213   0020D6  C029  F142         	movff	?___flmul+2,_CCP_PWM_Mode_Config$5876+2
  3214   0020DA  C02A  F143         	movff	?___flmul+3,_CCP_PWM_Mode_Config$5876+3
  3215                           
  3216                           ;MCAL/CCP/hal_ccp.c: 271:     PR2 = (uint8)(((float)8000000 / ((float)_ccp_obj->PWM_Freq
      +                          uency * 4.0 * (float)_ccp_obj->timer2_prescaler_value *
  3217   0020DE  0E00               	movlw	0
  3218   0020E0  0100               	movlb	0	; () banked
  3219   0020E2  6FF8               	movwf	___fladd@a& (0+255),b
  3220   0020E4  0E00               	movlw	0
  3221   0020E6  6FF9               	movwf	(___fladd@a+1)& (0+255),b
  3222   0020E8  0E80               	movlw	128
  3223   0020EA  6FFA               	movwf	(___fladd@a+2)& (0+255),b
  3224   0020EC  0EBF               	movlw	191
  3225   0020EE  6FFB               	movwf	(___fladd@a+3)& (0+255),b
  3226   0020F0  0101               	movlb	1	; () banked
  3227   0020F2  EE20 F007          	lfsr	2,7
  3228   0020F6  5138               	movf	CCP_PWM_Mode_Config@_ccp_obj& (0+255),w,b
  3229   0020F8  26D9               	addwf	fsr2l,f,c
  3230   0020FA  5139               	movf	(CCP_PWM_Mode_Config@_ccp_obj+1)& (0+255),w,b
  3231   0020FC  22DA               	addwfc	fsr2h,f,c
  3232   0020FE  50DF               	movf	indf2,w,c
  3233   002100  6F3A               	movwf	??_CCP_PWM_Mode_Config& (0+255),b
  3234   002102  513A               	movf	??_CCP_PWM_Mode_Config& (0+255),w,b
  3235   002104  6E19               	movwf	___xxtofl@val^0,c
  3236   002106  6A1A               	clrf	(___xxtofl@val+1)^0,c
  3237   002108  6A1B               	clrf	(___xxtofl@val+2)^0,c
  3238   00210A  6A1C               	clrf	(___xxtofl@val+3)^0,c
  3239   00210C  0E00               	movlw	0
  3240   00210E  EC05  F011         	call	___xxtofl
  3241   002112  C019  F02B         	movff	?___xxtofl,___flmul@a
  3242   002116  C01A  F02C         	movff	?___xxtofl+1,___flmul@a+1
  3243   00211A  C01B  F02D         	movff	?___xxtofl+2,___flmul@a+2
  3244   00211E  C01C  F02E         	movff	?___xxtofl+3,___flmul@a+3
  3245   002122  C140  F027         	movff	_CCP_PWM_Mode_Config$5876,___flmul@b
  3246   002126  C141  F028         	movff	_CCP_PWM_Mode_Config$5876+1,___flmul@b+1
  3247   00212A  C142  F029         	movff	_CCP_PWM_Mode_Config$5876+2,___flmul@b+2
  3248   00212E  C143  F02A         	movff	_CCP_PWM_Mode_Config$5876+3,___flmul@b+3
  3249   002132  EC64  F00A         	call	___flmul	;wreg free
  3250   002136  C027  F044         	movff	?___flmul,___fldiv@a
  3251   00213A  C028  F045         	movff	?___flmul+1,___fldiv@a+1
  3252   00213E  C029  F046         	movff	?___flmul+2,___fldiv@a+2
  3253   002142  C02A  F047         	movff	?___flmul+3,___fldiv@a+3
  3254   002146  0E00               	movlw	0
  3255   002148  6E40               	movwf	___fldiv@b^0,c
  3256   00214A  0E24               	movlw	36
  3257   00214C  6E41               	movwf	(___fldiv@b+1)^0,c
  3258   00214E  0EF4               	movlw	244
  3259   002150  6E42               	movwf	(___fldiv@b+2)^0,c
  3260   002152  0E4A               	movlw	74
  3261   002154  6E43               	movwf	(___fldiv@b+3)^0,c
  3262   002156  EC48  F00E         	call	___fldiv	;wreg free
  3263   00215A  C040  F0F4         	movff	?___fldiv,___fladd@b
  3264   00215E  C041  F0F5         	movff	?___fldiv+1,___fladd@b+1
  3265   002162  C042  F0F6         	movff	?___fldiv+2,___fladd@b+2
  3266   002166  C043  F0F7         	movff	?___fldiv+3,___fladd@b+3
  3267   00216A  EC03  F008         	call	___fladd	;wreg free
  3268   00216E  C0F4  F12E         	movff	?___fladd,___fltol@f1
  3269   002172  C0F5  F12F         	movff	?___fladd+1,___fltol@f1+1
  3270   002176  C0F6  F130         	movff	?___fladd+2,___fltol@f1+2
  3271   00217A  C0F7  F131         	movff	?___fladd+3,___fltol@f1+3
  3272   00217E  EC08  F017         	call	___fltol	;wreg free
  3273   002182  0101               	movlb	1	; () banked
  3274   002184  512E               	movf	?___fltol& (0+255),w,b
  3275   002186  6ECB               	movwf	203,c	;volatile
  3276   002188                     
  3277                           ; BSR set to: 1
  3278                           ;MCAL/CCP/hal_ccp.c: 274:     if(CCP1_INST == _ccp_obj->ccp_inst){
  3279   002188  C138  FFD9         	movff	CCP_PWM_Mode_Config@_ccp_obj,fsr2l
  3280   00218C  C139  FFDA         	movff	CCP_PWM_Mode_Config@_ccp_obj+1,fsr2h
  3281   002190  50DF               	movf	indf2,w,c
  3282   002192  A4D8               	btfss	status,2,c
  3283   002194  EFCE  F010         	goto	u9881
  3284   002198  EFD0  F010         	goto	u9880
  3285   00219C                     u9881:
  3286   00219C  EFE5  F010         	goto	l9899
  3287   0021A0                     u9880:
  3288   0021A0                     
  3289                           ; BSR set to: 1
  3290                           ;MCAL/CCP/hal_ccp.c: 275:         if(((uint8)0x0C) == _ccp_obj->ccp_mode_variant){
  3291   0021A0  EE20 F002          	lfsr	2,2
  3292   0021A4  5138               	movf	CCP_PWM_Mode_Config@_ccp_obj& (0+255),w,b
  3293   0021A6  26D9               	addwf	fsr2l,f,c
  3294   0021A8  5139               	movf	(CCP_PWM_Mode_Config@_ccp_obj+1)& (0+255),w,b
  3295   0021AA  22DA               	addwfc	fsr2h,f,c
  3296   0021AC  0E0C               	movlw	12
  3297   0021AE  18DE               	xorwf	postinc2,w,c
  3298   0021B0  A4D8               	btfss	status,2,c
  3299   0021B2  EFDD  F010         	goto	u9891
  3300   0021B6  EFDF  F010         	goto	u9890
  3301   0021BA                     u9891:
  3302   0021BA  EF04  F011         	goto	l526
  3303   0021BE                     u9890:
  3304   0021BE                     
  3305                           ; BSR set to: 1
  3306                           ;MCAL/CCP/hal_ccp.c: 276:             (CCP1CONbits.CCP1M = ((uint8)0x0C));
  3307   0021BE  50BD               	movf	189,w,c	;volatile
  3308   0021C0  0BF0               	andlw	-16
  3309   0021C2  090C               	iorlw	12
  3310   0021C4  6EBD               	movwf	189,c	;volatile
  3311                           
  3312                           ;MCAL/CCP/hal_ccp.c: 277:         }
  3313   0021C6  EF04  F011         	goto	l526
  3314   0021CA                     l9899:
  3315                           
  3316                           ; BSR set to: 1
  3317   0021CA  C138  FFD9         	movff	CCP_PWM_Mode_Config@_ccp_obj,fsr2l
  3318   0021CE  C139  FFDA         	movff	CCP_PWM_Mode_Config@_ccp_obj+1,fsr2h
  3319   0021D2  04DE               	decf	postinc2,w,c
  3320   0021D4  A4D8               	btfss	status,2,c
  3321   0021D6  EFEF  F010         	goto	u9901
  3322   0021DA  EFF1  F010         	goto	u9900
  3323   0021DE                     u9901:
  3324   0021DE  EF04  F011         	goto	l526
  3325   0021E2                     u9900:
  3326   0021E2                     
  3327                           ; BSR set to: 1
  3328                           ;MCAL/CCP/hal_ccp.c: 281:         if(((uint8)0x0C) == _ccp_obj->ccp_mode_variant){
  3329   0021E2  EE20 F002          	lfsr	2,2
  3330   0021E6  5138               	movf	CCP_PWM_Mode_Config@_ccp_obj& (0+255),w,b
  3331   0021E8  26D9               	addwf	fsr2l,f,c
  3332   0021EA  5139               	movf	(CCP_PWM_Mode_Config@_ccp_obj+1)& (0+255),w,b
  3333   0021EC  22DA               	addwfc	fsr2h,f,c
  3334   0021EE  0E0C               	movlw	12
  3335   0021F0  18DE               	xorwf	postinc2,w,c
  3336   0021F2  A4D8               	btfss	status,2,c
  3337   0021F4  EFFE  F010         	goto	u9911
  3338   0021F8  EF00  F011         	goto	u9910
  3339   0021FC                     u9911:
  3340   0021FC  EF04  F011         	goto	l526
  3341   002200                     u9910:
  3342   002200                     
  3343                           ; BSR set to: 1
  3344                           ;MCAL/CCP/hal_ccp.c: 282:             (CCP2CONbits.CCP2M = ((uint8)0x0C));
  3345   002200  50BA               	movf	186,w,c	;volatile
  3346   002202  0BF0               	andlw	-16
  3347   002204  090C               	iorlw	12
  3348   002206  6EBA               	movwf	186,c	;volatile
  3349   002208                     l526:
  3350                           
  3351                           ; BSR set to: 1
  3352   002208  0012               	return		;funcret
  3353   00220A                     __end_of_CCP_PWM_Mode_Config:
  3354                           	callstack 0
  3355                           
  3356 ;; *************** function _CCP_Interrupt_Config *****************
  3357 ;; Defined at:
  3358 ;;		line 290 in file "MCAL/CCP/hal_ccp.c"
  3359 ;; Parameters:    Size  Location     Type
  3360 ;;  _ccp_obj        2   24[COMRAM] PTR const struct .
  3361 ;;		 -> ccp1(15), 
  3362 ;; Auto vars:     Size  Location     Type
  3363 ;;		None
  3364 ;; Return value:  Size  Location     Type
  3365 ;;                  1    wreg      void 
  3366 ;; Registers used:
  3367 ;;		wreg, fsr2l, fsr2h, status,2, status,0
  3368 ;; Tracked objects:
  3369 ;;		On entry : 0/0
  3370 ;;		On exit  : 0/0
  3371 ;;		Unchanged: 0/0
  3372 ;; Data sizes:     COMRAM   BANK0   BANK1   BANK2   BANK3   BANK4   BANK5   BANK6   BANK7   BANK8   BANK9  BANK10  BANK1
      +1  BANK12  BANK13  BANK14  BANK15
  3373 ;;      Params:         2       0       0       0       0       0       0       0       0       0       0       0       
      +0       0       0       0       0
  3374 ;;      Locals:         0       0       0       0       0       0       0       0       0       0       0       0       
      +0       0       0       0       0
  3375 ;;      Temps:          0       0       0       0       0       0       0       0       0       0       0       0       
      +0       0       0       0       0
  3376 ;;      Totals:         2       0       0       0       0       0       0       0       0       0       0       0       
      +0       0       0       0       0
  3377 ;;Total ram usage:        2 bytes
  3378 ;; Hardware stack levels used: 1
  3379 ;; Hardware stack levels required when called: 7
  3380 ;; This function calls:
  3381 ;;		Nothing
  3382 ;; This function is called by:
  3383 ;;		_CCP_Init
  3384 ;; This function uses a non-reentrant model
  3385 ;;
  3386                           
  3387                           	psect	text18
  3388   00375C                     __ptext18:
  3389                           	callstack 0
  3390   00375C                     _CCP_Interrupt_Config:
  3391                           	callstack 21
  3392   00375C                     
  3393                           ;MCAL/CCP/hal_ccp.c: 293:     (PIE1bits.CCP1IE = 1);
  3394   00375C  849D               	bsf	157,2,c	;volatile
  3395                           
  3396                           ;MCAL/CCP/hal_ccp.c: 294:     (PIR1bits.CCP1IF = 0);
  3397   00375E  949E               	bcf	158,2,c	;volatile
  3398   003760                     
  3399                           ;MCAL/CCP/hal_ccp.c: 295:     CCP1_InterruptHandler = _ccp_obj->CCP1_InterruptHandler;
  3400   003760  EE20 F009          	lfsr	2,9
  3401   003764  5019               	movf	CCP_Interrupt_Config@_ccp_obj^0,w,c
  3402   003766  26D9               	addwf	fsr2l,f,c
  3403   003768  501A               	movf	(CCP_Interrupt_Config@_ccp_obj+1)^0,w,c
  3404   00376A  22DA               	addwfc	fsr2h,f,c
  3405   00376C  CFDE F0BC          	movff	postinc2,_CCP1_InterruptHandler
  3406   003770  CFDD F0BD          	movff	postdec2,_CCP1_InterruptHandler+1
  3407   003774                     
  3408                           ;MCAL/CCP/hal_ccp.c: 311:     (INTCONbits.GIE=1);
  3409   003774  8EF2               	bsf	242,7,c	;volatile
  3410   003776                     
  3411                           ;MCAL/CCP/hal_ccp.c: 312:     (INTCONbits.PEIE=1);
  3412   003776  8CF2               	bsf	242,6,c	;volatile
  3413   003778                     
  3414                           ;MCAL/CCP/hal_ccp.c: 318:     (PIE2bits.CCP2IE = 1);
  3415   003778  80A0               	bsf	160,0,c	;volatile
  3416   00377A                     
  3417                           ;MCAL/CCP/hal_ccp.c: 319:     (PIR2bits.CCP2IF = 0);
  3418   00377A  90A1               	bcf	161,0,c	;volatile
  3419                           
  3420                           ;MCAL/CCP/hal_ccp.c: 320:     CCP2_InterruptHandler = _ccp_obj->CCP2_InterruptHandler;
  3421   00377C  EE20 F00C          	lfsr	2,12
  3422   003780  5019               	movf	CCP_Interrupt_Config@_ccp_obj^0,w,c
  3423   003782  26D9               	addwf	fsr2l,f,c
  3424   003784  501A               	movf	(CCP_Interrupt_Config@_ccp_obj+1)^0,w,c
  3425   003786  22DA               	addwfc	fsr2h,f,c
  3426   003788  CFDE F0BA          	movff	postinc2,_CCP2_InterruptHandler
  3427   00378C  CFDD F0BB          	movff	postdec2,_CCP2_InterruptHandler+1
  3428   003790                     
  3429                           ;MCAL/CCP/hal_ccp.c: 336:     (INTCONbits.GIE=1);
  3430   003790  8EF2               	bsf	242,7,c	;volatile
  3431   003792                     
  3432                           ;MCAL/CCP/hal_ccp.c: 337:     (INTCONbits.PEIE=1);
  3433   003792  8CF2               	bsf	242,6,c	;volatile
  3434   003794  0012               	return		;funcret
  3435   003796                     __end_of_CCP_Interrupt_Config:
  3436                           	callstack 0
  3437                           
  3438 ;; *************** function _CCP_Compare_Mode_Config *****************
  3439 ;; Defined at:
  3440 ;;		line 392 in file "MCAL/CCP/hal_ccp.c"
  3441 ;; Parameters:    Size  Location     Type
  3442 ;;  _ccp_obj        2   27[COMRAM] PTR const struct .
  3443 ;;		 -> ccp1(15), 
  3444 ;; Auto vars:     Size  Location     Type
  3445 ;;  ret             1   31[COMRAM] unsigned char 
  3446 ;; Return value:  Size  Location     Type
  3447 ;;                  1    wreg      unsigned char 
  3448 ;; Registers used:
  3449 ;;		wreg, fsr2l, fsr2h, status,2, status,0, cstack
  3450 ;; Tracked objects:
  3451 ;;		On entry : 0/0
  3452 ;;		On exit  : 0/0
  3453 ;;		Unchanged: 0/0
  3454 ;; Data sizes:     COMRAM   BANK0   BANK1   BANK2   BANK3   BANK4   BANK5   BANK6   BANK7   BANK8   BANK9  BANK10  BANK1
      +1  BANK12  BANK13  BANK14  BANK15
  3455 ;;      Params:         2       0       0       0       0       0       0       0       0       0       0       0       
      +0       0       0       0       0
  3456 ;;      Locals:         1       0       0       0       0       0       0       0       0       0       0       0       
      +0       0       0       0       0
  3457 ;;      Temps:          2       0       0       0       0       0       0       0       0       0       0       0       
      +0       0       0       0       0
  3458 ;;      Totals:         5       0       0       0       0       0       0       0       0       0       0       0       
      +0       0       0       0       0
  3459 ;;Total ram usage:        5 bytes
  3460 ;; Hardware stack levels used: 1
  3461 ;; Hardware stack levels required when called: 8
  3462 ;; This function calls:
  3463 ;;		_CCP_Mode_Timer_Select
  3464 ;; This function is called by:
  3465 ;;		_CCP_Init
  3466 ;; This function uses a non-reentrant model
  3467 ;;
  3468                           
  3469                           	psect	text19
  3470   002550                     __ptext19:
  3471                           	callstack 0
  3472   002550                     _CCP_Compare_Mode_Config:
  3473                           	callstack 20
  3474   002550                     
  3475                           ;MCAL/CCP/hal_ccp.c: 393:     Std_ReturnType ret = (Std_ReturnType)0x01;
  3476   002550  0E01               	movlw	1
  3477   002552  6E20               	movwf	CCP_Compare_Mode_Config@ret^0,c
  3478   002554                     
  3479                           ;MCAL/CCP/hal_ccp.c: 395:     if(CCP1_INST == _ccp_obj->ccp_inst){
  3480   002554  C01C  FFD9         	movff	CCP_Compare_Mode_Config@_ccp_obj,fsr2l
  3481   002558  C01D  FFDA         	movff	CCP_Compare_Mode_Config@_ccp_obj+1,fsr2h
  3482   00255C  50DF               	movf	indf2,w,c
  3483   00255E  A4D8               	btfss	status,2,c
  3484   002560  EFB4  F012         	goto	u9861
  3485   002564  EFB6  F012         	goto	u9860
  3486   002568                     u9861:
  3487   002568  EF01  F013         	goto	l9859
  3488   00256C                     u9860:
  3489   00256C  EFDA  F012         	goto	l9857
  3490   002570                     l9845:
  3491   002570  50BD               	movf	189,w,c	;volatile
  3492   002572  0BF0               	andlw	-16
  3493   002574  0908               	iorlw	8
  3494   002576  6EBD               	movwf	189,c	;volatile
  3495   002578  EF54  F013         	goto	l9877
  3496   00257C                     l9847:
  3497   00257C  50BD               	movf	189,w,c	;volatile
  3498   00257E  0BF0               	andlw	-16
  3499   002580  0909               	iorlw	9
  3500   002582  6EBD               	movwf	189,c	;volatile
  3501   002584  EF54  F013         	goto	l9877
  3502   002588                     l9849:
  3503   002588  50BD               	movf	189,w,c	;volatile
  3504   00258A  0BF0               	andlw	-16
  3505   00258C  0902               	iorlw	2
  3506   00258E  6EBD               	movwf	189,c	;volatile
  3507   002590  EF54  F013         	goto	l9877
  3508   002594                     l9851:
  3509   002594  50BD               	movf	189,w,c	;volatile
  3510   002596  0BF0               	andlw	-16
  3511   002598  090A               	iorlw	10
  3512   00259A  6EBD               	movwf	189,c	;volatile
  3513   00259C  EF54  F013         	goto	l9877
  3514   0025A0                     l9853:
  3515   0025A0  50BD               	movf	189,w,c	;volatile
  3516   0025A2  0BF0               	andlw	-16
  3517   0025A4  090B               	iorlw	11
  3518   0025A6  6EBD               	movwf	189,c	;volatile
  3519   0025A8  EF54  F013         	goto	l9877
  3520   0025AC                     l9855:
  3521   0025AC  0E00               	movlw	0
  3522   0025AE  6E20               	movwf	CCP_Compare_Mode_Config@ret^0,c
  3523                           
  3524                           ;MCAL/CCP/hal_ccp.c: 404:         }
  3525   0025B0  EF54  F013         	goto	l9877
  3526   0025B4                     l9857:
  3527   0025B4  EE20 F002          	lfsr	2,2
  3528   0025B8  501C               	movf	CCP_Compare_Mode_Config@_ccp_obj^0,w,c
  3529   0025BA  26D9               	addwf	fsr2l,f,c
  3530   0025BC  501D               	movf	(CCP_Compare_Mode_Config@_ccp_obj+1)^0,w,c
  3531   0025BE  22DA               	addwfc	fsr2h,f,c
  3532   0025C0  50DF               	movf	indf2,w,c
  3533   0025C2  6E1E               	movwf	??_CCP_Compare_Mode_Config^0,c
  3534   0025C4  6A1F               	clrf	(??_CCP_Compare_Mode_Config+1)^0,c
  3535                           
  3536                           ; Switch on 2 bytes has been partitioned into a top level switch of size 1, and 1 sub-sw
      +                          itches
  3537                           ; Switch size 1, requested type "simple"
  3538                           ; Number of cases is 1, Range of values is 0 to 0
  3539                           ; switch strategies available:
  3540                           ; Name         Instructions Cycles
  3541                           ; simple_byte            4     3 (average)
  3542                           ;	Chosen strategy is simple_byte
  3543   0025C6  501F               	movf	(??_CCP_Compare_Mode_Config+1)^0,w,c
  3544   0025C8  0A00               	xorlw	0	; case 0
  3545   0025CA  B4D8               	btfsc	status,2,c
  3546   0025CC  EFEA  F012         	goto	l11151
  3547   0025D0  EFD6  F012         	goto	l9855
  3548   0025D4                     l11151:
  3549                           
  3550                           ; Switch size 1, requested type "simple"
  3551                           ; Number of cases is 5, Range of values is 2 to 11
  3552                           ; switch strategies available:
  3553                           ; Name         Instructions Cycles
  3554                           ; simple_byte           16     9 (average)
  3555                           ;	Chosen strategy is simple_byte
  3556   0025D4  501E               	movf	??_CCP_Compare_Mode_Config^0,w,c
  3557   0025D6  0A02               	xorlw	2	; case 2
  3558   0025D8  B4D8               	btfsc	status,2,c
  3559   0025DA  EFC4  F012         	goto	l9849
  3560   0025DE  0A0A               	xorlw	10	; case 8
  3561   0025E0  B4D8               	btfsc	status,2,c
  3562   0025E2  EFB8  F012         	goto	l9845
  3563   0025E6  0A01               	xorlw	1	; case 9
  3564   0025E8  B4D8               	btfsc	status,2,c
  3565   0025EA  EFBE  F012         	goto	l9847
  3566   0025EE  0A03               	xorlw	3	; case 10
  3567   0025F0  B4D8               	btfsc	status,2,c
  3568   0025F2  EFCA  F012         	goto	l9851
  3569   0025F6  0A01               	xorlw	1	; case 11
  3570   0025F8  B4D8               	btfsc	status,2,c
  3571   0025FA  EFD0  F012         	goto	l9853
  3572   0025FE  EFD6  F012         	goto	l9855
  3573   002602                     l9859:
  3574   002602  C01C  FFD9         	movff	CCP_Compare_Mode_Config@_ccp_obj,fsr2l
  3575   002606  C01D  FFDA         	movff	CCP_Compare_Mode_Config@_ccp_obj+1,fsr2h
  3576   00260A  04DE               	decf	postinc2,w,c
  3577   00260C  A4D8               	btfss	status,2,c
  3578   00260E  EF0B  F013         	goto	u9871
  3579   002612  EF0D  F013         	goto	u9870
  3580   002616                     u9871:
  3581   002616  EF54  F013         	goto	l9877
  3582   00261A                     u9870:
  3583   00261A  EF2D  F013         	goto	l9875
  3584   00261E                     l9863:
  3585   00261E  50BA               	movf	186,w,c	;volatile
  3586   002620  0BF0               	andlw	-16
  3587   002622  0908               	iorlw	8
  3588   002624  6EBA               	movwf	186,c	;volatile
  3589   002626  EF54  F013         	goto	l9877
  3590   00262A                     l9865:
  3591   00262A  50BA               	movf	186,w,c	;volatile
  3592   00262C  0BF0               	andlw	-16
  3593   00262E  0909               	iorlw	9
  3594   002630  6EBA               	movwf	186,c	;volatile
  3595   002632  EF54  F013         	goto	l9877
  3596   002636                     l9867:
  3597   002636  50BA               	movf	186,w,c	;volatile
  3598   002638  0BF0               	andlw	-16
  3599   00263A  0902               	iorlw	2
  3600   00263C  6EBA               	movwf	186,c	;volatile
  3601   00263E  EF54  F013         	goto	l9877
  3602   002642                     l9869:
  3603   002642  50BA               	movf	186,w,c	;volatile
  3604   002644  0BF0               	andlw	-16
  3605   002646  090A               	iorlw	10
  3606   002648  6EBA               	movwf	186,c	;volatile
  3607   00264A  EF54  F013         	goto	l9877
  3608   00264E                     l9871:
  3609   00264E  50BA               	movf	186,w,c	;volatile
  3610   002650  0BF0               	andlw	-16
  3611   002652  090B               	iorlw	11
  3612   002654  6EBA               	movwf	186,c	;volatile
  3613   002656  EF54  F013         	goto	l9877
  3614   00265A                     l9875:
  3615   00265A  EE20 F002          	lfsr	2,2
  3616   00265E  501C               	movf	CCP_Compare_Mode_Config@_ccp_obj^0,w,c
  3617   002660  26D9               	addwf	fsr2l,f,c
  3618   002662  501D               	movf	(CCP_Compare_Mode_Config@_ccp_obj+1)^0,w,c
  3619   002664  22DA               	addwfc	fsr2h,f,c
  3620   002666  50DF               	movf	indf2,w,c
  3621   002668  6E1E               	movwf	??_CCP_Compare_Mode_Config^0,c
  3622   00266A  6A1F               	clrf	(??_CCP_Compare_Mode_Config+1)^0,c
  3623                           
  3624                           ; Switch on 2 bytes has been partitioned into a top level switch of size 1, and 1 sub-sw
      +                          itches
  3625                           ; Switch size 1, requested type "simple"
  3626                           ; Number of cases is 1, Range of values is 0 to 0
  3627                           ; switch strategies available:
  3628                           ; Name         Instructions Cycles
  3629                           ; simple_byte            4     3 (average)
  3630                           ;	Chosen strategy is simple_byte
  3631   00266C  501F               	movf	(??_CCP_Compare_Mode_Config+1)^0,w,c
  3632   00266E  0A00               	xorlw	0	; case 0
  3633   002670  B4D8               	btfsc	status,2,c
  3634   002672  EF3D  F013         	goto	l11153
  3635   002676  EFD6  F012         	goto	l9855
  3636   00267A                     l11153:
  3637                           
  3638                           ; Switch size 1, requested type "simple"
  3639                           ; Number of cases is 5, Range of values is 2 to 11
  3640                           ; switch strategies available:
  3641                           ; Name         Instructions Cycles
  3642                           ; simple_byte           16     9 (average)
  3643                           ;	Chosen strategy is simple_byte
  3644   00267A  501E               	movf	??_CCP_Compare_Mode_Config^0,w,c
  3645   00267C  0A02               	xorlw	2	; case 2
  3646   00267E  B4D8               	btfsc	status,2,c
  3647   002680  EF1B  F013         	goto	l9867
  3648   002684  0A0A               	xorlw	10	; case 8
  3649   002686  B4D8               	btfsc	status,2,c
  3650   002688  EF0F  F013         	goto	l9863
  3651   00268C  0A01               	xorlw	1	; case 9
  3652   00268E  B4D8               	btfsc	status,2,c
  3653   002690  EF15  F013         	goto	l9865
  3654   002694  0A03               	xorlw	3	; case 10
  3655   002696  B4D8               	btfsc	status,2,c
  3656   002698  EF21  F013         	goto	l9869
  3657   00269C  0A01               	xorlw	1	; case 11
  3658   00269E  B4D8               	btfsc	status,2,c
  3659   0026A0  EF27  F013         	goto	l9871
  3660   0026A4  EFD6  F012         	goto	l9855
  3661   0026A8                     l9877:
  3662                           
  3663                           ;MCAL/CCP/hal_ccp.c: 419:     CCP_Mode_Timer_Select(_ccp_obj);
  3664   0026A8  C01C  F019         	movff	CCP_Compare_Mode_Config@_ccp_obj,CCP_Mode_Timer_Select@_ccp_obj
  3665   0026AC  C01D  F01A         	movff	CCP_Compare_Mode_Config@_ccp_obj+1,CCP_Mode_Timer_Select@_ccp_obj+1
  3666   0026B0  EC8E  F019         	call	_CCP_Mode_Timer_Select	;wreg free
  3667   0026B4                     
  3668                           ;MCAL/CCP/hal_ccp.c: 421:     return ret;
  3669   0026B4  5020               	movf	CCP_Compare_Mode_Config@ret^0,w,c
  3670   0026B6  0012               	return		;funcret
  3671   0026B8                     __end_of_CCP_Compare_Mode_Config:
  3672                           	callstack 0
  3673                           
  3674 ;; *************** function _CCP_Capture_Mode_Config *****************
  3675 ;; Defined at:
  3676 ;;		line 362 in file "MCAL/CCP/hal_ccp.c"
  3677 ;; Parameters:    Size  Location     Type
  3678 ;;  _ccp_obj        2   27[COMRAM] PTR const struct .
  3679 ;;		 -> ccp1(15), 
  3680 ;; Auto vars:     Size  Location     Type
  3681 ;;  ret             1   31[COMRAM] unsigned char 
  3682 ;; Return value:  Size  Location     Type
  3683 ;;                  1    wreg      unsigned char 
  3684 ;; Registers used:
  3685 ;;		wreg, fsr2l, fsr2h, status,2, status,0, cstack
  3686 ;; Tracked objects:
  3687 ;;		On entry : 0/0
  3688 ;;		On exit  : 0/0
  3689 ;;		Unchanged: 0/0
  3690 ;; Data sizes:     COMRAM   BANK0   BANK1   BANK2   BANK3   BANK4   BANK5   BANK6   BANK7   BANK8   BANK9  BANK10  BANK1
      +1  BANK12  BANK13  BANK14  BANK15
  3691 ;;      Params:         2       0       0       0       0       0       0       0       0       0       0       0       
      +0       0       0       0       0
  3692 ;;      Locals:         1       0       0       0       0       0       0       0       0       0       0       0       
      +0       0       0       0       0
  3693 ;;      Temps:          2       0       0       0       0       0       0       0       0       0       0       0       
      +0       0       0       0       0
  3694 ;;      Totals:         5       0       0       0       0       0       0       0       0       0       0       0       
      +0       0       0       0       0
  3695 ;;Total ram usage:        5 bytes
  3696 ;; Hardware stack levels used: 1
  3697 ;; Hardware stack levels required when called: 8
  3698 ;; This function calls:
  3699 ;;		_CCP_Mode_Timer_Select
  3700 ;; This function is called by:
  3701 ;;		_CCP_Init
  3702 ;; This function uses a non-reentrant model
  3703 ;;
  3704                           
  3705                           	psect	text20
  3706   00293C                     __ptext20:
  3707                           	callstack 0
  3708   00293C                     _CCP_Capture_Mode_Config:
  3709                           	callstack 20
  3710   00293C                     
  3711                           ;MCAL/CCP/hal_ccp.c: 363:     Std_ReturnType ret = (Std_ReturnType)0x01;
  3712   00293C  0E01               	movlw	1
  3713   00293E  6E20               	movwf	CCP_Capture_Mode_Config@ret^0,c
  3714   002940                     
  3715                           ;MCAL/CCP/hal_ccp.c: 365:     if(CCP1_INST == _ccp_obj->ccp_inst){
  3716   002940  C01C  FFD9         	movff	CCP_Capture_Mode_Config@_ccp_obj,fsr2l
  3717   002944  C01D  FFDA         	movff	CCP_Capture_Mode_Config@_ccp_obj+1,fsr2h
  3718   002948  50DF               	movf	indf2,w,c
  3719   00294A  A4D8               	btfss	status,2,c
  3720   00294C  EFAA  F014         	goto	u9841
  3721   002950  EFAC  F014         	goto	u9840
  3722   002954                     u9841:
  3723   002954  EFED  F014         	goto	l9809
  3724   002958                     u9840:
  3725   002958  EFCA  F014         	goto	l9807
  3726   00295C                     l9797:
  3727   00295C  50BD               	movf	189,w,c	;volatile
  3728   00295E  0BF0               	andlw	-16
  3729   002960  0904               	iorlw	4
  3730   002962  6EBD               	movwf	189,c	;volatile
  3731   002964  EF36  F015         	goto	l9825
  3732   002968                     l9799:
  3733   002968  50BD               	movf	189,w,c	;volatile
  3734   00296A  0BF0               	andlw	-16
  3735   00296C  0905               	iorlw	5
  3736   00296E  6EBD               	movwf	189,c	;volatile
  3737   002970  EF36  F015         	goto	l9825
  3738   002974                     l9801:
  3739   002974  50BD               	movf	189,w,c	;volatile
  3740   002976  0BF0               	andlw	-16
  3741   002978  0906               	iorlw	6
  3742   00297A  6EBD               	movwf	189,c	;volatile
  3743   00297C  EF36  F015         	goto	l9825
  3744   002980                     l9803:
  3745   002980  50BD               	movf	189,w,c	;volatile
  3746   002982  0BF0               	andlw	-16
  3747   002984  0907               	iorlw	7
  3748   002986  6EBD               	movwf	189,c	;volatile
  3749   002988  EF36  F015         	goto	l9825
  3750   00298C                     l9805:
  3751   00298C  0E00               	movlw	0
  3752   00298E  6E20               	movwf	CCP_Capture_Mode_Config@ret^0,c
  3753                           
  3754                           ;MCAL/CCP/hal_ccp.c: 373:         }
  3755   002990  EF36  F015         	goto	l9825
  3756   002994                     l9807:
  3757   002994  EE20 F002          	lfsr	2,2
  3758   002998  501C               	movf	CCP_Capture_Mode_Config@_ccp_obj^0,w,c
  3759   00299A  26D9               	addwf	fsr2l,f,c
  3760   00299C  501D               	movf	(CCP_Capture_Mode_Config@_ccp_obj+1)^0,w,c
  3761   00299E  22DA               	addwfc	fsr2h,f,c
  3762   0029A0  50DF               	movf	indf2,w,c
  3763   0029A2  6E1E               	movwf	??_CCP_Capture_Mode_Config^0,c
  3764   0029A4  6A1F               	clrf	(??_CCP_Capture_Mode_Config+1)^0,c
  3765                           
  3766                           ; Switch on 2 bytes has been partitioned into a top level switch of size 1, and 1 sub-sw
      +                          itches
  3767                           ; Switch size 1, requested type "simple"
  3768                           ; Number of cases is 1, Range of values is 0 to 0
  3769                           ; switch strategies available:
  3770                           ; Name         Instructions Cycles
  3771                           ; simple_byte            4     3 (average)
  3772                           ;	Chosen strategy is simple_byte
  3773   0029A6  501F               	movf	(??_CCP_Capture_Mode_Config+1)^0,w,c
  3774   0029A8  0A00               	xorlw	0	; case 0
  3775   0029AA  B4D8               	btfsc	status,2,c
  3776   0029AC  EFDA  F014         	goto	l11155
  3777   0029B0  EFC6  F014         	goto	l9805
  3778   0029B4                     l11155:
  3779                           
  3780                           ; Switch size 1, requested type "simple"
  3781                           ; Number of cases is 4, Range of values is 4 to 7
  3782                           ; switch strategies available:
  3783                           ; Name         Instructions Cycles
  3784                           ; simple_byte           13     7 (average)
  3785                           ;	Chosen strategy is simple_byte
  3786   0029B4  501E               	movf	??_CCP_Capture_Mode_Config^0,w,c
  3787   0029B6  0A04               	xorlw	4	; case 4
  3788   0029B8  B4D8               	btfsc	status,2,c
  3789   0029BA  EFAE  F014         	goto	l9797
  3790   0029BE  0A01               	xorlw	1	; case 5
  3791   0029C0  B4D8               	btfsc	status,2,c
  3792   0029C2  EFB4  F014         	goto	l9799
  3793   0029C6  0A03               	xorlw	3	; case 6
  3794   0029C8  B4D8               	btfsc	status,2,c
  3795   0029CA  EFBA  F014         	goto	l9801
  3796   0029CE  0A01               	xorlw	1	; case 7
  3797   0029D0  B4D8               	btfsc	status,2,c
  3798   0029D2  EFC0  F014         	goto	l9803
  3799   0029D6  EFC6  F014         	goto	l9805
  3800   0029DA                     l9809:
  3801   0029DA  C01C  FFD9         	movff	CCP_Capture_Mode_Config@_ccp_obj,fsr2l
  3802   0029DE  C01D  FFDA         	movff	CCP_Capture_Mode_Config@_ccp_obj+1,fsr2h
  3803   0029E2  04DE               	decf	postinc2,w,c
  3804   0029E4  A4D8               	btfss	status,2,c
  3805   0029E6  EFF7  F014         	goto	u9851
  3806   0029EA  EFF9  F014         	goto	u9850
  3807   0029EE                     u9851:
  3808   0029EE  EF36  F015         	goto	l9825
  3809   0029F2                     u9850:
  3810   0029F2  EF13  F015         	goto	l9823
  3811   0029F6                     l9813:
  3812   0029F6  50BA               	movf	186,w,c	;volatile
  3813   0029F8  0BF0               	andlw	-16
  3814   0029FA  0904               	iorlw	4
  3815   0029FC  6EBA               	movwf	186,c	;volatile
  3816   0029FE  EF36  F015         	goto	l9825
  3817   002A02                     l9815:
  3818   002A02  50BA               	movf	186,w,c	;volatile
  3819   002A04  0BF0               	andlw	-16
  3820   002A06  0905               	iorlw	5
  3821   002A08  6EBA               	movwf	186,c	;volatile
  3822   002A0A  EF36  F015         	goto	l9825
  3823   002A0E                     l9817:
  3824   002A0E  50BA               	movf	186,w,c	;volatile
  3825   002A10  0BF0               	andlw	-16
  3826   002A12  0906               	iorlw	6
  3827   002A14  6EBA               	movwf	186,c	;volatile
  3828   002A16  EF36  F015         	goto	l9825
  3829   002A1A                     l9819:
  3830   002A1A  50BA               	movf	186,w,c	;volatile
  3831   002A1C  0BF0               	andlw	-16
  3832   002A1E  0907               	iorlw	7
  3833   002A20  6EBA               	movwf	186,c	;volatile
  3834   002A22  EF36  F015         	goto	l9825
  3835   002A26                     l9823:
  3836   002A26  EE20 F002          	lfsr	2,2
  3837   002A2A  501C               	movf	CCP_Capture_Mode_Config@_ccp_obj^0,w,c
  3838   002A2C  26D9               	addwf	fsr2l,f,c
  3839   002A2E  501D               	movf	(CCP_Capture_Mode_Config@_ccp_obj+1)^0,w,c
  3840   002A30  22DA               	addwfc	fsr2h,f,c
  3841   002A32  50DF               	movf	indf2,w,c
  3842   002A34  6E1E               	movwf	??_CCP_Capture_Mode_Config^0,c
  3843   002A36  6A1F               	clrf	(??_CCP_Capture_Mode_Config+1)^0,c
  3844                           
  3845                           ; Switch on 2 bytes has been partitioned into a top level switch of size 1, and 1 sub-sw
      +                          itches
  3846                           ; Switch size 1, requested type "simple"
  3847                           ; Number of cases is 1, Range of values is 0 to 0
  3848                           ; switch strategies available:
  3849                           ; Name         Instructions Cycles
  3850                           ; simple_byte            4     3 (average)
  3851                           ;	Chosen strategy is simple_byte
  3852   002A38  501F               	movf	(??_CCP_Capture_Mode_Config+1)^0,w,c
  3853   002A3A  0A00               	xorlw	0	; case 0
  3854   002A3C  B4D8               	btfsc	status,2,c
  3855   002A3E  EF23  F015         	goto	l11157
  3856   002A42  EFC6  F014         	goto	l9805
  3857   002A46                     l11157:
  3858                           
  3859                           ; Switch size 1, requested type "simple"
  3860                           ; Number of cases is 4, Range of values is 4 to 7
  3861                           ; switch strategies available:
  3862                           ; Name         Instructions Cycles
  3863                           ; simple_byte           13     7 (average)
  3864                           ;	Chosen strategy is simple_byte
  3865   002A46  501E               	movf	??_CCP_Capture_Mode_Config^0,w,c
  3866   002A48  0A04               	xorlw	4	; case 4
  3867   002A4A  B4D8               	btfsc	status,2,c
  3868   002A4C  EFFB  F014         	goto	l9813
  3869   002A50  0A01               	xorlw	1	; case 5
  3870   002A52  B4D8               	btfsc	status,2,c
  3871   002A54  EF01  F015         	goto	l9815
  3872   002A58  0A03               	xorlw	3	; case 6
  3873   002A5A  B4D8               	btfsc	status,2,c
  3874   002A5C  EF07  F015         	goto	l9817
  3875   002A60  0A01               	xorlw	1	; case 7
  3876   002A62  B4D8               	btfsc	status,2,c
  3877   002A64  EF0D  F015         	goto	l9819
  3878   002A68  EFC6  F014         	goto	l9805
  3879   002A6C                     l9825:
  3880                           
  3881                           ;MCAL/CCP/hal_ccp.c: 387:     CCP_Mode_Timer_Select(_ccp_obj);
  3882   002A6C  C01C  F019         	movff	CCP_Capture_Mode_Config@_ccp_obj,CCP_Mode_Timer_Select@_ccp_obj
  3883   002A70  C01D  F01A         	movff	CCP_Capture_Mode_Config@_ccp_obj+1,CCP_Mode_Timer_Select@_ccp_obj+1
  3884   002A74  EC8E  F019         	call	_CCP_Mode_Timer_Select	;wreg free
  3885   002A78                     
  3886                           ;MCAL/CCP/hal_ccp.c: 389:     return ret;
  3887   002A78  5020               	movf	CCP_Capture_Mode_Config@ret^0,w,c
  3888   002A7A  0012               	return		;funcret
  3889   002A7C                     __end_of_CCP_Capture_Mode_Config:
  3890                           	callstack 0
  3891                           
  3892 ;; *************** function _CCP_Mode_Timer_Select *****************
  3893 ;; Defined at:
  3894 ;;		line 342 in file "MCAL/CCP/hal_ccp.c"
  3895 ;; Parameters:    Size  Location     Type
  3896 ;;  _ccp_obj        2   24[COMRAM] PTR const struct .
  3897 ;;		 -> ccp1(15), 
  3898 ;; Auto vars:     Size  Location     Type
  3899 ;;		None
  3900 ;; Return value:  Size  Location     Type
  3901 ;;                  1    wreg      void 
  3902 ;; Registers used:
  3903 ;;		wreg, fsr2l, fsr2h, status,2, status,0
  3904 ;; Tracked objects:
  3905 ;;		On entry : 0/0
  3906 ;;		On exit  : 0/0
  3907 ;;		Unchanged: 0/0
  3908 ;; Data sizes:     COMRAM   BANK0   BANK1   BANK2   BANK3   BANK4   BANK5   BANK6   BANK7   BANK8   BANK9  BANK10  BANK1
      +1  BANK12  BANK13  BANK14  BANK15
  3909 ;;      Params:         2       0       0       0       0       0       0       0       0       0       0       0       
      +0       0       0       0       0
  3910 ;;      Locals:         0       0       0       0       0       0       0       0       0       0       0       0       
      +0       0       0       0       0
  3911 ;;      Temps:          1       0       0       0       0       0       0       0       0       0       0       0       
      +0       0       0       0       0
  3912 ;;      Totals:         3       0       0       0       0       0       0       0       0       0       0       0       
      +0       0       0       0       0
  3913 ;;Total ram usage:        3 bytes
  3914 ;; Hardware stack levels used: 1
  3915 ;; Hardware stack levels required when called: 7
  3916 ;; This function calls:
  3917 ;;		Nothing
  3918 ;; This function is called by:
  3919 ;;		_CCP_Capture_Mode_Config
  3920 ;;		_CCP_Compare_Mode_Config
  3921 ;; This function uses a non-reentrant model
  3922 ;;
  3923                           
  3924                           	psect	text21
  3925   00331C                     __ptext21:
  3926                           	callstack 0
  3927   00331C                     _CCP_Mode_Timer_Select:
  3928                           	callstack 20
  3929   00331C                     
  3930                           ;MCAL/CCP/hal_ccp.c: 343:     if(CCP1_CCP2_TIMER3 == _ccp_obj->ccp_capture_timer){
  3931   00331C  EE20 F004          	lfsr	2,4
  3932   003320  5019               	movf	CCP_Mode_Timer_Select@_ccp_obj^0,w,c
  3933   003322  26D9               	addwf	fsr2l,f,c
  3934   003324  501A               	movf	(CCP_Mode_Timer_Select@_ccp_obj+1)^0,w,c
  3935   003326  22DA               	addwfc	fsr2h,f,c
  3936   003328  50DF               	movf	indf2,w,c
  3937   00332A  A4D8               	btfss	status,2,c
  3938   00332C  EF9A  F019         	goto	u8741
  3939   003330  EF9C  F019         	goto	u8740
  3940   003334                     u8741:
  3941   003334  EFA0  F019         	goto	l9161
  3942   003338                     u8740:
  3943   003338                     
  3944                           ;MCAL/CCP/hal_ccp.c: 345:         T3CONbits.T3CCP1 = 0;
  3945   003338  96B1               	bcf	177,3,c	;volatile
  3946                           
  3947                           ;MCAL/CCP/hal_ccp.c: 346:         T3CONbits.T3CCP2 = 1;
  3948   00333A  8CB1               	bsf	177,6,c	;volatile
  3949                           
  3950                           ;MCAL/CCP/hal_ccp.c: 347:     }
  3951   00333C  EFC5  F019         	goto	l538
  3952   003340                     l9161:
  3953   003340  EE20 F004          	lfsr	2,4
  3954   003344  5019               	movf	CCP_Mode_Timer_Select@_ccp_obj^0,w,c
  3955   003346  26D9               	addwf	fsr2l,f,c
  3956   003348  501A               	movf	(CCP_Mode_Timer_Select@_ccp_obj+1)^0,w,c
  3957   00334A  22DA               	addwfc	fsr2h,f,c
  3958   00334C  04DE               	decf	postinc2,w,c
  3959   00334E  A4D8               	btfss	status,2,c
  3960   003350  EFAC  F019         	goto	u8751
  3961   003354  EFAE  F019         	goto	u8750
  3962   003358                     u8751:
  3963   003358  EFB2  F019         	goto	l9165
  3964   00335C                     u8750:
  3965   00335C                     
  3966                           ;MCAL/CCP/hal_ccp.c: 351:         T3CONbits.T3CCP1 = 1;
  3967   00335C  86B1               	bsf	177,3,c	;volatile
  3968                           
  3969                           ;MCAL/CCP/hal_ccp.c: 352:         T3CONbits.T3CCP2 = 0;
  3970   00335E  9CB1               	bcf	177,6,c	;volatile
  3971                           
  3972                           ;MCAL/CCP/hal_ccp.c: 353:     }
  3973   003360  EFC5  F019         	goto	l538
  3974   003364                     l9165:
  3975   003364  EE20 F004          	lfsr	2,4
  3976   003368  5019               	movf	CCP_Mode_Timer_Select@_ccp_obj^0,w,c
  3977   00336A  26D9               	addwf	fsr2l,f,c
  3978   00336C  501A               	movf	(CCP_Mode_Timer_Select@_ccp_obj+1)^0,w,c
  3979   00336E  22DA               	addwfc	fsr2h,f,c
  3980   003370  0E02               	movlw	2
  3981   003372  18DE               	xorwf	postinc2,w,c
  3982   003374  A4D8               	btfss	status,2,c
  3983   003376  EFBF  F019         	goto	u8761
  3984   00337A  EFC1  F019         	goto	u8760
  3985   00337E                     u8761:
  3986   00337E  EFC5  F019         	goto	l535
  3987   003382                     u8760:
  3988   003382                     
  3989                           ;MCAL/CCP/hal_ccp.c: 356:         T3CONbits.T3CCP1 = 0;
  3990   003382  96B1               	bcf	177,3,c	;volatile
  3991                           
  3992                           ;MCAL/CCP/hal_ccp.c: 357:         T3CONbits.T3CCP2 = 0;
  3993   003384  9CB1               	bcf	177,6,c	;volatile
  3994                           
  3995                           ;MCAL/CCP/hal_ccp.c: 358:     }
  3996   003386  EFC5  F019         	goto	l538
  3997   00338A                     l535:
  3998   00338A                     l538:
  3999   00338A  0012               	return		;funcret
  4000   00338C                     __end_of_CCP_Mode_Timer_Select:
  4001                           	callstack 0
  4002                           
  4003 ;; *************** function _I2C_Open *****************
  4004 ;; Defined at:
  4005 ;;		line 116 in file "mcc_generated_files/i2c_slave.c"
  4006 ;; Parameters:    Size  Location     Type
  4007 ;;		None
  4008 ;; Auto vars:     Size  Location     Type
  4009 ;;		None
  4010 ;; Return value:  Size  Location     Type
  4011 ;;                  1    wreg      void 
  4012 ;; Registers used:
  4013 ;;		wreg, status,2, status,0, cstack
  4014 ;; Tracked objects:
  4015 ;;		On entry : 0/0
  4016 ;;		On exit  : 0/0
  4017 ;;		Unchanged: 0/0
  4018 ;; Data sizes:     COMRAM   BANK0   BANK1   BANK2   BANK3   BANK4   BANK5   BANK6   BANK7   BANK8   BANK9  BANK10  BANK1
      +1  BANK12  BANK13  BANK14  BANK15
  4019 ;;      Params:         0       0       0       0       0       0       0       0       0       0       0       0       
      +0       0       0       0       0
  4020 ;;      Locals:         0       0       0       0       0       0       0       0       0       0       0       0       
      +0       0       0       0       0
  4021 ;;      Temps:          0       0       0       0       0       0       0       0       0       0       0       0       
      +0       0       0       0       0
  4022 ;;      Totals:         0       0       0       0       0       0       0       0       0       0       0       0       
      +0       0       0       0       0
  4023 ;;Total ram usage:        0 bytes
  4024 ;; Hardware stack levels used: 1
  4025 ;; Hardware stack levels required when called: 8
  4026 ;; This function calls:
  4027 ;;		_I2C_SlaveEnableIrq
  4028 ;;		_I2C_SlaveOpen
  4029 ;;		_I2C_SlaveSetAddrIntHandler
  4030 ;;		_I2C_SlaveSetBusColIntHandler
  4031 ;;		_I2C_SlaveSetIsrHandler
  4032 ;;		_I2C_SlaveSetReadIntHandler
  4033 ;;		_I2C_SlaveSetSlaveAddr
  4034 ;;		_I2C_SlaveSetSlaveMask
  4035 ;;		_I2C_SlaveSetWrColIntHandler
  4036 ;;		_I2C_SlaveSetWriteIntHandler
  4037 ;; This function is called by:
  4038 ;;		_main
  4039 ;; This function uses a non-reentrant model
  4040 ;;
  4041                           
  4042                           	psect	text22
  4043   003456                     __ptext22:
  4044                           	callstack 0
  4045   003456                     _I2C_Open:
  4046                           	callstack 22
  4047   003456                     
  4048                           ;mcc_generated_files/i2c_slave.c: 118:     I2C_SlaveOpen();
  4049   003456  EC5E  F01C         	call	_I2C_SlaveOpen	;wreg free
  4050   00345A                     
  4051                           ;mcc_generated_files/i2c_slave.c: 119:     I2C_SlaveSetSlaveAddr(112);
  4052   00345A  0E70               	movlw	112
  4053   00345C  EC0D  F01D         	call	_I2C_SlaveSetSlaveAddr
  4054   003460                     
  4055                           ;mcc_generated_files/i2c_slave.c: 120:     I2C_SlaveSetSlaveMask(127);
  4056   003460  0E7F               	movlw	127
  4057   003462  EC2F  F01D         	call	_I2C_SlaveSetSlaveMask
  4058                           
  4059                           ;mcc_generated_files/i2c_slave.c: 121:     I2C_SlaveSetIsrHandler(I2C_Isr);
  4060   003466  0E18               	movlw	low _I2C_Isr
  4061   003468  6E19               	movwf	I2C_SlaveSetIsrHandler@handler^0,c
  4062   00346A  0E2F               	movlw	high _I2C_Isr
  4063   00346C  6E1A               	movwf	(I2C_SlaveSetIsrHandler@handler+1)^0,c
  4064   00346E  ECF4  F01C         	call	_I2C_SlaveSetIsrHandler	;wreg free
  4065                           
  4066                           ;mcc_generated_files/i2c_slave.c: 122:     I2C_SlaveSetBusColIntHandler(I2C_SlaveDefBusC
      +                          olInterruptHandler);
  4067   003472  0E00               	movlw	0
  4068   003474  6E19               	movwf	I2C_SlaveSetBusColIntHandler@handler^0,c
  4069   003476  0E00               	movlw	0
  4070   003478  6E1A               	movwf	(I2C_SlaveSetBusColIntHandler@handler+1)^0,c
  4071   00347A  ECF9  F01C         	call	_I2C_SlaveSetBusColIntHandler	;wreg free
  4072                           
  4073                           ;mcc_generated_files/i2c_slave.c: 123:     I2C_SlaveSetWriteIntHandler(I2C_SlaveDefWrInt
      +                          erruptHandler);
  4074   00347E  0E2A               	movlw	low _I2C_SlaveDefWrInterruptHandler
  4075   003480  6E19               	movwf	I2C_SlaveSetWriteIntHandler@handler^0,c
  4076   003482  0E3A               	movlw	high _I2C_SlaveDefWrInterruptHandler
  4077   003484  6E1A               	movwf	(I2C_SlaveSetWriteIntHandler@handler+1)^0,c
  4078   003486  ECE5  F01C         	call	_I2C_SlaveSetWriteIntHandler	;wreg free
  4079                           
  4080                           ;mcc_generated_files/i2c_slave.c: 124:     I2C_SlaveSetReadIntHandler(I2C_SlaveDefRdInte
      +                          rruptHandler);
  4081   00348A  0E06               	movlw	low _I2C_SlaveDefRdInterruptHandler
  4082   00348C  6E19               	movwf	I2C_SlaveSetReadIntHandler@handler^0,c
  4083   00348E  0E3A               	movlw	high _I2C_SlaveDefRdInterruptHandler
  4084   003490  6E1A               	movwf	(I2C_SlaveSetReadIntHandler@handler+1)^0,c
  4085   003492  ECEF  F01C         	call	_I2C_SlaveSetReadIntHandler	;wreg free
  4086                           
  4087                           ;mcc_generated_files/i2c_slave.c: 125:     I2C_SlaveSetAddrIntHandler(I2C_SlaveDefAddrIn
      +                          terruptHandler);
  4088   003496  0E10               	movlw	low _I2C_SlaveDefAddrInterruptHandler
  4089   003498  6E19               	movwf	I2C_SlaveSetAddrIntHandler@handler^0,c
  4090   00349A  0E3A               	movlw	high _I2C_SlaveDefAddrInterruptHandler
  4091   00349C  6E1A               	movwf	(I2C_SlaveSetAddrIntHandler@handler+1)^0,c
  4092   00349E  ECFE  F01C         	call	_I2C_SlaveSetAddrIntHandler	;wreg free
  4093                           
  4094                           ;mcc_generated_files/i2c_slave.c: 126:     I2C_SlaveSetWrColIntHandler(I2C_SlaveDefWrCol
      +                          InterruptHandler);
  4095   0034A2  0E00               	movlw	0
  4096   0034A4  6E19               	movwf	I2C_SlaveSetWrColIntHandler@handler^0,c
  4097   0034A6  0E00               	movlw	0
  4098   0034A8  6E1A               	movwf	(I2C_SlaveSetWrColIntHandler@handler+1)^0,c
  4099   0034AA  ECEA  F01C         	call	_I2C_SlaveSetWrColIntHandler	;wreg free
  4100   0034AE                     
  4101                           ;mcc_generated_files/i2c_slave.c: 127:     I2C_SlaveEnableIrq();
  4102   0034AE  EC1F  F01D         	call	_I2C_SlaveEnableIrq	;wreg free
  4103   0034B2  0012               	return		;funcret
  4104   0034B4                     __end_of_I2C_Open:
  4105                           	callstack 0
  4106                           
  4107 ;; *************** function _I2C_SlaveSetWriteIntHandler *****************
  4108 ;; Defined at:
  4109 ;;		line 246 in file "mcc_generated_files/i2c_slave.c"
  4110 ;; Parameters:    Size  Location     Type
  4111 ;;  handler         2   24[COMRAM] PTR FTN()void 
  4112 ;;		 -> I2C_SlaveDefWrInterruptHandler(1), 
  4113 ;; Auto vars:     Size  Location     Type
  4114 ;;		None
  4115 ;; Return value:  Size  Location     Type
  4116 ;;                  1    wreg      void 
  4117 ;; Registers used:
  4118 ;;		wreg, status,2, status,0
  4119 ;; Tracked objects:
  4120 ;;		On entry : 0/0
  4121 ;;		On exit  : 0/0
  4122 ;;		Unchanged: 0/0
  4123 ;; Data sizes:     COMRAM   BANK0   BANK1   BANK2   BANK3   BANK4   BANK5   BANK6   BANK7   BANK8   BANK9  BANK10  BANK1
      +1  BANK12  BANK13  BANK14  BANK15
  4124 ;;      Params:         2       0       0       0       0       0       0       0       0       0       0       0       
      +0       0       0       0       0
  4125 ;;      Locals:         0       0       0       0       0       0       0       0       0       0       0       0       
      +0       0       0       0       0
  4126 ;;      Temps:          0       0       0       0       0       0       0       0       0       0       0       0       
      +0       0       0       0       0
  4127 ;;      Totals:         2       0       0       0       0       0       0       0       0       0       0       0       
      +0       0       0       0       0
  4128 ;;Total ram usage:        2 bytes
  4129 ;; Hardware stack levels used: 1
  4130 ;; Hardware stack levels required when called: 7
  4131 ;; This function calls:
  4132 ;;		Nothing
  4133 ;; This function is called by:
  4134 ;;		_I2C_Open
  4135 ;; This function uses a non-reentrant model
  4136 ;;
  4137                           
  4138                           	psect	text23
  4139   0039CA                     __ptext23:
  4140                           	callstack 0
  4141   0039CA                     _I2C_SlaveSetWriteIntHandler:
  4142                           	callstack 22
  4143   0039CA                     
  4144                           ;mcc_generated_files/i2c_slave.c: 247:     I2C_SlaveWrInterruptHandler = handler;
  4145   0039CA  C019  F086         	movff	I2C_SlaveSetWriteIntHandler@handler,_I2C_SlaveWrInterruptHandler
  4146   0039CE  C01A  F087         	movff	I2C_SlaveSetWriteIntHandler@handler+1,_I2C_SlaveWrInterruptHandler+1
  4147   0039D2  0012               	return		;funcret
  4148   0039D4                     __end_of_I2C_SlaveSetWriteIntHandler:
  4149                           	callstack 0
  4150                           
  4151 ;; *************** function _I2C_SlaveSetWrColIntHandler *****************
  4152 ;; Defined at:
  4153 ;;		line 279 in file "mcc_generated_files/i2c_slave.c"
  4154 ;; Parameters:    Size  Location     Type
  4155 ;;  handler         2   24[COMRAM] PTR FTN()void 
  4156 ;;		 -> I2C_SlaveDefWrColInterruptHandler(1), 
  4157 ;; Auto vars:     Size  Location     Type
  4158 ;;		None
  4159 ;; Return value:  Size  Location     Type
  4160 ;;                  1    wreg      void 
  4161 ;; Registers used:
  4162 ;;		wreg, status,2, status,0
  4163 ;; Tracked objects:
  4164 ;;		On entry : 0/0
  4165 ;;		On exit  : 0/0
  4166 ;;		Unchanged: 0/0
  4167 ;; Data sizes:     COMRAM   BANK0   BANK1   BANK2   BANK3   BANK4   BANK5   BANK6   BANK7   BANK8   BANK9  BANK10  BANK1
      +1  BANK12  BANK13  BANK14  BANK15
  4168 ;;      Params:         2       0       0       0       0       0       0       0       0       0       0       0       
      +0       0       0       0       0
  4169 ;;      Locals:         0       0       0       0       0       0       0       0       0       0       0       0       
      +0       0       0       0       0
  4170 ;;      Temps:          0       0       0       0       0       0       0       0       0       0       0       0       
      +0       0       0       0       0
  4171 ;;      Totals:         2       0       0       0       0       0       0       0       0       0       0       0       
      +0       0       0       0       0
  4172 ;;Total ram usage:        2 bytes
  4173 ;; Hardware stack levels used: 1
  4174 ;; Hardware stack levels required when called: 7
  4175 ;; This function calls:
  4176 ;;		Nothing
  4177 ;; This function is called by:
  4178 ;;		_I2C_Open
  4179 ;; This function uses a non-reentrant model
  4180 ;;
  4181                           
  4182                           	psect	text24
  4183   0039D4                     __ptext24:
  4184                           	callstack 0
  4185   0039D4                     _I2C_SlaveSetWrColIntHandler:
  4186                           	callstack 22
  4187   0039D4                     
  4188                           ;mcc_generated_files/i2c_slave.c: 280:     I2C_SlaveWrColInterruptHandler = handler;
  4189   0039D4  C019  F080         	movff	I2C_SlaveSetWrColIntHandler@handler,_I2C_SlaveWrColInterruptHandler
  4190   0039D8  C01A  F081         	movff	I2C_SlaveSetWrColIntHandler@handler+1,_I2C_SlaveWrColInterruptHandler+1
  4191   0039DC  0012               	return		;funcret
  4192   0039DE                     __end_of_I2C_SlaveSetWrColIntHandler:
  4193                           	callstack 0
  4194                           
  4195 ;; *************** function _I2C_SlaveSetSlaveMask *****************
  4196 ;; Defined at:
  4197 ;;		line 336 in file "mcc_generated_files/i2c_slave.c"
  4198 ;; Parameters:    Size  Location     Type
  4199 ;;  maskAddr        1    wreg     unsigned char 
  4200 ;; Auto vars:     Size  Location     Type
  4201 ;;  maskAddr        1    0[COMRAM] unsigned char 
  4202 ;; Return value:  Size  Location     Type
  4203 ;;                  1    wreg      void 
  4204 ;; Registers used:
  4205 ;;		wreg
  4206 ;; Tracked objects:
  4207 ;;		On entry : 0/0
  4208 ;;		On exit  : 0/0
  4209 ;;		Unchanged: 0/0
  4210 ;; Data sizes:     COMRAM   BANK0   BANK1   BANK2   BANK3   BANK4   BANK5   BANK6   BANK7   BANK8   BANK9  BANK10  BANK1
      +1  BANK12  BANK13  BANK14  BANK15
  4211 ;;      Params:         0       0       0       0       0       0       0       0       0       0       0       0       
      +0       0       0       0       0
  4212 ;;      Locals:         0       0       0       0       0       0       0       0       0       0       0       0       
      +0       0       0       0       0
  4213 ;;      Temps:          0       0       0       0       0       0       0       0       0       0       0       0       
      +0       0       0       0       0
  4214 ;;      Totals:         0       0       0       0       0       0       0       0       0       0       0       0       
      +0       0       0       0       0
  4215 ;;Total ram usage:        0 bytes
  4216 ;; Hardware stack levels used: 1
  4217 ;; Hardware stack levels required when called: 7
  4218 ;; This function calls:
  4219 ;;		Nothing
  4220 ;; This function is called by:
  4221 ;;		_I2C_Open
  4222 ;; This function uses a non-reentrant model
  4223 ;;
  4224                           
  4225                           	psect	text25
  4226   003A5E                     __ptext25:
  4227                           	callstack 0
  4228   003A5E                     _I2C_SlaveSetSlaveMask:
  4229                           	callstack 22
  4230   003A5E  0012               	return		;funcret
  4231   003A60                     __end_of_I2C_SlaveSetSlaveMask:
  4232                           	callstack 0
  4233                           
  4234 ;; *************** function _I2C_SlaveSetSlaveAddr *****************
  4235 ;; Defined at:
  4236 ;;		line 331 in file "mcc_generated_files/i2c_slave.c"
  4237 ;; Parameters:    Size  Location     Type
  4238 ;;  slaveAddr       1    wreg     unsigned char 
  4239 ;; Auto vars:     Size  Location     Type
  4240 ;;  slaveAddr       1   24[COMRAM] unsigned char 
  4241 ;; Return value:  Size  Location     Type
  4242 ;;                  1    wreg      void 
  4243 ;; Registers used:
  4244 ;;		wreg
  4245 ;; Tracked objects:
  4246 ;;		On entry : 0/0
  4247 ;;		On exit  : 0/0
  4248 ;;		Unchanged: 0/0
  4249 ;; Data sizes:     COMRAM   BANK0   BANK1   BANK2   BANK3   BANK4   BANK5   BANK6   BANK7   BANK8   BANK9  BANK10  BANK1
      +1  BANK12  BANK13  BANK14  BANK15
  4250 ;;      Params:         0       0       0       0       0       0       0       0       0       0       0       0       
      +0       0       0       0       0
  4251 ;;      Locals:         1       0       0       0       0       0       0       0       0       0       0       0       
      +0       0       0       0       0
  4252 ;;      Temps:          0       0       0       0       0       0       0       0       0       0       0       0       
      +0       0       0       0       0
  4253 ;;      Totals:         1       0       0       0       0       0       0       0       0       0       0       0       
      +0       0       0       0       0
  4254 ;;Total ram usage:        1 bytes
  4255 ;; Hardware stack levels used: 1
  4256 ;; Hardware stack levels required when called: 7
  4257 ;; This function calls:
  4258 ;;		Nothing
  4259 ;; This function is called by:
  4260 ;;		_I2C_Open
  4261 ;; This function uses a non-reentrant model
  4262 ;;
  4263                           
  4264                           	psect	text26
  4265   003A1A                     __ptext26:
  4266                           	callstack 0
  4267   003A1A                     _I2C_SlaveSetSlaveAddr:
  4268                           	callstack 22
  4269                           
  4270                           ;incstack = 0
  4271                           ;I2C_SlaveSetSlaveAddr@slaveAddr stored from wreg
  4272   003A1A  6E19               	movwf	I2C_SlaveSetSlaveAddr@slaveAddr^0,c
  4273   003A1C                     
  4274                           ;mcc_generated_files/i2c_slave.c: 331: static __attribute__((inline)) void I2C_SlaveSetS
      +                          laveAddr(uint8_t slaveAddr);mcc_generated_files/i2c_slave.c: 332: {;mcc_generated_files/
      +                          i2c_slave.c: 333:     SSPADD = (uint8_t) (slaveAddr);
  4275   003A1C  C019  FFC8         	movff	I2C_SlaveSetSlaveAddr@slaveAddr,4040	;volatile
  4276   003A20  0012               	return		;funcret
  4277   003A22                     __end_of_I2C_SlaveSetSlaveAddr:
  4278                           	callstack 0
  4279                           
  4280 ;; *************** function _I2C_SlaveSetReadIntHandler *****************
  4281 ;; Defined at:
  4282 ;;		line 229 in file "mcc_generated_files/i2c_slave.c"
  4283 ;; Parameters:    Size  Location     Type
  4284 ;;  handler         2   24[COMRAM] PTR FTN()void 
  4285 ;;		 -> MY_I2C_slave_ISR(1), I2C_SlaveDefRdInterruptHandler(1), 
  4286 ;; Auto vars:     Size  Location     Type
  4287 ;;		None
  4288 ;; Return value:  Size  Location     Type
  4289 ;;                  1    wreg      void 
  4290 ;; Registers used:
  4291 ;;		wreg, status,2, status,0
  4292 ;; Tracked objects:
  4293 ;;		On entry : 0/0
  4294 ;;		On exit  : 0/0
  4295 ;;		Unchanged: 0/0
  4296 ;; Data sizes:     COMRAM   BANK0   BANK1   BANK2   BANK3   BANK4   BANK5   BANK6   BANK7   BANK8   BANK9  BANK10  BANK1
      +1  BANK12  BANK13  BANK14  BANK15
  4297 ;;      Params:         2       0       0       0       0       0       0       0       0       0       0       0       
      +0       0       0       0       0
  4298 ;;      Locals:         0       0       0       0       0       0       0       0       0       0       0       0       
      +0       0       0       0       0
  4299 ;;      Temps:          0       0       0       0       0       0       0       0       0       0       0       0       
      +0       0       0       0       0
  4300 ;;      Totals:         2       0       0       0       0       0       0       0       0       0       0       0       
      +0       0       0       0       0
  4301 ;;Total ram usage:        2 bytes
  4302 ;; Hardware stack levels used: 1
  4303 ;; Hardware stack levels required when called: 7
  4304 ;; This function calls:
  4305 ;;		Nothing
  4306 ;; This function is called by:
  4307 ;;		_I2C_Open
  4308 ;;		_main
  4309 ;; This function uses a non-reentrant model
  4310 ;;
  4311                           
  4312                           	psect	text27
  4313   0039DE                     __ptext27:
  4314                           	callstack 0
  4315   0039DE                     _I2C_SlaveSetReadIntHandler:
  4316                           	callstack 23
  4317   0039DE                     
  4318                           ;mcc_generated_files/i2c_slave.c: 230:     I2C_SlaveRdInterruptHandler = handler;
  4319   0039DE  C019  F088         	movff	I2C_SlaveSetReadIntHandler@handler,_I2C_SlaveRdInterruptHandler
  4320   0039E2  C01A  F089         	movff	I2C_SlaveSetReadIntHandler@handler+1,_I2C_SlaveRdInterruptHandler+1
  4321   0039E6  0012               	return		;funcret
  4322   0039E8                     __end_of_I2C_SlaveSetReadIntHandler:
  4323                           	callstack 0
  4324                           
  4325 ;; *************** function _I2C_SlaveSetIsrHandler *****************
  4326 ;; Defined at:
  4327 ;;		line 223 in file "mcc_generated_files/i2c_slave.c"
  4328 ;; Parameters:    Size  Location     Type
  4329 ;;  handler         2   24[COMRAM] PTR FTN()void 
  4330 ;;		 -> I2C_Isr(1), 
  4331 ;; Auto vars:     Size  Location     Type
  4332 ;;		None
  4333 ;; Return value:  Size  Location     Type
  4334 ;;                  1    wreg      void 
  4335 ;; Registers used:
  4336 ;;		wreg, status,2, status,0
  4337 ;; Tracked objects:
  4338 ;;		On entry : 0/0
  4339 ;;		On exit  : 0/0
  4340 ;;		Unchanged: 0/0
  4341 ;; Data sizes:     COMRAM   BANK0   BANK1   BANK2   BANK3   BANK4   BANK5   BANK6   BANK7   BANK8   BANK9  BANK10  BANK1
      +1  BANK12  BANK13  BANK14  BANK15
  4342 ;;      Params:         2       0       0       0       0       0       0       0       0       0       0       0       
      +0       0       0       0       0
  4343 ;;      Locals:         0       0       0       0       0       0       0       0       0       0       0       0       
      +0       0       0       0       0
  4344 ;;      Temps:          0       0       0       0       0       0       0       0       0       0       0       0       
      +0       0       0       0       0
  4345 ;;      Totals:         2       0       0       0       0       0       0       0       0       0       0       0       
      +0       0       0       0       0
  4346 ;;Total ram usage:        2 bytes
  4347 ;; Hardware stack levels used: 1
  4348 ;; Hardware stack levels required when called: 7
  4349 ;; This function calls:
  4350 ;;		Nothing
  4351 ;; This function is called by:
  4352 ;;		_I2C_Open
  4353 ;; This function uses a non-reentrant model
  4354 ;;
  4355                           
  4356                           	psect	text28
  4357   0039E8                     __ptext28:
  4358                           	callstack 0
  4359   0039E8                     _I2C_SlaveSetIsrHandler:
  4360                           	callstack 22
  4361   0039E8                     
  4362                           ;mcc_generated_files/i2c_slave.c: 223: void I2C_SlaveSetIsrHandler(i2cInterruptHandler h
      +                          andler);mcc_generated_files/i2c_slave.c: 224: {;mcc_generated_files/i2c_slave.c: 225:   
      +                            MSSP_InterruptHandler = handler;
  4363   0039E8  C019  F08A         	movff	I2C_SlaveSetIsrHandler@handler,_MSSP_InterruptHandler
  4364   0039EC  C01A  F08B         	movff	I2C_SlaveSetIsrHandler@handler+1,_MSSP_InterruptHandler+1
  4365   0039F0  0012               	return		;funcret
  4366   0039F2                     __end_of_I2C_SlaveSetIsrHandler:
  4367                           	callstack 0
  4368                           
  4369 ;; *************** function _I2C_SlaveSetBusColIntHandler *****************
  4370 ;; Defined at:
  4371 ;;		line 295 in file "mcc_generated_files/i2c_slave.c"
  4372 ;; Parameters:    Size  Location     Type
  4373 ;;  handler         2   24[COMRAM] PTR FTN()void 
  4374 ;;		 -> I2C_SlaveDefBusColInterruptHandler(1), 
  4375 ;; Auto vars:     Size  Location     Type
  4376 ;;		None
  4377 ;; Return value:  Size  Location     Type
  4378 ;;                  1    wreg      void 
  4379 ;; Registers used:
  4380 ;;		wreg, status,2, status,0
  4381 ;; Tracked objects:
  4382 ;;		On entry : 0/0
  4383 ;;		On exit  : 0/0
  4384 ;;		Unchanged: 0/0
  4385 ;; Data sizes:     COMRAM   BANK0   BANK1   BANK2   BANK3   BANK4   BANK5   BANK6   BANK7   BANK8   BANK9  BANK10  BANK1
      +1  BANK12  BANK13  BANK14  BANK15
  4386 ;;      Params:         2       0       0       0       0       0       0       0       0       0       0       0       
      +0       0       0       0       0
  4387 ;;      Locals:         0       0       0       0       0       0       0       0       0       0       0       0       
      +0       0       0       0       0
  4388 ;;      Temps:          0       0       0       0       0       0       0       0       0       0       0       0       
      +0       0       0       0       0
  4389 ;;      Totals:         2       0       0       0       0       0       0       0       0       0       0       0       
      +0       0       0       0       0
  4390 ;;Total ram usage:        2 bytes
  4391 ;; Hardware stack levels used: 1
  4392 ;; Hardware stack levels required when called: 7
  4393 ;; This function calls:
  4394 ;;		Nothing
  4395 ;; This function is called by:
  4396 ;;		_I2C_Open
  4397 ;; This function uses a non-reentrant model
  4398 ;;
  4399                           
  4400                           	psect	text29
  4401   0039F2                     __ptext29:
  4402                           	callstack 0
  4403   0039F2                     _I2C_SlaveSetBusColIntHandler:
  4404                           	callstack 22
  4405   0039F2                     
  4406                           ;mcc_generated_files/i2c_slave.c: 296:     I2C_SlaveBusColInterruptHandler = handler;
  4407   0039F2  C019  F082         	movff	I2C_SlaveSetBusColIntHandler@handler,_I2C_SlaveBusColInterruptHandler
  4408   0039F6  C01A  F083         	movff	I2C_SlaveSetBusColIntHandler@handler+1,_I2C_SlaveBusColInterruptHandler+1
  4409   0039FA  0012               	return		;funcret
  4410   0039FC                     __end_of_I2C_SlaveSetBusColIntHandler:
  4411                           	callstack 0
  4412                           
  4413 ;; *************** function _I2C_SlaveSetAddrIntHandler *****************
  4414 ;; Defined at:
  4415 ;;		line 263 in file "mcc_generated_files/i2c_slave.c"
  4416 ;; Parameters:    Size  Location     Type
  4417 ;;  handler         2   24[COMRAM] PTR FTN()void 
  4418 ;;		 -> I2C_SlaveDefAddrInterruptHandler(1), 
  4419 ;; Auto vars:     Size  Location     Type
  4420 ;;		None
  4421 ;; Return value:  Size  Location     Type
  4422 ;;                  1    wreg      void 
  4423 ;; Registers used:
  4424 ;;		wreg, status,2, status,0
  4425 ;; Tracked objects:
  4426 ;;		On entry : 0/0
  4427 ;;		On exit  : 0/0
  4428 ;;		Unchanged: 0/0
  4429 ;; Data sizes:     COMRAM   BANK0   BANK1   BANK2   BANK3   BANK4   BANK5   BANK6   BANK7   BANK8   BANK9  BANK10  BANK1
      +1  BANK12  BANK13  BANK14  BANK15
  4430 ;;      Params:         2       0       0       0       0       0       0       0       0       0       0       0       
      +0       0       0       0       0
  4431 ;;      Locals:         0       0       0       0       0       0       0       0       0       0       0       0       
      +0       0       0       0       0
  4432 ;;      Temps:          0       0       0       0       0       0       0       0       0       0       0       0       
      +0       0       0       0       0
  4433 ;;      Totals:         2       0       0       0       0       0       0       0       0       0       0       0       
      +0       0       0       0       0
  4434 ;;Total ram usage:        2 bytes
  4435 ;; Hardware stack levels used: 1
  4436 ;; Hardware stack levels required when called: 7
  4437 ;; This function calls:
  4438 ;;		Nothing
  4439 ;; This function is called by:
  4440 ;;		_I2C_Open
  4441 ;; This function uses a non-reentrant model
  4442 ;;
  4443                           
  4444                           	psect	text30
  4445   0039FC                     __ptext30:
  4446                           	callstack 0
  4447   0039FC                     _I2C_SlaveSetAddrIntHandler:
  4448                           	callstack 22
  4449   0039FC                     
  4450                           ;mcc_generated_files/i2c_slave.c: 264:     I2C_SlaveAddrInterruptHandler = handler;
  4451   0039FC  C019  F084         	movff	I2C_SlaveSetAddrIntHandler@handler,_I2C_SlaveAddrInterruptHandler
  4452   003A00  C01A  F085         	movff	I2C_SlaveSetAddrIntHandler@handler+1,_I2C_SlaveAddrInterruptHandler+1
  4453   003A04  0012               	return		;funcret
  4454   003A06                     __end_of_I2C_SlaveSetAddrIntHandler:
  4455                           	callstack 0
  4456                           
  4457 ;; *************** function _I2C_SlaveOpen *****************
  4458 ;; Defined at:
  4459 ;;		line 310 in file "mcc_generated_files/i2c_slave.c"
  4460 ;; Parameters:    Size  Location     Type
  4461 ;;		None
  4462 ;; Auto vars:     Size  Location     Type
  4463 ;;		None
  4464 ;; Return value:  Size  Location     Type
  4465 ;;                  1    wreg      _Bool 
  4466 ;; Registers used:
  4467 ;;		wreg, status,2, status,0
  4468 ;; Tracked objects:
  4469 ;;		On entry : 0/0
  4470 ;;		On exit  : 0/0
  4471 ;;		Unchanged: 0/0
  4472 ;; Data sizes:     COMRAM   BANK0   BANK1   BANK2   BANK3   BANK4   BANK5   BANK6   BANK7   BANK8   BANK9  BANK10  BANK1
      +1  BANK12  BANK13  BANK14  BANK15
  4473 ;;      Params:         0       0       0       0       0       0       0       0       0       0       0       0       
      +0       0       0       0       0
  4474 ;;      Locals:         0       0       0       0       0       0       0       0       0       0       0       0       
      +0       0       0       0       0
  4475 ;;      Temps:          0       0       0       0       0       0       0       0       0       0       0       0       
      +0       0       0       0       0
  4476 ;;      Totals:         0       0       0       0       0       0       0       0       0       0       0       0       
      +0       0       0       0       0
  4477 ;;Total ram usage:        0 bytes
  4478 ;; Hardware stack levels used: 1
  4479 ;; Hardware stack levels required when called: 7
  4480 ;; This function calls:
  4481 ;;		Nothing
  4482 ;; This function is called by:
  4483 ;;		_I2C_Open
  4484 ;; This function uses a non-reentrant model
  4485 ;;
  4486                           
  4487                           	psect	text31
  4488   0038BC                     __ptext31:
  4489                           	callstack 0
  4490   0038BC                     _I2C_SlaveOpen:
  4491                           	callstack 22
  4492   0038BC                     
  4493                           ;mcc_generated_files/i2c_slave.c: 312:     if(!SSPCON1bits.SSPEN)
  4494   0038BC  BAC6               	btfsc	198,5,c	;volatile
  4495   0038BE  EF63  F01C         	goto	u10121
  4496   0038C2  EF65  F01C         	goto	u10120
  4497   0038C6                     u10121:
  4498   0038C6  EF6C  F01C         	goto	l1717
  4499   0038CA                     u10120:
  4500   0038CA                     
  4501                           ;mcc_generated_files/i2c_slave.c: 313:     {;mcc_generated_files/i2c_slave.c: 314:      
      +                             SSPSTAT = 0x80;
  4502   0038CA  0E80               	movlw	128
  4503   0038CC  6EC7               	movwf	199,c	;volatile
  4504   0038CE                     
  4505                           ;mcc_generated_files/i2c_slave.c: 315:         SSPCON1 |= 0x06;
  4506   0038CE  0E06               	movlw	6
  4507   0038D0  12C6               	iorwf	198,f,c	;volatile
  4508   0038D2                     
  4509                           ;mcc_generated_files/i2c_slave.c: 316:         SSPCON2 = 0x00;
  4510   0038D2  0E00               	movlw	0
  4511   0038D4  6EC5               	movwf	197,c	;volatile
  4512   0038D6                     
  4513                           ;mcc_generated_files/i2c_slave.c: 317:         SSPCON1bits.SSPEN = 1;
  4514   0038D6  8AC6               	bsf	198,5,c	;volatile
  4515   0038D8                     l1717:
  4516   0038D8  0012               	return		;funcret
  4517   0038DA                     __end_of_I2C_SlaveOpen:
  4518                           	callstack 0
  4519                           
  4520 ;; *************** function _I2C_SlaveEnableIrq *****************
  4521 ;; Defined at:
  4522 ;;		line 341 in file "mcc_generated_files/i2c_slave.c"
  4523 ;; Parameters:    Size  Location     Type
  4524 ;;		None
  4525 ;; Auto vars:     Size  Location     Type
  4526 ;;		None
  4527 ;; Return value:  Size  Location     Type
  4528 ;;                  1    wreg      void 
  4529 ;; Registers used:
  4530 ;;		None
  4531 ;; Tracked objects:
  4532 ;;		On entry : 0/0
  4533 ;;		On exit  : 0/0
  4534 ;;		Unchanged: 0/0
  4535 ;; Data sizes:     COMRAM   BANK0   BANK1   BANK2   BANK3   BANK4   BANK5   BANK6   BANK7   BANK8   BANK9  BANK10  BANK1
      +1  BANK12  BANK13  BANK14  BANK15
  4536 ;;      Params:         0       0       0       0       0       0       0       0       0       0       0       0       
      +0       0       0       0       0
  4537 ;;      Locals:         0       0       0       0       0       0       0       0       0       0       0       0       
      +0       0       0       0       0
  4538 ;;      Temps:          0       0       0       0       0       0       0       0       0       0       0       0       
      +0       0       0       0       0
  4539 ;;      Totals:         0       0       0       0       0       0       0       0       0       0       0       0       
      +0       0       0       0       0
  4540 ;;Total ram usage:        0 bytes
  4541 ;; Hardware stack levels used: 1
  4542 ;; Hardware stack levels required when called: 7
  4543 ;; This function calls:
  4544 ;;		Nothing
  4545 ;; This function is called by:
  4546 ;;		_I2C_Open
  4547 ;; This function uses a non-reentrant model
  4548 ;;
  4549                           
  4550                           	psect	text32
  4551   003A3E                     __ptext32:
  4552                           	callstack 0
  4553   003A3E                     _I2C_SlaveEnableIrq:
  4554                           	callstack 22
  4555   003A3E                     
  4556                           ;mcc_generated_files/i2c_slave.c: 343:     PIE1bits.SSPIE = 1;
  4557   003A3E  869D               	bsf	157,3,c	;volatile
  4558   003A40  0012               	return		;funcret
  4559   003A42                     __end_of_I2C_SlaveEnableIrq:
  4560                           	callstack 0
  4561                           
  4562 ;; *************** function _CCP_PWM_Start *****************
  4563 ;; Defined at:
  4564 ;;		line 211 in file "MCAL/CCP/hal_ccp.c"
  4565 ;; Parameters:    Size  Location     Type
  4566 ;;  _ccp_obj        2   24[COMRAM] PTR const struct .
  4567 ;;		 -> ccp1(15), 
  4568 ;; Auto vars:     Size  Location     Type
  4569 ;;  ret             1    0        unsigned char 
  4570 ;; Return value:  Size  Location     Type
  4571 ;;                  1    wreg      unsigned char 
  4572 ;; Registers used:
  4573 ;;		wreg, fsr2l, fsr2h, status,2, status,0
  4574 ;; Tracked objects:
  4575 ;;		On entry : 0/0
  4576 ;;		On exit  : 0/0
  4577 ;;		Unchanged: 0/0
  4578 ;; Data sizes:     COMRAM   BANK0   BANK1   BANK2   BANK3   BANK4   BANK5   BANK6   BANK7   BANK8   BANK9  BANK10  BANK1
      +1  BANK12  BANK13  BANK14  BANK15
  4579 ;;      Params:         2       0       0       0       0       0       0       0       0       0       0       0       
      +0       0       0       0       0
  4580 ;;      Locals:         0       0       0       0       0       0       0       0       0       0       0       0       
      +0       0       0       0       0
  4581 ;;      Temps:          1       0       0       0       0       0       0       0       0       0       0       0       
      +0       0       0       0       0
  4582 ;;      Totals:         3       0       0       0       0       0       0       0       0       0       0       0       
      +0       0       0       0       0
  4583 ;;Total ram usage:        3 bytes
  4584 ;; Hardware stack levels used: 1
  4585 ;; Hardware stack levels required when called: 7
  4586 ;; This function calls:
  4587 ;;		Nothing
  4588 ;; This function is called by:
  4589 ;;		_main
  4590 ;; This function uses a non-reentrant model
  4591 ;;
  4592                           
  4593                           	psect	text33
  4594   0034B4                     __ptext33:
  4595                           	callstack 0
  4596   0034B4                     _CCP_PWM_Start:
  4597                           	callstack 23
  4598   0034B4                     
  4599                           ;MCAL/CCP/hal_ccp.c: 214:     if(((void*)0) == _ccp_obj){
  4600   0034B4  5019               	movf	CCP_PWM_Start@_ccp_obj^0,w,c
  4601   0034B6  101A               	iorwf	(CCP_PWM_Start@_ccp_obj+1)^0,w,c
  4602   0034B8  A4D8               	btfss	status,2,c
  4603   0034BA  EF61  F01A         	goto	u10341
  4604   0034BE  EF63  F01A         	goto	u10340
  4605   0034C2                     u10341:
  4606   0034C2  EF65  F01A         	goto	l10277
  4607   0034C6                     u10340:
  4608   0034C6                     
  4609                           ;MCAL/CCP/hal_ccp.c: 216:     }
  4610   0034C6  EF87  F01A         	goto	l496
  4611   0034CA                     l10277:
  4612                           
  4613                           ;MCAL/CCP/hal_ccp.c: 218:         if(CCP1_INST == _ccp_obj->ccp_inst){
  4614   0034CA  C019  FFD9         	movff	CCP_PWM_Start@_ccp_obj,fsr2l
  4615   0034CE  C01A  FFDA         	movff	CCP_PWM_Start@_ccp_obj+1,fsr2h
  4616   0034D2  50DF               	movf	indf2,w,c
  4617   0034D4  A4D8               	btfss	status,2,c
  4618   0034D6  EF6F  F01A         	goto	u10351
  4619   0034DA  EF71  F01A         	goto	u10350
  4620   0034DE                     u10351:
  4621   0034DE  EF77  F01A         	goto	l10281
  4622   0034E2                     u10350:
  4623   0034E2                     
  4624                           ;MCAL/CCP/hal_ccp.c: 219:             CCP1CONbits.CCP1M = ((uint8)0x0C);
  4625   0034E2  50BD               	movf	189,w,c	;volatile
  4626   0034E4  0BF0               	andlw	-16
  4627   0034E6  090C               	iorlw	12
  4628   0034E8  6EBD               	movwf	189,c	;volatile
  4629                           
  4630                           ;MCAL/CCP/hal_ccp.c: 220:         }
  4631   0034EA  EF87  F01A         	goto	l10285
  4632   0034EE                     l10281:
  4633   0034EE  C019  FFD9         	movff	CCP_PWM_Start@_ccp_obj,fsr2l
  4634   0034F2  C01A  FFDA         	movff	CCP_PWM_Start@_ccp_obj+1,fsr2h
  4635   0034F6  04DE               	decf	postinc2,w,c
  4636   0034F8  A4D8               	btfss	status,2,c
  4637   0034FA  EF81  F01A         	goto	u10361
  4638   0034FE  EF83  F01A         	goto	u10360
  4639   003502                     u10361:
  4640   003502  EF87  F01A         	goto	l10285
  4641   003506                     u10360:
  4642   003506                     
  4643                           ;MCAL/CCP/hal_ccp.c: 222:             CCP2CONbits.CCP2M = ((uint8)0x0C);
  4644   003506  50BA               	movf	186,w,c	;volatile
  4645   003508  0BF0               	andlw	-16
  4646   00350A  090C               	iorlw	12
  4647   00350C  6EBA               	movwf	186,c	;volatile
  4648   00350E                     l10285:
  4649   00350E                     l496:
  4650   00350E  0012               	return		;funcret
  4651   003510                     __end_of_CCP_PWM_Start:
  4652                           	callstack 0
  4653                           
  4654 ;; *************** function _CCP_PWM_Set_Duty *****************
  4655 ;; Defined at:
  4656 ;;		line 185 in file "MCAL/CCP/hal_ccp.c"
  4657 ;; Parameters:    Size  Location     Type
  4658 ;;  _ccp_obj        2   10[BANK1 ] PTR const struct .
  4659 ;;		 -> ccp1(15), 
  4660 ;;  _duty           1   12[BANK1 ] const unsigned char 
  4661 ;; Auto vars:     Size  Location     Type
  4662 ;;  l_duty_temp     2   19[BANK1 ] unsigned short 
  4663 ;;  ret             1    0        unsigned char 
  4664 ;; Return value:  Size  Location     Type
  4665 ;;                  1    wreg      unsigned char 
  4666 ;; Registers used:
  4667 ;;		wreg, fsr2l, fsr2h, status,2, status,0, prodl, prodh, cstack
  4668 ;; Tracked objects:
  4669 ;;		On entry : 0/0
  4670 ;;		On exit  : 0/0
  4671 ;;		Unchanged: 0/0
  4672 ;; Data sizes:     COMRAM   BANK0   BANK1   BANK2   BANK3   BANK4   BANK5   BANK6   BANK7   BANK8   BANK9  BANK10  BANK1
      +1  BANK12  BANK13  BANK14  BANK15
  4673 ;;      Params:         0       0       3       0       0       0       0       0       0       0       0       0       
      +0       0       0       0       0
  4674 ;;      Locals:         0       0       6       0       0       0       0       0       0       0       0       0       
      +0       0       0       0       0
  4675 ;;      Temps:          0       0       2       0       0       0       0       0       0       0       0       0       
      +0       0       0       0       0
  4676 ;;      Totals:         0       0      11       0       0       0       0       0       0       0       0       0       
      +0       0       0       0       0
  4677 ;;Total ram usage:       11 bytes
  4678 ;; Hardware stack levels used: 1
  4679 ;; Hardware stack levels required when called: 8
  4680 ;; This function calls:
  4681 ;;		___fladd
  4682 ;;		___fldiv
  4683 ;;		___flmul
  4684 ;;		___fltol
  4685 ;;		___xxtofl
  4686 ;; This function is called by:
  4687 ;;		_main
  4688 ;; This function uses a non-reentrant model
  4689 ;;
  4690                           
  4691                           	psect	text34
  4692   0023BE                     __ptext34:
  4693                           	callstack 0
  4694   0023BE                     _CCP_PWM_Set_Duty:
  4695                           	callstack 22
  4696   0023BE                     
  4697                           ;MCAL/CCP/hal_ccp.c: 187:     uint16 l_duty_temp = 0;
  4698   0023BE  0E00               	movlw	0
  4699   0023C0  0101               	movlb	1	; () banked
  4700   0023C2  6F42               	movwf	(CCP_PWM_Set_Duty@l_duty_temp+1)& (0+255),b
  4701   0023C4  0E00               	movlw	0
  4702   0023C6  6F41               	movwf	CCP_PWM_Set_Duty@l_duty_temp& (0+255),b
  4703   0023C8                     
  4704                           ; BSR set to: 1
  4705                           ;MCAL/CCP/hal_ccp.c: 189:     if(((void*)0) == _ccp_obj){
  4706   0023C8  5138               	movf	CCP_PWM_Set_Duty@_ccp_obj& (0+255),w,b
  4707   0023CA  1139               	iorwf	(CCP_PWM_Set_Duty@_ccp_obj+1)& (0+255),w,b
  4708   0023CC  A4D8               	btfss	status,2,c
  4709   0023CE  EFEB  F011         	goto	u10311
  4710   0023D2  EFED  F011         	goto	u10310
  4711   0023D6                     u10311:
  4712   0023D6  EFEF  F011         	goto	l10257
  4713   0023DA                     u10310:
  4714   0023DA                     
  4715                           ; BSR set to: 1
  4716                           ;MCAL/CCP/hal_ccp.c: 191:     }
  4717   0023DA  EFA7  F012         	goto	l487
  4718   0023DE                     l10257:
  4719                           
  4720                           ; BSR set to: 1
  4721                           ;MCAL/CCP/hal_ccp.c: 193:         l_duty_temp = (uint16)((float)4 * ((float)PR2 + 1.0) *
      +                           ((float)_duty / 100.0));
  4722   0023DE  0E00               	movlw	0
  4723   0023E0  6E2B               	movwf	___flmul@a^0,c
  4724   0023E2  0E00               	movlw	0
  4725   0023E4  6E2C               	movwf	(___flmul@a+1)^0,c
  4726   0023E6  0E80               	movlw	128
  4727   0023E8  6E2D               	movwf	(___flmul@a+2)^0,c
  4728   0023EA  0E40               	movlw	64
  4729   0023EC  6E2E               	movwf	(___flmul@a+3)^0,c
  4730   0023EE  0E00               	movlw	0
  4731   0023F0  0100               	movlb	0	; () banked
  4732   0023F2  6FF8               	movwf	___fladd@a& (0+255),b
  4733   0023F4  0E00               	movlw	0
  4734   0023F6  6FF9               	movwf	(___fladd@a+1)& (0+255),b
  4735   0023F8  0E80               	movlw	128
  4736   0023FA  6FFA               	movwf	(___fladd@a+2)& (0+255),b
  4737   0023FC  0E3F               	movlw	63
  4738   0023FE  6FFB               	movwf	(___fladd@a+3)& (0+255),b
  4739   002400  50CB               	movf	203,w,c	;volatile
  4740   002402  6E19               	movwf	___xxtofl@val^0,c
  4741   002404  6A1A               	clrf	(___xxtofl@val+1)^0,c
  4742   002406  6A1B               	clrf	(___xxtofl@val+2)^0,c
  4743   002408  6A1C               	clrf	(___xxtofl@val+3)^0,c
  4744   00240A  0E00               	movlw	0
  4745   00240C  EC05  F011         	call	___xxtofl
  4746   002410  C019  F0F4         	movff	?___xxtofl,___fladd@b
  4747   002414  C01A  F0F5         	movff	?___xxtofl+1,___fladd@b+1
  4748   002418  C01B  F0F6         	movff	?___xxtofl+2,___fladd@b+2
  4749   00241C  C01C  F0F7         	movff	?___xxtofl+3,___fladd@b+3
  4750   002420  EC03  F008         	call	___fladd	;wreg free
  4751   002424  C0F4  F027         	movff	?___fladd,___flmul@b
  4752   002428  C0F5  F028         	movff	?___fladd+1,___flmul@b+1
  4753   00242C  C0F6  F029         	movff	?___fladd+2,___flmul@b+2
  4754   002430  C0F7  F02A         	movff	?___fladd+3,___flmul@b+3
  4755   002434  EC64  F00A         	call	___flmul	;wreg free
  4756   002438  C027  F13D         	movff	?___flmul,_CCP_PWM_Set_Duty$5874
  4757   00243C  C028  F13E         	movff	?___flmul+1,_CCP_PWM_Set_Duty$5874+1
  4758   002440  C029  F13F         	movff	?___flmul+2,_CCP_PWM_Set_Duty$5874+2
  4759   002444  C02A  F140         	movff	?___flmul+3,_CCP_PWM_Set_Duty$5874+3
  4760                           
  4761                           ;MCAL/CCP/hal_ccp.c: 193:         l_duty_temp = (uint16)((float)4 * ((float)PR2 + 1.0) *
      +                           ((float)_duty / 100.0));
  4762   002448  0E00               	movlw	0
  4763   00244A  6E44               	movwf	___fldiv@a^0,c
  4764   00244C  0E00               	movlw	0
  4765   00244E  6E45               	movwf	(___fldiv@a+1)^0,c
  4766   002450  0EC8               	movlw	200
  4767   002452  6E46               	movwf	(___fldiv@a+2)^0,c
  4768   002454  0E42               	movlw	66
  4769   002456  6E47               	movwf	(___fldiv@a+3)^0,c
  4770   002458  0101               	movlb	1	; () banked
  4771   00245A  513A               	movf	CCP_PWM_Set_Duty@_duty& (0+255),w,b
  4772   00245C  6E19               	movwf	___xxtofl@val^0,c
  4773   00245E  6A1A               	clrf	(___xxtofl@val+1)^0,c
  4774   002460  6A1B               	clrf	(___xxtofl@val+2)^0,c
  4775   002462  6A1C               	clrf	(___xxtofl@val+3)^0,c
  4776   002464  0E00               	movlw	0
  4777   002466  EC05  F011         	call	___xxtofl
  4778   00246A  C019  F040         	movff	?___xxtofl,___fldiv@b
  4779   00246E  C01A  F041         	movff	?___xxtofl+1,___fldiv@b+1
  4780   002472  C01B  F042         	movff	?___xxtofl+2,___fldiv@b+2
  4781   002476  C01C  F043         	movff	?___xxtofl+3,___fldiv@b+3
  4782   00247A  EC48  F00E         	call	___fldiv	;wreg free
  4783   00247E  C040  F02B         	movff	?___fldiv,___flmul@a
  4784   002482  C041  F02C         	movff	?___fldiv+1,___flmul@a+1
  4785   002486  C042  F02D         	movff	?___fldiv+2,___flmul@a+2
  4786   00248A  C043  F02E         	movff	?___fldiv+3,___flmul@a+3
  4787   00248E  C13D  F027         	movff	_CCP_PWM_Set_Duty$5874,___flmul@b
  4788   002492  C13E  F028         	movff	_CCP_PWM_Set_Duty$5874+1,___flmul@b+1
  4789   002496  C13F  F029         	movff	_CCP_PWM_Set_Duty$5874+2,___flmul@b+2
  4790   00249A  C140  F02A         	movff	_CCP_PWM_Set_Duty$5874+3,___flmul@b+3
  4791   00249E  EC64  F00A         	call	___flmul	;wreg free
  4792   0024A2  C027  F12E         	movff	?___flmul,___fltol@f1
  4793   0024A6  C028  F12F         	movff	?___flmul+1,___fltol@f1+1
  4794   0024AA  C029  F130         	movff	?___flmul+2,___fltol@f1+2
  4795   0024AE  C02A  F131         	movff	?___flmul+3,___fltol@f1+3
  4796   0024B2  EC08  F017         	call	___fltol	;wreg free
  4797   0024B6  C12E  F141         	movff	?___fltol,CCP_PWM_Set_Duty@l_duty_temp
  4798   0024BA  C12F  F142         	movff	?___fltol+1,CCP_PWM_Set_Duty@l_duty_temp+1
  4799   0024BE                     
  4800                           ;MCAL/CCP/hal_ccp.c: 195:         if(CCP1_INST == _ccp_obj->ccp_inst){
  4801   0024BE  C138  FFD9         	movff	CCP_PWM_Set_Duty@_ccp_obj,fsr2l
  4802   0024C2  C139  FFDA         	movff	CCP_PWM_Set_Duty@_ccp_obj+1,fsr2h
  4803   0024C6  50DF               	movf	indf2,w,c
  4804   0024C8  A4D8               	btfss	status,2,c
  4805   0024CA  EF69  F012         	goto	u10321
  4806   0024CE  EF6B  F012         	goto	u10320
  4807   0024D2                     u10321:
  4808   0024D2  EF84  F012         	goto	l10263
  4809   0024D6                     u10320:
  4810   0024D6                     
  4811                           ;MCAL/CCP/hal_ccp.c: 196:             CCP1CONbits.DC1B = (uint8)(l_duty_temp & 0x0003);
  4812   0024D6  C141  F13B         	movff	CCP_PWM_Set_Duty@l_duty_temp,??_CCP_PWM_Set_Duty
  4813   0024DA  0E03               	movlw	3
  4814   0024DC  0101               	movlb	1	; () banked
  4815   0024DE  173B               	andwf	??_CCP_PWM_Set_Duty& (0+255),f,b
  4816   0024E0  3B3B               	swapf	??_CCP_PWM_Set_Duty& (0+255),f,b
  4817   0024E2  50BD               	movf	189,w,c	;volatile
  4818   0024E4  193B               	xorwf	??_CCP_PWM_Set_Duty& (0+255),w,b
  4819   0024E6  0BCF               	andlw	-49
  4820   0024E8  193B               	xorwf	??_CCP_PWM_Set_Duty& (0+255),w,b
  4821   0024EA  6EBD               	movwf	189,c	;volatile
  4822                           
  4823                           ;MCAL/CCP/hal_ccp.c: 197:             CCPR1L = (uint8)(l_duty_temp >> 2);
  4824   0024EC  C141  F13B         	movff	CCP_PWM_Set_Duty@l_duty_temp,??_CCP_PWM_Set_Duty
  4825   0024F0  C142  F13C         	movff	CCP_PWM_Set_Duty@l_duty_temp+1,??_CCP_PWM_Set_Duty+1
  4826   0024F4  90D8               	bcf	status,0,c
  4827   0024F6  333C               	rrcf	(??_CCP_PWM_Set_Duty+1)& (0+255),f,b
  4828   0024F8  333B               	rrcf	??_CCP_PWM_Set_Duty& (0+255),f,b
  4829   0024FA  90D8               	bcf	status,0,c
  4830   0024FC  333C               	rrcf	(??_CCP_PWM_Set_Duty+1)& (0+255),f,b
  4831   0024FE  333B               	rrcf	??_CCP_PWM_Set_Duty& (0+255),f,b
  4832   002500  513B               	movf	??_CCP_PWM_Set_Duty& (0+255),w,b
  4833   002502  6EBE               	movwf	190,c	;volatile
  4834                           
  4835                           ;MCAL/CCP/hal_ccp.c: 198:         }
  4836   002504  EFA7  F012         	goto	l10267
  4837   002508                     l10263:
  4838   002508  C138  FFD9         	movff	CCP_PWM_Set_Duty@_ccp_obj,fsr2l
  4839   00250C  C139  FFDA         	movff	CCP_PWM_Set_Duty@_ccp_obj+1,fsr2h
  4840   002510  04DE               	decf	postinc2,w,c
  4841   002512  A4D8               	btfss	status,2,c
  4842   002514  EF8E  F012         	goto	u10331
  4843   002518  EF90  F012         	goto	u10330
  4844   00251C                     u10331:
  4845   00251C  EFA7  F012         	goto	l10267
  4846   002520                     u10330:
  4847   002520                     
  4848                           ;MCAL/CCP/hal_ccp.c: 200:             CCP2CONbits.DC2B = (uint8)(l_duty_temp & 0x0003);
  4849   002520  C141  F13B         	movff	CCP_PWM_Set_Duty@l_duty_temp,??_CCP_PWM_Set_Duty
  4850   002524  0E03               	movlw	3
  4851   002526  0101               	movlb	1	; () banked
  4852   002528  173B               	andwf	??_CCP_PWM_Set_Duty& (0+255),f,b
  4853   00252A  3B3B               	swapf	??_CCP_PWM_Set_Duty& (0+255),f,b
  4854   00252C  50BA               	movf	186,w,c	;volatile
  4855   00252E  193B               	xorwf	??_CCP_PWM_Set_Duty& (0+255),w,b
  4856   002530  0BCF               	andlw	-49
  4857   002532  193B               	xorwf	??_CCP_PWM_Set_Duty& (0+255),w,b
  4858   002534  6EBA               	movwf	186,c	;volatile
  4859                           
  4860                           ;MCAL/CCP/hal_ccp.c: 201:             CCPR2L = (uint8)(l_duty_temp >> 2);
  4861   002536  C141  F13B         	movff	CCP_PWM_Set_Duty@l_duty_temp,??_CCP_PWM_Set_Duty
  4862   00253A  C142  F13C         	movff	CCP_PWM_Set_Duty@l_duty_temp+1,??_CCP_PWM_Set_Duty+1
  4863   00253E  90D8               	bcf	status,0,c
  4864   002540  333C               	rrcf	(??_CCP_PWM_Set_Duty+1)& (0+255),f,b
  4865   002542  333B               	rrcf	??_CCP_PWM_Set_Duty& (0+255),f,b
  4866   002544  90D8               	bcf	status,0,c
  4867   002546  333C               	rrcf	(??_CCP_PWM_Set_Duty+1)& (0+255),f,b
  4868   002548  333B               	rrcf	??_CCP_PWM_Set_Duty& (0+255),f,b
  4869   00254A  513B               	movf	??_CCP_PWM_Set_Duty& (0+255),w,b
  4870   00254C  6EBB               	movwf	187,c	;volatile
  4871   00254E                     l10267:
  4872   00254E                     l487:
  4873   00254E  0012               	return		;funcret
  4874   002550                     __end_of_CCP_PWM_Set_Duty:
  4875                           	callstack 0
  4876                           
  4877 ;; *************** function ___xxtofl *****************
  4878 ;; Defined at:
  4879 ;;		line 10 in file "C:\Program Files\Microchip\xc8\v2.45\pic\sources\c99\common\xxtofl.c"
  4880 ;; Parameters:    Size  Location     Type
  4881 ;;  sign            1    wreg     unsigned char 
  4882 ;;  val             4   24[COMRAM] long 
  4883 ;; Auto vars:     Size  Location     Type
  4884 ;;  sign            1   32[COMRAM] unsigned char 
  4885 ;;  arg             4   34[COMRAM] unsigned long 
  4886 ;;  exp             1   33[COMRAM] unsigned char 
  4887 ;; Return value:  Size  Location     Type
  4888 ;;                  4   24[COMRAM] unsigned char 
  4889 ;; Registers used:
  4890 ;;		wreg, status,2, status,0
  4891 ;; Tracked objects:
  4892 ;;		On entry : 0/0
  4893 ;;		On exit  : 0/0
  4894 ;;		Unchanged: 0/0
  4895 ;; Data sizes:     COMRAM   BANK0   BANK1   BANK2   BANK3   BANK4   BANK5   BANK6   BANK7   BANK8   BANK9  BANK10  BANK1
      +1  BANK12  BANK13  BANK14  BANK15
  4896 ;;      Params:         4       0       0       0       0       0       0       0       0       0       0       0       
      +0       0       0       0       0
  4897 ;;      Locals:         6       0       0       0       0       0       0       0       0       0       0       0       
      +0       0       0       0       0
  4898 ;;      Temps:          4       0       0       0       0       0       0       0       0       0       0       0       
      +0       0       0       0       0
  4899 ;;      Totals:        14       0       0       0       0       0       0       0       0       0       0       0       
      +0       0       0       0       0
  4900 ;;Total ram usage:       14 bytes
  4901 ;; Hardware stack levels used: 1
  4902 ;; Hardware stack levels required when called: 7
  4903 ;; This function calls:
  4904 ;;		Nothing
  4905 ;; This function is called by:
  4906 ;;		_CCP_PWM_Set_Duty
  4907 ;;		_CCP_PWM_Mode_Config
  4908 ;;		_main
  4909 ;;		_EUSART_Baud_Rate_Calculation
  4910 ;; This function uses a non-reentrant model
  4911 ;;
  4912                           
  4913                           	psect	text35
  4914   00220A                     __ptext35:
  4915                           	callstack 0
  4916   00220A                     ___xxtofl:
  4917                           	callstack 23
  4918                           
  4919                           ;incstack = 0
  4920                           ;___xxtofl@sign stored from wreg
  4921   00220A  6E21               	movwf	___xxtofl@sign^0,c
  4922   00220C  5021               	movf	___xxtofl@sign^0,w,c
  4923   00220E  B4D8               	btfsc	status,2,c
  4924   002210  EF0C  F011         	goto	u9711
  4925   002214  EF0E  F011         	goto	u9710
  4926   002218                     u9711:
  4927   002218  EF30  F011         	goto	l2584
  4928   00221C                     u9710:
  4929   00221C  BE1C               	btfsc	(___xxtofl@val+3)^0,7,c
  4930   00221E  EF15  F011         	goto	u9720
  4931   002222  EF13  F011         	goto	u9721
  4932   002226                     u9721:
  4933   002226  EF30  F011         	goto	l2584
  4934   00222A                     u9720:
  4935   00222A  C019  F01D         	movff	___xxtofl@val,??___xxtofl
  4936   00222E  C01A  F01E         	movff	___xxtofl@val+1,??___xxtofl+1
  4937   002232  C01B  F01F         	movff	___xxtofl@val+2,??___xxtofl+2
  4938   002236  C01C  F020         	movff	___xxtofl@val+3,??___xxtofl+3
  4939   00223A  1E1D               	comf	??___xxtofl^0,f,c
  4940   00223C  1E1E               	comf	(??___xxtofl+1)^0,f,c
  4941   00223E  1E1F               	comf	(??___xxtofl+2)^0,f,c
  4942   002240  1E20               	comf	(??___xxtofl+3)^0,f,c
  4943   002242  2A1D               	incf	??___xxtofl^0,f,c
  4944   002244  0E00               	movlw	0
  4945   002246  221E               	addwfc	(??___xxtofl+1)^0,f,c
  4946   002248  221F               	addwfc	(??___xxtofl+2)^0,f,c
  4947   00224A  2220               	addwfc	(??___xxtofl+3)^0,f,c
  4948   00224C  C01D  F023         	movff	??___xxtofl,___xxtofl@arg
  4949   002250  C01E  F024         	movff	??___xxtofl+1,___xxtofl@arg+1
  4950   002254  C01F  F025         	movff	??___xxtofl+2,___xxtofl@arg+2
  4951   002258  C020  F026         	movff	??___xxtofl+3,___xxtofl@arg+3
  4952   00225C  EF38  F011         	goto	l9721
  4953   002260                     l2584:
  4954   002260  C019  F023         	movff	___xxtofl@val,___xxtofl@arg
  4955   002264  C01A  F024         	movff	___xxtofl@val+1,___xxtofl@arg+1
  4956   002268  C01B  F025         	movff	___xxtofl@val+2,___xxtofl@arg+2
  4957   00226C  C01C  F026         	movff	___xxtofl@val+3,___xxtofl@arg+3
  4958   002270                     l9721:
  4959   002270  5019               	movf	___xxtofl@val^0,w,c
  4960   002272  101A               	iorwf	(___xxtofl@val+1)^0,w,c
  4961   002274  101B               	iorwf	(___xxtofl@val+2)^0,w,c
  4962   002276  101C               	iorwf	(___xxtofl@val+3)^0,w,c
  4963   002278  A4D8               	btfss	status,2,c
  4964   00227A  EF41  F011         	goto	u9731
  4965   00227E  EF43  F011         	goto	u9730
  4966   002282                     u9731:
  4967   002282  EF4D  F011         	goto	l9727
  4968   002286                     u9730:
  4969   002286  0E00               	movlw	0
  4970   002288  6E19               	movwf	?___xxtofl^0,c
  4971   00228A  0E00               	movlw	0
  4972   00228C  6E1A               	movwf	(?___xxtofl+1)^0,c
  4973   00228E  0E00               	movlw	0
  4974   002290  6E1B               	movwf	(?___xxtofl+2)^0,c
  4975   002292  0E00               	movlw	0
  4976   002294  6E1C               	movwf	(?___xxtofl+3)^0,c
  4977   002296  EFDE  F011         	goto	l2587
  4978   00229A                     l9727:
  4979   00229A  0E96               	movlw	150
  4980   00229C  6E22               	movwf	___xxtofl@exp^0,c
  4981   00229E  EF57  F011         	goto	l9731
  4982   0022A2                     l9729:
  4983   0022A2  2A22               	incf	___xxtofl@exp^0,f,c
  4984   0022A4  90D8               	bcf	status,0,c
  4985   0022A6  3226               	rrcf	(___xxtofl@arg+3)^0,f,c
  4986   0022A8  3225               	rrcf	(___xxtofl@arg+2)^0,f,c
  4987   0022AA  3224               	rrcf	(___xxtofl@arg+1)^0,f,c
  4988   0022AC  3223               	rrcf	___xxtofl@arg^0,f,c
  4989   0022AE                     l9731:
  4990   0022AE  0E00               	movlw	0
  4991   0022B0  1423               	andwf	___xxtofl@arg^0,w,c
  4992   0022B2  6E1D               	movwf	??___xxtofl^0,c
  4993   0022B4  0E00               	movlw	0
  4994   0022B6  1424               	andwf	(___xxtofl@arg+1)^0,w,c
  4995   0022B8  6E1E               	movwf	(??___xxtofl+1)^0,c
  4996   0022BA  0E00               	movlw	0
  4997   0022BC  1425               	andwf	(___xxtofl@arg+2)^0,w,c
  4998   0022BE  6E1F               	movwf	(??___xxtofl+2)^0,c
  4999   0022C0  0EFE               	movlw	254
  5000   0022C2  1426               	andwf	(___xxtofl@arg+3)^0,w,c
  5001   0022C4  6E20               	movwf	(??___xxtofl+3)^0,c
  5002   0022C6  501D               	movf	??___xxtofl^0,w,c
  5003   0022C8  101E               	iorwf	(??___xxtofl+1)^0,w,c
  5004   0022CA  101F               	iorwf	(??___xxtofl+2)^0,w,c
  5005   0022CC  1020               	iorwf	(??___xxtofl+3)^0,w,c
  5006   0022CE  A4D8               	btfss	status,2,c
  5007   0022D0  EF6C  F011         	goto	u9741
  5008   0022D4  EF6E  F011         	goto	u9740
  5009   0022D8                     u9741:
  5010   0022D8  EF51  F011         	goto	l9729
  5011   0022DC                     u9740:
  5012   0022DC  EF7C  F011         	goto	l2591
  5013   0022E0                     l9733:
  5014   0022E0  2A22               	incf	___xxtofl@exp^0,f,c
  5015   0022E2  0E01               	movlw	1
  5016   0022E4  2623               	addwf	___xxtofl@arg^0,f,c
  5017   0022E6  0E00               	movlw	0
  5018   0022E8  2224               	addwfc	(___xxtofl@arg+1)^0,f,c
  5019   0022EA  2225               	addwfc	(___xxtofl@arg+2)^0,f,c
  5020   0022EC  2226               	addwfc	(___xxtofl@arg+3)^0,f,c
  5021   0022EE  90D8               	bcf	status,0,c
  5022   0022F0  3226               	rrcf	(___xxtofl@arg+3)^0,f,c
  5023   0022F2  3225               	rrcf	(___xxtofl@arg+2)^0,f,c
  5024   0022F4  3224               	rrcf	(___xxtofl@arg+1)^0,f,c
  5025   0022F6  3223               	rrcf	___xxtofl@arg^0,f,c
  5026   0022F8                     l2591:
  5027   0022F8  0E00               	movlw	0
  5028   0022FA  1423               	andwf	___xxtofl@arg^0,w,c
  5029   0022FC  6E1D               	movwf	??___xxtofl^0,c
  5030   0022FE  0E00               	movlw	0
  5031   002300  1424               	andwf	(___xxtofl@arg+1)^0,w,c
  5032   002302  6E1E               	movwf	(??___xxtofl+1)^0,c
  5033   002304  0E00               	movlw	0
  5034   002306  1425               	andwf	(___xxtofl@arg+2)^0,w,c
  5035   002308  6E1F               	movwf	(??___xxtofl+2)^0,c
  5036   00230A  0EFF               	movlw	255
  5037   00230C  1426               	andwf	(___xxtofl@arg+3)^0,w,c
  5038   00230E  6E20               	movwf	(??___xxtofl+3)^0,c
  5039   002310  501D               	movf	??___xxtofl^0,w,c
  5040   002312  101E               	iorwf	(??___xxtofl+1)^0,w,c
  5041   002314  101F               	iorwf	(??___xxtofl+2)^0,w,c
  5042   002316  1020               	iorwf	(??___xxtofl+3)^0,w,c
  5043   002318  A4D8               	btfss	status,2,c
  5044   00231A  EF91  F011         	goto	u9751
  5045   00231E  EF93  F011         	goto	u9750
  5046   002322                     u9751:
  5047   002322  EF70  F011         	goto	l9733
  5048   002326                     u9750:
  5049   002326  EF9B  F011         	goto	l9741
  5050   00232A                     l9739:
  5051   00232A  0622               	decf	___xxtofl@exp^0,f,c
  5052   00232C  90D8               	bcf	status,0,c
  5053   00232E  3623               	rlcf	___xxtofl@arg^0,f,c
  5054   002330  3624               	rlcf	(___xxtofl@arg+1)^0,f,c
  5055   002332  3625               	rlcf	(___xxtofl@arg+2)^0,f,c
  5056   002334  3626               	rlcf	(___xxtofl@arg+3)^0,f,c
  5057   002336                     l9741:
  5058   002336  BE25               	btfsc	(___xxtofl@arg+2)^0,7,c
  5059   002338  EFA0  F011         	goto	u9761
  5060   00233C  EFA2  F011         	goto	u9760
  5061   002340                     u9761:
  5062   002340  EFAA  F011         	goto	l2598
  5063   002344                     u9760:
  5064   002344  0E02               	movlw	2
  5065   002346  6022               	cpfslt	___xxtofl@exp^0,c
  5066   002348  EFA8  F011         	goto	u9771
  5067   00234C  EFAA  F011         	goto	u9770
  5068   002350                     u9771:
  5069   002350  EF95  F011         	goto	l9739
  5070   002354                     u9770:
  5071   002354                     l2598:
  5072   002354  B022               	btfsc	___xxtofl@exp^0,0,c
  5073   002356  EFAF  F011         	goto	u9781
  5074   00235A  EFB1  F011         	goto	u9780
  5075   00235E                     u9781:
  5076   00235E  EFB2  F011         	goto	l9747
  5077   002362                     u9780:
  5078   002362  9E25               	bcf	(___xxtofl@arg+2)^0,7,c
  5079   002364                     l9747:
  5080   002364  90D8               	bcf	status,0,c
  5081   002366  3222               	rrcf	___xxtofl@exp^0,f,c
  5082   002368  C022  F01D         	movff	___xxtofl@exp,??___xxtofl
  5083   00236C  6A1E               	clrf	(??___xxtofl+1)^0,c
  5084   00236E  6A1F               	clrf	(??___xxtofl+2)^0,c
  5085   002370  6A20               	clrf	(??___xxtofl+3)^0,c
  5086   002372  C01D  F020         	movff	??___xxtofl,??___xxtofl+3
  5087   002376  6A1F               	clrf	(??___xxtofl+2)^0,c
  5088   002378  6A1E               	clrf	(??___xxtofl+1)^0,c
  5089   00237A  6A1D               	clrf	??___xxtofl^0,c
  5090   00237C  501D               	movf	??___xxtofl^0,w,c
  5091   00237E  1223               	iorwf	___xxtofl@arg^0,f,c
  5092   002380  501E               	movf	(??___xxtofl+1)^0,w,c
  5093   002382  1224               	iorwf	(___xxtofl@arg+1)^0,f,c
  5094   002384  501F               	movf	(??___xxtofl+2)^0,w,c
  5095   002386  1225               	iorwf	(___xxtofl@arg+2)^0,f,c
  5096   002388  5020               	movf	(??___xxtofl+3)^0,w,c
  5097   00238A  1226               	iorwf	(___xxtofl@arg+3)^0,f,c
  5098   00238C  5021               	movf	___xxtofl@sign^0,w,c
  5099   00238E  B4D8               	btfsc	status,2,c
  5100   002390  EFCC  F011         	goto	u9791
  5101   002394  EFCE  F011         	goto	u9790
  5102   002398                     u9791:
  5103   002398  EFD6  F011         	goto	l9757
  5104   00239C                     u9790:
  5105   00239C  BE1C               	btfsc	(___xxtofl@val+3)^0,7,c
  5106   00239E  EFD5  F011         	goto	u9800
  5107   0023A2  EFD3  F011         	goto	u9801
  5108   0023A6                     u9801:
  5109   0023A6  EFD6  F011         	goto	l9757
  5110   0023AA                     u9800:
  5111   0023AA  8E26               	bsf	(___xxtofl@arg+3)^0,7,c
  5112   0023AC                     l9757:
  5113   0023AC  C023  F019         	movff	___xxtofl@arg,?___xxtofl
  5114   0023B0  C024  F01A         	movff	___xxtofl@arg+1,?___xxtofl+1
  5115   0023B4  C025  F01B         	movff	___xxtofl@arg+2,?___xxtofl+2
  5116   0023B8  C026  F01C         	movff	___xxtofl@arg+3,?___xxtofl+3
  5117   0023BC                     l2587:
  5118   0023BC  0012               	return		;funcret
  5119   0023BE                     __end_of___xxtofl:
  5120                           	callstack 0
  5121                           
  5122 ;; *************** function ___fltol *****************
  5123 ;; Defined at:
  5124 ;;		line 43 in file "C:\Program Files\Microchip\xc8\v2.45\pic\sources\c99\common\fltol.c"
  5125 ;; Parameters:    Size  Location     Type
  5126 ;;  f1              4    0[BANK1 ] unsigned char 
  5127 ;; Auto vars:     Size  Location     Type
  5128 ;;  exp1            1    9[BANK1 ] unsigned char 
  5129 ;;  sign1           1    8[BANK1 ] unsigned char 
  5130 ;; Return value:  Size  Location     Type
  5131 ;;                  4    0[BANK1 ] long 
  5132 ;; Registers used:
  5133 ;;		wreg, status,2, status,0
  5134 ;; Tracked objects:
  5135 ;;		On entry : 0/0
  5136 ;;		On exit  : 0/0
  5137 ;;		Unchanged: 0/0
  5138 ;; Data sizes:     COMRAM   BANK0   BANK1   BANK2   BANK3   BANK4   BANK5   BANK6   BANK7   BANK8   BANK9  BANK10  BANK1
      +1  BANK12  BANK13  BANK14  BANK15
  5139 ;;      Params:         0       0       4       0       0       0       0       0       0       0       0       0       
      +0       0       0       0       0
  5140 ;;      Locals:         0       0       2       0       0       0       0       0       0       0       0       0       
      +0       0       0       0       0
  5141 ;;      Temps:          0       0       4       0       0       0       0       0       0       0       0       0       
      +0       0       0       0       0
  5142 ;;      Totals:         0       0      10       0       0       0       0       0       0       0       0       0       
      +0       0       0       0       0
  5143 ;;Total ram usage:       10 bytes
  5144 ;; Hardware stack levels used: 1
  5145 ;; Hardware stack levels required when called: 7
  5146 ;; This function calls:
  5147 ;;		Nothing
  5148 ;; This function is called by:
  5149 ;;		_CCP_PWM_Set_Duty
  5150 ;;		_CCP_PWM_Mode_Config
  5151 ;;		_main
  5152 ;;		_EUSART_Baud_Rate_Calculation
  5153 ;; This function uses a non-reentrant model
  5154 ;;
  5155                           
  5156                           	psect	text36
  5157   002E10                     __ptext36:
  5158                           	callstack 0
  5159   002E10                     ___fltol:
  5160                           	callstack 23
  5161   002E10  0101               	movlb	1	; () banked
  5162   002E12  3530               	rlcf	(___fltol@f1+2)& (0+255),w,b
  5163   002E14  3531               	rlcf	(___fltol@f1+3)& (0+255),w,b
  5164   002E16  6F37               	movwf	___fltol@exp1& (0+255),b
  5165   002E18  5137               	movf	___fltol@exp1& (0+255),w,b
  5166   002E1A  A4D8               	btfss	status,2,c
  5167   002E1C  EF12  F017         	goto	u9641
  5168   002E20  EF14  F017         	goto	u9640
  5169   002E24                     u9641:
  5170   002E24  EF1E  F017         	goto	l9677
  5171   002E28                     u9640:
  5172   002E28                     l9673:
  5173                           
  5174                           ; BSR set to: 1
  5175   002E28  0E00               	movlw	0
  5176   002E2A  6F2E               	movwf	?___fltol& (0+255),b
  5177   002E2C  0E00               	movlw	0
  5178   002E2E  6F2F               	movwf	(?___fltol+1)& (0+255),b
  5179   002E30  0E00               	movlw	0
  5180   002E32  6F30               	movwf	(?___fltol+2)& (0+255),b
  5181   002E34  0E00               	movlw	0
  5182   002E36  6F31               	movwf	(?___fltol+3)& (0+255),b
  5183   002E38  EF8B  F017         	goto	l2226
  5184   002E3C                     l9677:
  5185                           
  5186                           ; BSR set to: 1
  5187   002E3C  C12E  F132         	movff	___fltol@f1,??___fltol
  5188   002E40  C12F  F133         	movff	___fltol@f1+1,??___fltol+1
  5189   002E44  C130  F134         	movff	___fltol@f1+2,??___fltol+2
  5190   002E48  C131  F135         	movff	___fltol@f1+3,??___fltol+3
  5191   002E4C  0E20               	movlw	32
  5192   002E4E  EF2E  F017         	goto	u9650
  5193   002E52                     u9655:
  5194   002E52  90D8               	bcf	status,0,c
  5195   002E54  3335               	rrcf	(??___fltol+3)& (0+255),f,b
  5196   002E56  3334               	rrcf	(??___fltol+2)& (0+255),f,b
  5197   002E58  3333               	rrcf	(??___fltol+1)& (0+255),f,b
  5198   002E5A  3332               	rrcf	??___fltol& (0+255),f,b
  5199   002E5C                     u9650:
  5200   002E5C  2EE8               	decfsz	wreg,f,c
  5201   002E5E  EF29  F017         	goto	u9655
  5202   002E62  5132               	movf	??___fltol& (0+255),w,b
  5203   002E64  6F36               	movwf	___fltol@sign1& (0+255),b
  5204   002E66                     
  5205                           ; BSR set to: 1
  5206   002E66  8F30               	bsf	(___fltol@f1+2)& (0+255),7,b
  5207   002E68                     
  5208                           ; BSR set to: 1
  5209   002E68  0EFF               	movlw	255
  5210   002E6A  172E               	andwf	___fltol@f1& (0+255),f,b
  5211   002E6C  0EFF               	movlw	255
  5212   002E6E  172F               	andwf	(___fltol@f1+1)& (0+255),f,b
  5213   002E70  0EFF               	movlw	255
  5214   002E72  1730               	andwf	(___fltol@f1+2)& (0+255),f,b
  5215   002E74  0E00               	movlw	0
  5216   002E76  1731               	andwf	(___fltol@f1+3)& (0+255),f,b
  5217   002E78                     
  5218                           ; BSR set to: 1
  5219   002E78  0E96               	movlw	150
  5220   002E7A  5F37               	subwf	___fltol@exp1& (0+255),f,b
  5221   002E7C                     
  5222                           ; BSR set to: 1
  5223   002E7C  BF37               	btfsc	___fltol@exp1& (0+255),7,b
  5224   002E7E  EF45  F017         	goto	u9660
  5225   002E82  EF43  F017         	goto	u9661
  5226   002E86                     u9661:
  5227   002E86  EF5B  F017         	goto	l9697
  5228   002E8A                     u9660:
  5229   002E8A                     
  5230                           ; BSR set to: 1
  5231   002E8A  5137               	movf	___fltol@exp1& (0+255),w,b
  5232   002E8C  0A80               	xorlw	128
  5233   002E8E  0F97               	addlw	151
  5234   002E90  B0D8               	btfsc	status,0,c
  5235   002E92  EF4D  F017         	goto	u9671
  5236   002E96  EF4F  F017         	goto	u9670
  5237   002E9A                     u9671:
  5238   002E9A  EF51  F017         	goto	l9693
  5239   002E9E                     u9670:
  5240   002E9E  EF14  F017         	goto	l9673
  5241   002EA2                     l9693:
  5242                           
  5243                           ; BSR set to: 1
  5244   002EA2  90D8               	bcf	status,0,c
  5245   002EA4  3331               	rrcf	(___fltol@f1+3)& (0+255),f,b
  5246   002EA6  3330               	rrcf	(___fltol@f1+2)& (0+255),f,b
  5247   002EA8  332F               	rrcf	(___fltol@f1+1)& (0+255),f,b
  5248   002EAA  332E               	rrcf	___fltol@f1& (0+255),f,b
  5249   002EAC                     
  5250                           ; BSR set to: 1
  5251   002EAC  3F37               	incfsz	___fltol@exp1& (0+255),f,b
  5252   002EAE  EF51  F017         	goto	l9693
  5253   002EB2  EF73  F017         	goto	l9707
  5254   002EB6                     l9697:
  5255                           
  5256                           ; BSR set to: 1
  5257   002EB6  0E1F               	movlw	31
  5258   002EB8  6537               	cpfsgt	___fltol@exp1& (0+255),b
  5259   002EBA  EF61  F017         	goto	u9681
  5260   002EBE  EF63  F017         	goto	u9680
  5261   002EC2                     u9681:
  5262   002EC2  EF6B  F017         	goto	l9705
  5263   002EC6                     u9680:
  5264   002EC6  EF14  F017         	goto	l9673
  5265   002ECA                     l9703:
  5266                           
  5267                           ; BSR set to: 1
  5268   002ECA  90D8               	bcf	status,0,c
  5269   002ECC  372E               	rlcf	___fltol@f1& (0+255),f,b
  5270   002ECE  372F               	rlcf	(___fltol@f1+1)& (0+255),f,b
  5271   002ED0  3730               	rlcf	(___fltol@f1+2)& (0+255),f,b
  5272   002ED2  3731               	rlcf	(___fltol@f1+3)& (0+255),f,b
  5273   002ED4  0737               	decf	___fltol@exp1& (0+255),f,b
  5274   002ED6                     l9705:
  5275                           
  5276                           ; BSR set to: 1
  5277   002ED6  5137               	movf	___fltol@exp1& (0+255),w,b
  5278   002ED8  A4D8               	btfss	status,2,c
  5279   002EDA  EF71  F017         	goto	u9691
  5280   002EDE  EF73  F017         	goto	u9690
  5281   002EE2                     u9691:
  5282   002EE2  EF65  F017         	goto	l9703
  5283   002EE6                     u9690:
  5284   002EE6                     l9707:
  5285                           
  5286                           ; BSR set to: 1
  5287   002EE6  5136               	movf	___fltol@sign1& (0+255),w,b
  5288   002EE8  B4D8               	btfsc	status,2,c
  5289   002EEA  EF79  F017         	goto	u9701
  5290   002EEE  EF7B  F017         	goto	u9700
  5291   002EF2                     u9701:
  5292   002EF2  EF83  F017         	goto	l9711
  5293   002EF6                     u9700:
  5294   002EF6                     
  5295                           ; BSR set to: 1
  5296   002EF6  1F31               	comf	(___fltol@f1+3)& (0+255),f,b
  5297   002EF8  1F30               	comf	(___fltol@f1+2)& (0+255),f,b
  5298   002EFA  1F2F               	comf	(___fltol@f1+1)& (0+255),f,b
  5299   002EFC  6D2E               	negf	___fltol@f1& (0+255),b
  5300   002EFE  0E00               	movlw	0
  5301   002F00  232F               	addwfc	(___fltol@f1+1)& (0+255),f,b
  5302   002F02  2330               	addwfc	(___fltol@f1+2)& (0+255),f,b
  5303   002F04  2331               	addwfc	(___fltol@f1+3)& (0+255),f,b
  5304   002F06                     l9711:
  5305                           
  5306                           ; BSR set to: 1
  5307   002F06  C12E  F12E         	movff	___fltol@f1,?___fltol
  5308   002F0A  C12F  F12F         	movff	___fltol@f1+1,?___fltol+1
  5309   002F0E  C130  F130         	movff	___fltol@f1+2,?___fltol+2
  5310   002F12  C131  F131         	movff	___fltol@f1+3,?___fltol+3
  5311   002F16                     l2226:
  5312                           
  5313                           ; BSR set to: 1
  5314   002F16  0012               	return		;funcret
  5315   002F18                     __end_of___fltol:
  5316                           	callstack 0
  5317                           
  5318 ;; *************** function ___flmul *****************
  5319 ;; Defined at:
  5320 ;;		line 8 in file "C:\Program Files\Microchip\xc8\v2.45\pic\sources\c99\common\sprcmul.c"
  5321 ;; Parameters:    Size  Location     Type
  5322 ;;  b               4   38[COMRAM] long 
  5323 ;;  a               4   42[COMRAM] long 
  5324 ;; Auto vars:     Size  Location     Type
  5325 ;;  prod            4   57[COMRAM] struct .
  5326 ;;  grs             4   52[COMRAM] unsigned long 
  5327 ;;  temp            2   61[COMRAM] struct .
  5328 ;;  bexp            1   56[COMRAM] unsigned char 
  5329 ;;  aexp            1   51[COMRAM] unsigned char 
  5330 ;;  sign            1   50[COMRAM] unsigned char 
  5331 ;; Return value:  Size  Location     Type
  5332 ;;                  4   38[COMRAM] unsigned char 
  5333 ;; Registers used:
  5334 ;;		wreg, status,2, status,0, prodl, prodh
  5335 ;; Tracked objects:
  5336 ;;		On entry : 0/0
  5337 ;;		On exit  : 0/0
  5338 ;;		Unchanged: 0/0
  5339 ;; Data sizes:     COMRAM   BANK0   BANK1   BANK2   BANK3   BANK4   BANK5   BANK6   BANK7   BANK8   BANK9  BANK10  BANK1
      +1  BANK12  BANK13  BANK14  BANK15
  5340 ;;      Params:         8       0       0       0       0       0       0       0       0       0       0       0       
      +0       0       0       0       0
  5341 ;;      Locals:        13       0       0       0       0       0       0       0       0       0       0       0       
      +0       0       0       0       0
  5342 ;;      Temps:          4       0       0       0       0       0       0       0       0       0       0       0       
      +0       0       0       0       0
  5343 ;;      Totals:        25       0       0       0       0       0       0       0       0       0       0       0       
      +0       0       0       0       0
  5344 ;;Total ram usage:       25 bytes
  5345 ;; Hardware stack levels used: 1
  5346 ;; Hardware stack levels required when called: 7
  5347 ;; This function calls:
  5348 ;;		Nothing
  5349 ;; This function is called by:
  5350 ;;		_CCP_PWM_Set_Duty
  5351 ;;		_CCP_PWM_Mode_Config
  5352 ;;		_main
  5353 ;; This function uses a non-reentrant model
  5354 ;;
  5355                           
  5356                           	psect	text37
  5357   0014C8                     __ptext37:
  5358                           	callstack 0
  5359   0014C8                     ___flmul:
  5360                           	callstack 23
  5361   0014C8  502A               	movf	(___flmul@b+3)^0,w,c
  5362   0014CA  0B80               	andlw	128
  5363   0014CC  6E33               	movwf	___flmul@sign^0,c
  5364   0014CE  502A               	movf	(___flmul@b+3)^0,w,c
  5365   0014D0  242A               	addwf	(___flmul@b+3)^0,w,c
  5366   0014D2  6E39               	movwf	___flmul@bexp^0,c
  5367   0014D4  AE29               	btfss	(___flmul@b+2)^0,7,c
  5368   0014D6  EF6F  F00A         	goto	u9451
  5369   0014DA  EF71  F00A         	goto	u9450
  5370   0014DE                     u9451:
  5371   0014DE  EF72  F00A         	goto	l9547
  5372   0014E2                     u9450:
  5373   0014E2  8039               	bsf	___flmul@bexp^0,0,c
  5374   0014E4                     l9547:
  5375   0014E4  5039               	movf	___flmul@bexp^0,w,c
  5376   0014E6  B4D8               	btfsc	status,2,c
  5377   0014E8  EF78  F00A         	goto	u9461
  5378   0014EC  EF7A  F00A         	goto	u9460
  5379   0014F0                     u9461:
  5380   0014F0  EF8D  F00A         	goto	l9555
  5381   0014F4                     u9460:
  5382   0014F4  2839               	incf	___flmul@bexp^0,w,c
  5383   0014F6  A4D8               	btfss	status,2,c
  5384   0014F8  EF80  F00A         	goto	u9471
  5385   0014FC  EF82  F00A         	goto	u9470
  5386   001500                     u9471:
  5387   001500  EF8A  F00A         	goto	l9553
  5388   001504                     u9470:
  5389   001504  0E00               	movlw	0
  5390   001506  6E27               	movwf	___flmul@b^0,c
  5391   001508  0E00               	movlw	0
  5392   00150A  6E28               	movwf	(___flmul@b+1)^0,c
  5393   00150C  0E00               	movlw	0
  5394   00150E  6E29               	movwf	(___flmul@b+2)^0,c
  5395   001510  0E00               	movlw	0
  5396   001512  6E2A               	movwf	(___flmul@b+3)^0,c
  5397   001514                     l9553:
  5398   001514  8E29               	bsf	(___flmul@b+2)^0,7,c
  5399   001516  EF95  F00A         	goto	l9557
  5400   00151A                     l9555:
  5401   00151A  0E00               	movlw	0
  5402   00151C  6E27               	movwf	___flmul@b^0,c
  5403   00151E  0E00               	movlw	0
  5404   001520  6E28               	movwf	(___flmul@b+1)^0,c
  5405   001522  0E00               	movlw	0
  5406   001524  6E29               	movwf	(___flmul@b+2)^0,c
  5407   001526  0E00               	movlw	0
  5408   001528  6E2A               	movwf	(___flmul@b+3)^0,c
  5409   00152A                     l9557:
  5410   00152A  502E               	movf	(___flmul@a+3)^0,w,c
  5411   00152C  0B80               	andlw	128
  5412   00152E  1A33               	xorwf	___flmul@sign^0,f,c
  5413   001530  502E               	movf	(___flmul@a+3)^0,w,c
  5414   001532  242E               	addwf	(___flmul@a+3)^0,w,c
  5415   001534  6E34               	movwf	___flmul@aexp^0,c
  5416   001536  AE2D               	btfss	(___flmul@a+2)^0,7,c
  5417   001538  EFA0  F00A         	goto	u9481
  5418   00153C  EFA2  F00A         	goto	u9480
  5419   001540                     u9481:
  5420   001540  EFA3  F00A         	goto	l9565
  5421   001544                     u9480:
  5422   001544  8034               	bsf	___flmul@aexp^0,0,c
  5423   001546                     l9565:
  5424   001546  5034               	movf	___flmul@aexp^0,w,c
  5425   001548  B4D8               	btfsc	status,2,c
  5426   00154A  EFA9  F00A         	goto	u9491
  5427   00154E  EFAB  F00A         	goto	u9490
  5428   001552                     u9491:
  5429   001552  EFBE  F00A         	goto	l9573
  5430   001556                     u9490:
  5431   001556  2834               	incf	___flmul@aexp^0,w,c
  5432   001558  A4D8               	btfss	status,2,c
  5433   00155A  EFB1  F00A         	goto	u9501
  5434   00155E  EFB3  F00A         	goto	u9500
  5435   001562                     u9501:
  5436   001562  EFBB  F00A         	goto	l9571
  5437   001566                     u9500:
  5438   001566  0E00               	movlw	0
  5439   001568  6E2B               	movwf	___flmul@a^0,c
  5440   00156A  0E00               	movlw	0
  5441   00156C  6E2C               	movwf	(___flmul@a+1)^0,c
  5442   00156E  0E00               	movlw	0
  5443   001570  6E2D               	movwf	(___flmul@a+2)^0,c
  5444   001572  0E00               	movlw	0
  5445   001574  6E2E               	movwf	(___flmul@a+3)^0,c
  5446   001576                     l9571:
  5447   001576  8E2D               	bsf	(___flmul@a+2)^0,7,c
  5448   001578  EFC6  F00A         	goto	l2543
  5449   00157C                     l9573:
  5450   00157C  0E00               	movlw	0
  5451   00157E  6E2B               	movwf	___flmul@a^0,c
  5452   001580  0E00               	movlw	0
  5453   001582  6E2C               	movwf	(___flmul@a+1)^0,c
  5454   001584  0E00               	movlw	0
  5455   001586  6E2D               	movwf	(___flmul@a+2)^0,c
  5456   001588  0E00               	movlw	0
  5457   00158A  6E2E               	movwf	(___flmul@a+3)^0,c
  5458   00158C                     l2543:
  5459   00158C  5034               	movf	___flmul@aexp^0,w,c
  5460   00158E  B4D8               	btfsc	status,2,c
  5461   001590  EFCC  F00A         	goto	u9511
  5462   001594  EFCE  F00A         	goto	u9510
  5463   001598                     u9511:
  5464   001598  EFD6  F00A         	goto	l9577
  5465   00159C                     u9510:
  5466   00159C  5039               	movf	___flmul@bexp^0,w,c
  5467   00159E  A4D8               	btfss	status,2,c
  5468   0015A0  EFD4  F00A         	goto	u9521
  5469   0015A4  EFD6  F00A         	goto	u9520
  5470   0015A8                     u9521:
  5471   0015A8  EFE0  F00A         	goto	l9581
  5472   0015AC                     u9520:
  5473   0015AC                     l9577:
  5474   0015AC  0E00               	movlw	0
  5475   0015AE  6E27               	movwf	?___flmul^0,c
  5476   0015B0  0E00               	movlw	0
  5477   0015B2  6E28               	movwf	(?___flmul+1)^0,c
  5478   0015B4  0E00               	movlw	0
  5479   0015B6  6E29               	movwf	(?___flmul+2)^0,c
  5480   0015B8  0E00               	movlw	0
  5481   0015BA  6E2A               	movwf	(?___flmul+3)^0,c
  5482   0015BC  EF78  F00C         	goto	l2547
  5483   0015C0                     l9581:
  5484   0015C0  502D               	movf	(___flmul@a+2)^0,w,c
  5485   0015C2  0227               	mulwf	___flmul@b^0,c
  5486   0015C4  CFF3 F03E          	movff	prodl,___flmul@temp
  5487   0015C8  CFF4 F03F          	movff	prodh,___flmul@temp+1
  5488   0015CC  503E               	movf	___flmul@temp^0,w,c
  5489   0015CE  6E35               	movwf	___flmul@grs^0,c
  5490   0015D0  6A36               	clrf	(___flmul@grs+1)^0,c
  5491   0015D2  6A37               	clrf	(___flmul@grs+2)^0,c
  5492   0015D4  6A38               	clrf	(___flmul@grs+3)^0,c
  5493   0015D6  503F               	movf	(___flmul@temp+1)^0,w,c
  5494   0015D8  6E3A               	movwf	___flmul@prod^0,c
  5495   0015DA  6A3B               	clrf	(___flmul@prod+1)^0,c
  5496   0015DC  6A3C               	clrf	(___flmul@prod+2)^0,c
  5497   0015DE  6A3D               	clrf	(___flmul@prod+3)^0,c
  5498   0015E0  502C               	movf	(___flmul@a+1)^0,w,c
  5499   0015E2  0228               	mulwf	(___flmul@b+1)^0,c
  5500   0015E4  CFF3 F03E          	movff	prodl,___flmul@temp
  5501   0015E8  CFF4 F03F          	movff	prodh,___flmul@temp+1
  5502   0015EC  503E               	movf	___flmul@temp^0,w,c
  5503   0015EE  2635               	addwf	___flmul@grs^0,f,c
  5504   0015F0  0E00               	movlw	0
  5505   0015F2  2236               	addwfc	(___flmul@grs+1)^0,f,c
  5506   0015F4  2237               	addwfc	(___flmul@grs+2)^0,f,c
  5507   0015F6  2238               	addwfc	(___flmul@grs+3)^0,f,c
  5508   0015F8  503F               	movf	(___flmul@temp+1)^0,w,c
  5509   0015FA  263A               	addwf	___flmul@prod^0,f,c
  5510   0015FC  0E00               	movlw	0
  5511   0015FE  223B               	addwfc	(___flmul@prod+1)^0,f,c
  5512   001600  223C               	addwfc	(___flmul@prod+2)^0,f,c
  5513   001602  223D               	addwfc	(___flmul@prod+3)^0,f,c
  5514   001604  502B               	movf	___flmul@a^0,w,c
  5515   001606  0229               	mulwf	(___flmul@b+2)^0,c
  5516   001608  CFF3 F03E          	movff	prodl,___flmul@temp
  5517   00160C  CFF4 F03F          	movff	prodh,___flmul@temp+1
  5518   001610  503E               	movf	___flmul@temp^0,w,c
  5519   001612  2635               	addwf	___flmul@grs^0,f,c
  5520   001614  0E00               	movlw	0
  5521   001616  2236               	addwfc	(___flmul@grs+1)^0,f,c
  5522   001618  2237               	addwfc	(___flmul@grs+2)^0,f,c
  5523   00161A  2238               	addwfc	(___flmul@grs+3)^0,f,c
  5524   00161C  503F               	movf	(___flmul@temp+1)^0,w,c
  5525   00161E  263A               	addwf	___flmul@prod^0,f,c
  5526   001620  0E00               	movlw	0
  5527   001622  223B               	addwfc	(___flmul@prod+1)^0,f,c
  5528   001624  223C               	addwfc	(___flmul@prod+2)^0,f,c
  5529   001626  223D               	addwfc	(___flmul@prod+3)^0,f,c
  5530   001628  C037  F038         	movff	___flmul@grs+2,___flmul@grs+3
  5531   00162C  C036  F037         	movff	___flmul@grs+1,___flmul@grs+2
  5532   001630  C035  F036         	movff	___flmul@grs,___flmul@grs+1
  5533   001634  6A35               	clrf	___flmul@grs^0,c
  5534   001636  502B               	movf	___flmul@a^0,w,c
  5535   001638  0228               	mulwf	(___flmul@b+1)^0,c
  5536   00163A  CFF3 F03E          	movff	prodl,___flmul@temp
  5537   00163E  CFF4 F03F          	movff	prodh,___flmul@temp+1
  5538   001642  503E               	movf	___flmul@temp^0,w,c
  5539   001644  2635               	addwf	___flmul@grs^0,f,c
  5540   001646  503F               	movf	(___flmul@temp+1)^0,w,c
  5541   001648  2236               	addwfc	(___flmul@grs+1)^0,f,c
  5542   00164A  0E00               	movlw	0
  5543   00164C  2237               	addwfc	(___flmul@grs+2)^0,f,c
  5544   00164E  0E00               	movlw	0
  5545   001650  2238               	addwfc	(___flmul@grs+3)^0,f,c
  5546   001652  502C               	movf	(___flmul@a+1)^0,w,c
  5547   001654  0227               	mulwf	___flmul@b^0,c
  5548   001656  CFF3 F03E          	movff	prodl,___flmul@temp
  5549   00165A  CFF4 F03F          	movff	prodh,___flmul@temp+1
  5550   00165E  503E               	movf	___flmul@temp^0,w,c
  5551   001660  2635               	addwf	___flmul@grs^0,f,c
  5552   001662  503F               	movf	(___flmul@temp+1)^0,w,c
  5553   001664  2236               	addwfc	(___flmul@grs+1)^0,f,c
  5554   001666  0E00               	movlw	0
  5555   001668  2237               	addwfc	(___flmul@grs+2)^0,f,c
  5556   00166A  0E00               	movlw	0
  5557   00166C  2238               	addwfc	(___flmul@grs+3)^0,f,c
  5558   00166E  C037  F038         	movff	___flmul@grs+2,___flmul@grs+3
  5559   001672  C036  F037         	movff	___flmul@grs+1,___flmul@grs+2
  5560   001676  C035  F036         	movff	___flmul@grs,___flmul@grs+1
  5561   00167A  6A35               	clrf	___flmul@grs^0,c
  5562   00167C  502B               	movf	___flmul@a^0,w,c
  5563   00167E  0227               	mulwf	___flmul@b^0,c
  5564   001680  CFF3 F03E          	movff	prodl,___flmul@temp
  5565   001684  CFF4 F03F          	movff	prodh,___flmul@temp+1
  5566   001688  503E               	movf	___flmul@temp^0,w,c
  5567   00168A  2635               	addwf	___flmul@grs^0,f,c
  5568   00168C  503F               	movf	(___flmul@temp+1)^0,w,c
  5569   00168E  2236               	addwfc	(___flmul@grs+1)^0,f,c
  5570   001690  0E00               	movlw	0
  5571   001692  2237               	addwfc	(___flmul@grs+2)^0,f,c
  5572   001694  0E00               	movlw	0
  5573   001696  2238               	addwfc	(___flmul@grs+3)^0,f,c
  5574   001698  502D               	movf	(___flmul@a+2)^0,w,c
  5575   00169A  0228               	mulwf	(___flmul@b+1)^0,c
  5576   00169C  CFF3 F03E          	movff	prodl,___flmul@temp
  5577   0016A0  CFF4 F03F          	movff	prodh,___flmul@temp+1
  5578   0016A4  503E               	movf	___flmul@temp^0,w,c
  5579   0016A6  263A               	addwf	___flmul@prod^0,f,c
  5580   0016A8  503F               	movf	(___flmul@temp+1)^0,w,c
  5581   0016AA  223B               	addwfc	(___flmul@prod+1)^0,f,c
  5582   0016AC  0E00               	movlw	0
  5583   0016AE  223C               	addwfc	(___flmul@prod+2)^0,f,c
  5584   0016B0  0E00               	movlw	0
  5585   0016B2  223D               	addwfc	(___flmul@prod+3)^0,f,c
  5586   0016B4  502C               	movf	(___flmul@a+1)^0,w,c
  5587   0016B6  0229               	mulwf	(___flmul@b+2)^0,c
  5588   0016B8  CFF3 F03E          	movff	prodl,___flmul@temp
  5589   0016BC  CFF4 F03F          	movff	prodh,___flmul@temp+1
  5590   0016C0  503E               	movf	___flmul@temp^0,w,c
  5591   0016C2  263A               	addwf	___flmul@prod^0,f,c
  5592   0016C4  503F               	movf	(___flmul@temp+1)^0,w,c
  5593   0016C6  223B               	addwfc	(___flmul@prod+1)^0,f,c
  5594   0016C8  0E00               	movlw	0
  5595   0016CA  223C               	addwfc	(___flmul@prod+2)^0,f,c
  5596   0016CC  0E00               	movlw	0
  5597   0016CE  223D               	addwfc	(___flmul@prod+3)^0,f,c
  5598   0016D0  502D               	movf	(___flmul@a+2)^0,w,c
  5599   0016D2  0229               	mulwf	(___flmul@b+2)^0,c
  5600   0016D4  CFF3 F03E          	movff	prodl,___flmul@temp
  5601   0016D8  CFF4 F03F          	movff	prodh,___flmul@temp+1
  5602   0016DC  503E               	movf	___flmul@temp^0,w,c
  5603   0016DE  6E2F               	movwf	??___flmul^0,c
  5604   0016E0  503F               	movf	(___flmul@temp+1)^0,w,c
  5605   0016E2  6E30               	movwf	(??___flmul+1)^0,c
  5606   0016E4  6A31               	clrf	(??___flmul+2)^0,c
  5607   0016E6  6A32               	clrf	(??___flmul+3)^0,c
  5608   0016E8  C031  F032         	movff	??___flmul+2,??___flmul+3
  5609   0016EC  C030  F031         	movff	??___flmul+1,??___flmul+2
  5610   0016F0  C02F  F030         	movff	??___flmul,??___flmul+1
  5611   0016F4  6A2F               	clrf	??___flmul^0,c
  5612   0016F6  502F               	movf	??___flmul^0,w,c
  5613   0016F8  263A               	addwf	___flmul@prod^0,f,c
  5614   0016FA  5030               	movf	(??___flmul+1)^0,w,c
  5615   0016FC  223B               	addwfc	(___flmul@prod+1)^0,f,c
  5616   0016FE  5031               	movf	(??___flmul+2)^0,w,c
  5617   001700  223C               	addwfc	(___flmul@prod+2)^0,f,c
  5618   001702  5032               	movf	(??___flmul+3)^0,w,c
  5619   001704  223D               	addwfc	(___flmul@prod+3)^0,f,c
  5620   001706  C035  F02F         	movff	___flmul@grs,??___flmul
  5621   00170A  C036  F030         	movff	___flmul@grs+1,??___flmul+1
  5622   00170E  C037  F031         	movff	___flmul@grs+2,??___flmul+2
  5623   001712  C038  F032         	movff	___flmul@grs+3,??___flmul+3
  5624   001716  0E19               	movlw	25
  5625   001718  EF93  F00B         	goto	u9530
  5626   00171C                     u9535:
  5627   00171C  90D8               	bcf	status,0,c
  5628   00171E  3232               	rrcf	(??___flmul+3)^0,f,c
  5629   001720  3231               	rrcf	(??___flmul+2)^0,f,c
  5630   001722  3230               	rrcf	(??___flmul+1)^0,f,c
  5631   001724  322F               	rrcf	??___flmul^0,f,c
  5632   001726                     u9530:
  5633   001726  2EE8               	decfsz	wreg,f,c
  5634   001728  EF8E  F00B         	goto	u9535
  5635   00172C  502F               	movf	??___flmul^0,w,c
  5636   00172E  263A               	addwf	___flmul@prod^0,f,c
  5637   001730  5030               	movf	(??___flmul+1)^0,w,c
  5638   001732  223B               	addwfc	(___flmul@prod+1)^0,f,c
  5639   001734  5031               	movf	(??___flmul+2)^0,w,c
  5640   001736  223C               	addwfc	(___flmul@prod+2)^0,f,c
  5641   001738  5032               	movf	(??___flmul+3)^0,w,c
  5642   00173A  223D               	addwfc	(___flmul@prod+3)^0,f,c
  5643   00173C  C037  F038         	movff	___flmul@grs+2,___flmul@grs+3
  5644   001740  C036  F037         	movff	___flmul@grs+1,___flmul@grs+2
  5645   001744  C035  F036         	movff	___flmul@grs,___flmul@grs+1
  5646   001748  6A35               	clrf	___flmul@grs^0,c
  5647   00174A  5034               	movf	___flmul@aexp^0,w,c
  5648   00174C  C039  F02F         	movff	___flmul@bexp,??___flmul
  5649   001750  6A30               	clrf	(??___flmul+1)^0,c
  5650   001752  262F               	addwf	??___flmul^0,f,c
  5651   001754  0E00               	movlw	0
  5652   001756  2230               	addwfc	(??___flmul+1)^0,f,c
  5653   001758  0E82               	movlw	130
  5654   00175A  242F               	addwf	??___flmul^0,w,c
  5655   00175C  6E3E               	movwf	___flmul@temp^0,c
  5656   00175E  0EFF               	movlw	255
  5657   001760  2030               	addwfc	(??___flmul+1)^0,w,c
  5658   001762  6E3F               	movwf	(___flmul@temp+1)^0,c
  5659   001764  EFC9  F00B         	goto	l9629
  5660   001768                     l9623:
  5661   001768  90D8               	bcf	status,0,c
  5662   00176A  363A               	rlcf	___flmul@prod^0,f,c
  5663   00176C  363B               	rlcf	(___flmul@prod+1)^0,f,c
  5664   00176E  363C               	rlcf	(___flmul@prod+2)^0,f,c
  5665   001770  363D               	rlcf	(___flmul@prod+3)^0,f,c
  5666   001772  AE38               	btfss	(___flmul@grs+3)^0,7,c
  5667   001774  EFBE  F00B         	goto	u9541
  5668   001778  EFC0  F00B         	goto	u9540
  5669   00177C                     u9541:
  5670   00177C  EFC1  F00B         	goto	l2550
  5671   001780                     u9540:
  5672   001780  803A               	bsf	___flmul@prod^0,0,c
  5673   001782                     l2550:
  5674   001782  90D8               	bcf	status,0,c
  5675   001784  3635               	rlcf	___flmul@grs^0,f,c
  5676   001786  3636               	rlcf	(___flmul@grs+1)^0,f,c
  5677   001788  3637               	rlcf	(___flmul@grs+2)^0,f,c
  5678   00178A  3638               	rlcf	(___flmul@grs+3)^0,f,c
  5679   00178C  063E               	decf	___flmul@temp^0,f,c
  5680   00178E  A0D8               	btfss	status,0,c
  5681   001790  063F               	decf	(___flmul@temp+1)^0,f,c
  5682   001792                     l9629:
  5683   001792  AE3C               	btfss	(___flmul@prod+2)^0,7,c
  5684   001794  EFCE  F00B         	goto	u9551
  5685   001798  EFD0  F00B         	goto	u9550
  5686   00179C                     u9551:
  5687   00179C  EFB4  F00B         	goto	l9623
  5688   0017A0                     u9550:
  5689   0017A0  0E00               	movlw	0
  5690   0017A2  6E34               	movwf	___flmul@aexp^0,c
  5691   0017A4  AE38               	btfss	(___flmul@grs+3)^0,7,c
  5692   0017A6  EFD7  F00B         	goto	u9561
  5693   0017AA  EFD9  F00B         	goto	u9560
  5694   0017AE                     u9561:
  5695   0017AE  EFFD  F00B         	goto	l2552
  5696   0017B2                     u9560:
  5697   0017B2  0EFF               	movlw	255
  5698   0017B4  1435               	andwf	___flmul@grs^0,w,c
  5699   0017B6  6E2F               	movwf	??___flmul^0,c
  5700   0017B8  0EFF               	movlw	255
  5701   0017BA  1436               	andwf	(___flmul@grs+1)^0,w,c
  5702   0017BC  6E30               	movwf	(??___flmul+1)^0,c
  5703   0017BE  0EFF               	movlw	255
  5704   0017C0  1437               	andwf	(___flmul@grs+2)^0,w,c
  5705   0017C2  6E31               	movwf	(??___flmul+2)^0,c
  5706   0017C4  0E7F               	movlw	127
  5707   0017C6  1438               	andwf	(___flmul@grs+3)^0,w,c
  5708   0017C8  6E32               	movwf	(??___flmul+3)^0,c
  5709   0017CA  502F               	movf	??___flmul^0,w,c
  5710   0017CC  1030               	iorwf	(??___flmul+1)^0,w,c
  5711   0017CE  1031               	iorwf	(??___flmul+2)^0,w,c
  5712   0017D0  1032               	iorwf	(??___flmul+3)^0,w,c
  5713   0017D2  B4D8               	btfsc	status,2,c
  5714   0017D4  EFEE  F00B         	goto	u9571
  5715   0017D8  EFF0  F00B         	goto	u9570
  5716   0017DC                     u9571:
  5717   0017DC  EFF4  F00B         	goto	l2553
  5718   0017E0                     u9570:
  5719   0017E0                     l9637:
  5720   0017E0  0E01               	movlw	1
  5721   0017E2  6E34               	movwf	___flmul@aexp^0,c
  5722   0017E4  EFFD  F00B         	goto	l2552
  5723   0017E8                     l2553:
  5724   0017E8  A03A               	btfss	___flmul@prod^0,0,c
  5725   0017EA  EFF9  F00B         	goto	u9581
  5726   0017EE  EFFB  F00B         	goto	u9580
  5727   0017F2                     u9581:
  5728   0017F2  EFFD  F00B         	goto	l2552
  5729   0017F6                     u9580:
  5730   0017F6  EFF0  F00B         	goto	l9637
  5731   0017FA                     l2552:
  5732   0017FA  5034               	movf	___flmul@aexp^0,w,c
  5733   0017FC  B4D8               	btfsc	status,2,c
  5734   0017FE  EF03  F00C         	goto	u9591
  5735   001802  EF05  F00C         	goto	u9590
  5736   001806                     u9591:
  5737   001806  EF29  F00C         	goto	l9649
  5738   00180A                     u9590:
  5739   00180A  0E01               	movlw	1
  5740   00180C  263A               	addwf	___flmul@prod^0,f,c
  5741   00180E  0E00               	movlw	0
  5742   001810  223B               	addwfc	(___flmul@prod+1)^0,f,c
  5743   001812  223C               	addwfc	(___flmul@prod+2)^0,f,c
  5744   001814  223D               	addwfc	(___flmul@prod+3)^0,f,c
  5745   001816  A03D               	btfss	(___flmul@prod+3)^0,0,c
  5746   001818  EF10  F00C         	goto	u9601
  5747   00181C  EF12  F00C         	goto	u9600
  5748   001820                     u9601:
  5749   001820  EF29  F00C         	goto	l9649
  5750   001824                     u9600:
  5751   001824  C03A  F02F         	movff	___flmul@prod,??___flmul
  5752   001828  C03B  F030         	movff	___flmul@prod+1,??___flmul+1
  5753   00182C  C03C  F031         	movff	___flmul@prod+2,??___flmul+2
  5754   001830  C03D  F032         	movff	___flmul@prod+3,??___flmul+3
  5755   001834  3432               	rlcf	(??___flmul+3)^0,w,c
  5756   001836  3232               	rrcf	(??___flmul+3)^0,f,c
  5757   001838  3231               	rrcf	(??___flmul+2)^0,f,c
  5758   00183A  3230               	rrcf	(??___flmul+1)^0,f,c
  5759   00183C  322F               	rrcf	??___flmul^0,f,c
  5760   00183E  C02F  F03A         	movff	??___flmul,___flmul@prod
  5761   001842  C030  F03B         	movff	??___flmul+1,___flmul@prod+1
  5762   001846  C031  F03C         	movff	??___flmul+2,___flmul@prod+2
  5763   00184A  C032  F03D         	movff	??___flmul+3,___flmul@prod+3
  5764   00184E  4A3E               	infsnz	___flmul@temp^0,f,c
  5765   001850  2A3F               	incf	(___flmul@temp+1)^0,f,c
  5766   001852                     l9649:
  5767   001852  BE3F               	btfsc	(___flmul@temp+1)^0,7,c
  5768   001854  EF34  F00C         	goto	u9611
  5769   001858  503F               	movf	(___flmul@temp+1)^0,w,c
  5770   00185A  E108               	bnz	u9610
  5771   00185C  283E               	incf	___flmul@temp^0,w,c
  5772   00185E  A0D8               	btfss	status,0,c
  5773   001860  EF34  F00C         	goto	u9611
  5774   001864  EF36  F00C         	goto	u9610
  5775   001868                     u9611:
  5776   001868  EF40  F00C         	goto	l9653
  5777   00186C                     u9610:
  5778   00186C  0E00               	movlw	0
  5779   00186E  6E3A               	movwf	___flmul@prod^0,c
  5780   001870  0E00               	movlw	0
  5781   001872  6E3B               	movwf	(___flmul@prod+1)^0,c
  5782   001874  0E80               	movlw	128
  5783   001876  6E3C               	movwf	(___flmul@prod+2)^0,c
  5784   001878  0E7F               	movlw	127
  5785   00187A  6E3D               	movwf	(___flmul@prod+3)^0,c
  5786   00187C  EF6E  F00C         	goto	l9665
  5787   001880                     l9653:
  5788   001880  BE3F               	btfsc	(___flmul@temp+1)^0,7,c
  5789   001882  EF4D  F00C         	goto	u9620
  5790   001886  503F               	movf	(___flmul@temp+1)^0,w,c
  5791   001888  E106               	bnz	u9621
  5792   00188A  043E               	decf	___flmul@temp^0,w,c
  5793   00188C  B0D8               	btfsc	status,0,c
  5794   00188E  EF4B  F00C         	goto	u9621
  5795   001892  EF4D  F00C         	goto	u9620
  5796   001896                     u9621:
  5797   001896  EF59  F00C         	goto	l2560
  5798   00189A                     u9620:
  5799   00189A  0E00               	movlw	0
  5800   00189C  6E3A               	movwf	___flmul@prod^0,c
  5801   00189E  0E00               	movlw	0
  5802   0018A0  6E3B               	movwf	(___flmul@prod+1)^0,c
  5803   0018A2  0E00               	movlw	0
  5804   0018A4  6E3C               	movwf	(___flmul@prod+2)^0,c
  5805   0018A6  0E00               	movlw	0
  5806   0018A8  6E3D               	movwf	(___flmul@prod+3)^0,c
  5807   0018AA  0E00               	movlw	0
  5808   0018AC  6E33               	movwf	___flmul@sign^0,c
  5809   0018AE  EF6E  F00C         	goto	l9665
  5810   0018B2                     l2560:
  5811   0018B2  C03E  F039         	movff	___flmul@temp,___flmul@bexp
  5812   0018B6  0EFF               	movlw	255
  5813   0018B8  163A               	andwf	___flmul@prod^0,f,c
  5814   0018BA  0EFF               	movlw	255
  5815   0018BC  163B               	andwf	(___flmul@prod+1)^0,f,c
  5816   0018BE  0E7F               	movlw	127
  5817   0018C0  163C               	andwf	(___flmul@prod+2)^0,f,c
  5818   0018C2  0E00               	movlw	0
  5819   0018C4  163D               	andwf	(___flmul@prod+3)^0,f,c
  5820   0018C6  A039               	btfss	___flmul@bexp^0,0,c
  5821   0018C8  EF68  F00C         	goto	u9631
  5822   0018CC  EF6A  F00C         	goto	u9630
  5823   0018D0                     u9631:
  5824   0018D0  EF6B  F00C         	goto	l9663
  5825   0018D4                     u9630:
  5826   0018D4  8E3C               	bsf	(___flmul@prod+2)^0,7,c
  5827   0018D6                     l9663:
  5828   0018D6  90D8               	bcf	status,0,c
  5829   0018D8  3039               	rrcf	___flmul@bexp^0,w,c
  5830   0018DA  6E3D               	movwf	(___flmul@prod+3)^0,c
  5831   0018DC                     l9665:
  5832   0018DC  5033               	movf	___flmul@sign^0,w,c
  5833   0018DE  123D               	iorwf	(___flmul@prod+3)^0,f,c
  5834   0018E0  C03A  F027         	movff	___flmul@prod,?___flmul
  5835   0018E4  C03B  F028         	movff	___flmul@prod+1,?___flmul+1
  5836   0018E8  C03C  F029         	movff	___flmul@prod+2,?___flmul+2
  5837   0018EC  C03D  F02A         	movff	___flmul@prod+3,?___flmul+3
  5838   0018F0                     l2547:
  5839   0018F0  0012               	return		;funcret
  5840   0018F2                     __end_of___flmul:
  5841                           	callstack 0
  5842                           
  5843 ;; *************** function ___fldiv *****************
  5844 ;; Defined at:
  5845 ;;		line 11 in file "C:\Program Files\Microchip\xc8\v2.45\pic\sources\c99\common\sprcdiv.c"
  5846 ;; Parameters:    Size  Location     Type
  5847 ;;  b               4   63[COMRAM] unsigned char 
  5848 ;;  a               4   67[COMRAM] unsigned char 
  5849 ;; Auto vars:     Size  Location     Type
  5850 ;;  grs             4    7[BANK0 ] unsigned long 
  5851 ;;  rem             4    0[BANK0 ] unsigned long 
  5852 ;;  new_exp         2    5[BANK0 ] short 
  5853 ;;  aexp            1   12[BANK0 ] unsigned char 
  5854 ;;  bexp            1   11[BANK0 ] unsigned char 
  5855 ;;  sign            1    4[BANK0 ] unsigned char 
  5856 ;; Return value:  Size  Location     Type
  5857 ;;                  4   63[COMRAM] unsigned char 
  5858 ;; Registers used:
  5859 ;;		wreg, status,2, status,0
  5860 ;; Tracked objects:
  5861 ;;		On entry : 0/0
  5862 ;;		On exit  : 0/0
  5863 ;;		Unchanged: 0/0
  5864 ;; Data sizes:     COMRAM   BANK0   BANK1   BANK2   BANK3   BANK4   BANK5   BANK6   BANK7   BANK8   BANK9  BANK10  BANK1
      +1  BANK12  BANK13  BANK14  BANK15
  5865 ;;      Params:         8       0       0       0       0       0       0       0       0       0       0       0       
      +0       0       0       0       0
  5866 ;;      Locals:         0      13       0       0       0       0       0       0       0       0       0       0       
      +0       0       0       0       0
  5867 ;;      Temps:          4       0       0       0       0       0       0       0       0       0       0       0       
      +0       0       0       0       0
  5868 ;;      Totals:        12      13       0       0       0       0       0       0       0       0       0       0       
      +0       0       0       0       0
  5869 ;;Total ram usage:       25 bytes
  5870 ;; Hardware stack levels used: 1
  5871 ;; Hardware stack levels required when called: 7
  5872 ;; This function calls:
  5873 ;;		Nothing
  5874 ;; This function is called by:
  5875 ;;		_CCP_PWM_Set_Duty
  5876 ;;		_CCP_PWM_Mode_Config
  5877 ;;		_EUSART_Baud_Rate_Calculation
  5878 ;; This function uses a non-reentrant model
  5879 ;;
  5880                           
  5881                           	psect	text38
  5882   001C90                     __ptext38:
  5883                           	callstack 0
  5884   001C90                     ___fldiv:
  5885                           	callstack 20
  5886   001C90  5043               	movf	(___fldiv@b+3)^0,w,c
  5887   001C92  0B80               	andlw	128
  5888   001C94  0100               	movlb	0	; () banked
  5889   001C96  6FEB               	movwf	___fldiv@sign& (0+255),b
  5890   001C98  5043               	movf	(___fldiv@b+3)^0,w,c
  5891   001C9A  2443               	addwf	(___fldiv@b+3)^0,w,c
  5892   001C9C  6FF2               	movwf	___fldiv@bexp& (0+255),b
  5893   001C9E                     
  5894                           ; BSR set to: 0
  5895   001C9E  AE42               	btfss	(___fldiv@b+2)^0,7,c
  5896   001CA0  EF54  F00E         	goto	u9221
  5897   001CA4  EF56  F00E         	goto	u9220
  5898   001CA8                     u9221:
  5899   001CA8  EF57  F00E         	goto	l9409
  5900   001CAC                     u9220:
  5901   001CAC                     
  5902                           ; BSR set to: 0
  5903   001CAC  81F2               	bsf	___fldiv@bexp& (0+255),0,b
  5904   001CAE                     l9409:
  5905                           
  5906                           ; BSR set to: 0
  5907   001CAE  51F2               	movf	___fldiv@bexp& (0+255),w,b
  5908   001CB0  B4D8               	btfsc	status,2,c
  5909   001CB2  EF5D  F00E         	goto	u9231
  5910   001CB6  EF5F  F00E         	goto	u9230
  5911   001CBA                     u9231:
  5912   001CBA  EF74  F00E         	goto	l9419
  5913   001CBE                     u9230:
  5914   001CBE                     
  5915                           ; BSR set to: 0
  5916   001CBE  29F2               	incf	___fldiv@bexp& (0+255),w,b
  5917   001CC0  A4D8               	btfss	status,2,c
  5918   001CC2  EF65  F00E         	goto	u9241
  5919   001CC6  EF67  F00E         	goto	u9240
  5920   001CCA                     u9241:
  5921   001CCA  EF6F  F00E         	goto	l9415
  5922   001CCE                     u9240:
  5923   001CCE                     
  5924                           ; BSR set to: 0
  5925   001CCE  0E00               	movlw	0
  5926   001CD0  6E40               	movwf	___fldiv@b^0,c
  5927   001CD2  0E00               	movlw	0
  5928   001CD4  6E41               	movwf	(___fldiv@b+1)^0,c
  5929   001CD6  0E00               	movlw	0
  5930   001CD8  6E42               	movwf	(___fldiv@b+2)^0,c
  5931   001CDA  0E00               	movlw	0
  5932   001CDC  6E43               	movwf	(___fldiv@b+3)^0,c
  5933   001CDE                     l9415:
  5934                           
  5935                           ; BSR set to: 0
  5936   001CDE  8E42               	bsf	(___fldiv@b+2)^0,7,c
  5937   001CE0                     
  5938                           ; BSR set to: 0
  5939   001CE0  0E00               	movlw	0
  5940   001CE2  6E43               	movwf	(___fldiv@b+3)^0,c
  5941   001CE4  EF7C  F00E         	goto	l9421
  5942   001CE8                     l9419:
  5943                           
  5944                           ; BSR set to: 0
  5945   001CE8  0E00               	movlw	0
  5946   001CEA  6E40               	movwf	___fldiv@b^0,c
  5947   001CEC  0E00               	movlw	0
  5948   001CEE  6E41               	movwf	(___fldiv@b+1)^0,c
  5949   001CF0  0E00               	movlw	0
  5950   001CF2  6E42               	movwf	(___fldiv@b+2)^0,c
  5951   001CF4  0E00               	movlw	0
  5952   001CF6  6E43               	movwf	(___fldiv@b+3)^0,c
  5953   001CF8                     l9421:
  5954                           
  5955                           ; BSR set to: 0
  5956   001CF8  5047               	movf	(___fldiv@a+3)^0,w,c
  5957   001CFA  0B80               	andlw	128
  5958   001CFC  1BEB               	xorwf	___fldiv@sign& (0+255),f,b
  5959   001CFE                     
  5960                           ; BSR set to: 0
  5961   001CFE  5047               	movf	(___fldiv@a+3)^0,w,c
  5962   001D00  2447               	addwf	(___fldiv@a+3)^0,w,c
  5963   001D02  6FF3               	movwf	___fldiv@aexp& (0+255),b
  5964   001D04                     
  5965                           ; BSR set to: 0
  5966   001D04  AE46               	btfss	(___fldiv@a+2)^0,7,c
  5967   001D06  EF87  F00E         	goto	u9251
  5968   001D0A  EF89  F00E         	goto	u9250
  5969   001D0E                     u9251:
  5970   001D0E  EF8A  F00E         	goto	l9429
  5971   001D12                     u9250:
  5972   001D12                     
  5973                           ; BSR set to: 0
  5974   001D12  81F3               	bsf	___fldiv@aexp& (0+255),0,b
  5975   001D14                     l9429:
  5976                           
  5977                           ; BSR set to: 0
  5978   001D14  51F3               	movf	___fldiv@aexp& (0+255),w,b
  5979   001D16  B4D8               	btfsc	status,2,c
  5980   001D18  EF90  F00E         	goto	u9261
  5981   001D1C  EF92  F00E         	goto	u9260
  5982   001D20                     u9261:
  5983   001D20  EFA7  F00E         	goto	l9439
  5984   001D24                     u9260:
  5985   001D24                     
  5986                           ; BSR set to: 0
  5987   001D24  29F3               	incf	___fldiv@aexp& (0+255),w,b
  5988   001D26  A4D8               	btfss	status,2,c
  5989   001D28  EF98  F00E         	goto	u9271
  5990   001D2C  EF9A  F00E         	goto	u9270
  5991   001D30                     u9271:
  5992   001D30  EFA2  F00E         	goto	l9435
  5993   001D34                     u9270:
  5994   001D34                     
  5995                           ; BSR set to: 0
  5996   001D34  0E00               	movlw	0
  5997   001D36  6E44               	movwf	___fldiv@a^0,c
  5998   001D38  0E00               	movlw	0
  5999   001D3A  6E45               	movwf	(___fldiv@a+1)^0,c
  6000   001D3C  0E00               	movlw	0
  6001   001D3E  6E46               	movwf	(___fldiv@a+2)^0,c
  6002   001D40  0E00               	movlw	0
  6003   001D42  6E47               	movwf	(___fldiv@a+3)^0,c
  6004   001D44                     l9435:
  6005                           
  6006                           ; BSR set to: 0
  6007   001D44  8E46               	bsf	(___fldiv@a+2)^0,7,c
  6008   001D46                     
  6009                           ; BSR set to: 0
  6010   001D46  0E00               	movlw	0
  6011   001D48  6E47               	movwf	(___fldiv@a+3)^0,c
  6012   001D4A  EFAF  F00E         	goto	l9441
  6013   001D4E                     l9439:
  6014                           
  6015                           ; BSR set to: 0
  6016   001D4E  0E00               	movlw	0
  6017   001D50  6E44               	movwf	___fldiv@a^0,c
  6018   001D52  0E00               	movlw	0
  6019   001D54  6E45               	movwf	(___fldiv@a+1)^0,c
  6020   001D56  0E00               	movlw	0
  6021   001D58  6E46               	movwf	(___fldiv@a+2)^0,c
  6022   001D5A  0E00               	movlw	0
  6023   001D5C  6E47               	movwf	(___fldiv@a+3)^0,c
  6024   001D5E                     l9441:
  6025                           
  6026                           ; BSR set to: 0
  6027   001D5E  5044               	movf	___fldiv@a^0,w,c
  6028   001D60  1045               	iorwf	(___fldiv@a+1)^0,w,c
  6029   001D62  1046               	iorwf	(___fldiv@a+2)^0,w,c
  6030   001D64  1047               	iorwf	(___fldiv@a+3)^0,w,c
  6031   001D66  A4D8               	btfss	status,2,c
  6032   001D68  EFB8  F00E         	goto	u9281
  6033   001D6C  EFBA  F00E         	goto	u9280
  6034   001D70                     u9281:
  6035   001D70  EFD2  F00E         	goto	l9453
  6036   001D74                     u9280:
  6037   001D74                     
  6038                           ; BSR set to: 0
  6039   001D74  0E00               	movlw	0
  6040   001D76  6E40               	movwf	___fldiv@b^0,c
  6041   001D78  0E00               	movlw	0
  6042   001D7A  6E41               	movwf	(___fldiv@b+1)^0,c
  6043   001D7C  0E00               	movlw	0
  6044   001D7E  6E42               	movwf	(___fldiv@b+2)^0,c
  6045   001D80  0E00               	movlw	0
  6046   001D82  6E43               	movwf	(___fldiv@b+3)^0,c
  6047   001D84                     
  6048                           ; BSR set to: 0
  6049   001D84  0E80               	movlw	128
  6050   001D86  1242               	iorwf	(___fldiv@b+2)^0,f,c
  6051   001D88  0E7F               	movlw	127
  6052   001D8A  1243               	iorwf	(___fldiv@b+3)^0,f,c
  6053   001D8C                     l9447:
  6054                           
  6055                           ; BSR set to: 0
  6056   001D8C  51EB               	movf	___fldiv@sign& (0+255),w,b
  6057   001D8E  1243               	iorwf	(___fldiv@b+3)^0,f,c
  6058   001D90                     
  6059                           ; BSR set to: 0
  6060   001D90  C040  F040         	movff	___fldiv@b,?___fldiv
  6061   001D94  C041  F041         	movff	___fldiv@b+1,?___fldiv+1
  6062   001D98  C042  F042         	movff	___fldiv@b+2,?___fldiv+2
  6063   001D9C  C043  F043         	movff	___fldiv@b+3,?___fldiv+3
  6064   001DA0  EF15  F010         	goto	l2511
  6065   001DA4                     l9453:
  6066                           
  6067                           ; BSR set to: 0
  6068   001DA4  51F2               	movf	___fldiv@bexp& (0+255),w,b
  6069   001DA6  A4D8               	btfss	status,2,c
  6070   001DA8  EFD8  F00E         	goto	u9291
  6071   001DAC  EFDA  F00E         	goto	u9290
  6072   001DB0                     u9291:
  6073   001DB0  EFE4  F00E         	goto	l9461
  6074   001DB4                     u9290:
  6075   001DB4                     
  6076                           ; BSR set to: 0
  6077   001DB4  0E00               	movlw	0
  6078   001DB6  6E40               	movwf	?___fldiv^0,c
  6079   001DB8  0E00               	movlw	0
  6080   001DBA  6E41               	movwf	(?___fldiv+1)^0,c
  6081   001DBC  0E00               	movlw	0
  6082   001DBE  6E42               	movwf	(?___fldiv+2)^0,c
  6083   001DC0  0E00               	movlw	0
  6084   001DC2  6E43               	movwf	(?___fldiv+3)^0,c
  6085   001DC4  EF15  F010         	goto	l2511
  6086   001DC8                     l9461:
  6087                           
  6088                           ; BSR set to: 0
  6089   001DC8  51F3               	movf	___fldiv@aexp& (0+255),w,b
  6090   001DCA  C0F2  F048         	movff	___fldiv@bexp,??___fldiv
  6091   001DCE  6A49               	clrf	(??___fldiv+1)^0,c
  6092   001DD0  5E48               	subwf	??___fldiv^0,f,c
  6093   001DD2  0E00               	movlw	0
  6094   001DD4  5A49               	subwfb	(??___fldiv+1)^0,f,c
  6095   001DD6  0E7F               	movlw	127
  6096   001DD8  2448               	addwf	??___fldiv^0,w,c
  6097   001DDA  6FEC               	movwf	___fldiv@new_exp& (0+255),b
  6098   001DDC  0E00               	movlw	0
  6099   001DDE  2049               	addwfc	(??___fldiv+1)^0,w,c
  6100   001DE0  6FED               	movwf	(___fldiv@new_exp+1)& (0+255),b
  6101   001DE2                     
  6102                           ; BSR set to: 0
  6103   001DE2  C040  F0E7         	movff	___fldiv@b,___fldiv@rem
  6104   001DE6  C041  F0E8         	movff	___fldiv@b+1,___fldiv@rem+1
  6105   001DEA  C042  F0E9         	movff	___fldiv@b+2,___fldiv@rem+2
  6106   001DEE  C043  F0EA         	movff	___fldiv@b+3,___fldiv@rem+3
  6107   001DF2                     
  6108                           ; BSR set to: 0
  6109   001DF2  0E00               	movlw	0
  6110   001DF4  6E40               	movwf	___fldiv@b^0,c
  6111   001DF6  0E00               	movlw	0
  6112   001DF8  6E41               	movwf	(___fldiv@b+1)^0,c
  6113   001DFA  0E00               	movlw	0
  6114   001DFC  6E42               	movwf	(___fldiv@b+2)^0,c
  6115   001DFE  0E00               	movlw	0
  6116   001E00  6E43               	movwf	(___fldiv@b+3)^0,c
  6117   001E02                     
  6118                           ; BSR set to: 0
  6119   001E02  0E00               	movlw	0
  6120   001E04  6FEE               	movwf	___fldiv@grs& (0+255),b
  6121   001E06  0E00               	movlw	0
  6122   001E08  6FEF               	movwf	(___fldiv@grs+1)& (0+255),b
  6123   001E0A  0E00               	movlw	0
  6124   001E0C  6FF0               	movwf	(___fldiv@grs+2)& (0+255),b
  6125   001E0E  0E00               	movlw	0
  6126   001E10  6FF1               	movwf	(___fldiv@grs+3)& (0+255),b
  6127   001E12                     
  6128                           ; BSR set to: 0
  6129   001E12  0E00               	movlw	0
  6130   001E14  6FF3               	movwf	___fldiv@aexp& (0+255),b
  6131   001E16  EF45  F00F         	goto	l2513
  6132   001E1A                     l9471:
  6133                           
  6134                           ; BSR set to: 0
  6135   001E1A  51F3               	movf	___fldiv@aexp& (0+255),w,b
  6136   001E1C  B4D8               	btfsc	status,2,c
  6137   001E1E  EF13  F00F         	goto	u9301
  6138   001E22  EF15  F00F         	goto	u9300
  6139   001E26                     u9301:
  6140   001E26  EF2C  F00F         	goto	l9479
  6141   001E2A                     u9300:
  6142   001E2A                     
  6143                           ; BSR set to: 0
  6144   001E2A  90D8               	bcf	status,0,c
  6145   001E2C  37E7               	rlcf	___fldiv@rem& (0+255),f,b
  6146   001E2E  37E8               	rlcf	(___fldiv@rem+1)& (0+255),f,b
  6147   001E30  37E9               	rlcf	(___fldiv@rem+2)& (0+255),f,b
  6148   001E32  37EA               	rlcf	(___fldiv@rem+3)& (0+255),f,b
  6149   001E34  90D8               	bcf	status,0,c
  6150   001E36  3640               	rlcf	___fldiv@b^0,f,c
  6151   001E38  3641               	rlcf	(___fldiv@b+1)^0,f,c
  6152   001E3A  3642               	rlcf	(___fldiv@b+2)^0,f,c
  6153   001E3C  3643               	rlcf	(___fldiv@b+3)^0,f,c
  6154   001E3E                     
  6155                           ; BSR set to: 0
  6156   001E3E  AFF1               	btfss	(___fldiv@grs+3)& (0+255),7,b
  6157   001E40  EF24  F00F         	goto	u9311
  6158   001E44  EF26  F00F         	goto	u9310
  6159   001E48                     u9311:
  6160   001E48  EF27  F00F         	goto	l2516
  6161   001E4C                     u9310:
  6162   001E4C                     
  6163                           ; BSR set to: 0
  6164   001E4C  8040               	bsf	___fldiv@b^0,0,c
  6165   001E4E                     l2516:
  6166                           
  6167                           ; BSR set to: 0
  6168   001E4E  90D8               	bcf	status,0,c
  6169   001E50  37EE               	rlcf	___fldiv@grs& (0+255),f,b
  6170   001E52  37EF               	rlcf	(___fldiv@grs+1)& (0+255),f,b
  6171   001E54  37F0               	rlcf	(___fldiv@grs+2)& (0+255),f,b
  6172   001E56  37F1               	rlcf	(___fldiv@grs+3)& (0+255),f,b
  6173   001E58                     l9479:
  6174                           
  6175                           ; BSR set to: 0
  6176   001E58  5044               	movf	___fldiv@a^0,w,c
  6177   001E5A  5DE7               	subwf	___fldiv@rem& (0+255),w,b
  6178   001E5C  5045               	movf	(___fldiv@a+1)^0,w,c
  6179   001E5E  59E8               	subwfb	(___fldiv@rem+1)& (0+255),w,b
  6180   001E60  5046               	movf	(___fldiv@a+2)^0,w,c
  6181   001E62  59E9               	subwfb	(___fldiv@rem+2)& (0+255),w,b
  6182   001E64  5047               	movf	(___fldiv@a+3)^0,w,c
  6183   001E66  59EA               	subwfb	(___fldiv@rem+3)& (0+255),w,b
  6184   001E68  A0D8               	btfss	status,0,c
  6185   001E6A  EF39  F00F         	goto	u9321
  6186   001E6E  EF3B  F00F         	goto	u9320
  6187   001E72                     u9321:
  6188   001E72  EF44  F00F         	goto	l9485
  6189   001E76                     u9320:
  6190   001E76                     
  6191                           ; BSR set to: 0
  6192   001E76  8DF1               	bsf	(___fldiv@grs+3)& (0+255),6,b
  6193   001E78                     
  6194                           ; BSR set to: 0
  6195   001E78  5044               	movf	___fldiv@a^0,w,c
  6196   001E7A  5FE7               	subwf	___fldiv@rem& (0+255),f,b
  6197   001E7C  5045               	movf	(___fldiv@a+1)^0,w,c
  6198   001E7E  5BE8               	subwfb	(___fldiv@rem+1)& (0+255),f,b
  6199   001E80  5046               	movf	(___fldiv@a+2)^0,w,c
  6200   001E82  5BE9               	subwfb	(___fldiv@rem+2)& (0+255),f,b
  6201   001E84  5047               	movf	(___fldiv@a+3)^0,w,c
  6202   001E86  5BEA               	subwfb	(___fldiv@rem+3)& (0+255),f,b
  6203   001E88                     l9485:
  6204                           
  6205                           ; BSR set to: 0
  6206   001E88  2BF3               	incf	___fldiv@aexp& (0+255),f,b
  6207   001E8A                     l2513:
  6208                           
  6209                           ; BSR set to: 0
  6210   001E8A  0E19               	movlw	25
  6211   001E8C  65F3               	cpfsgt	___fldiv@aexp& (0+255),b
  6212   001E8E  EF4B  F00F         	goto	u9331
  6213   001E92  EF4D  F00F         	goto	u9330
  6214   001E96                     u9331:
  6215   001E96  EF0D  F00F         	goto	l9471
  6216   001E9A                     u9330:
  6217   001E9A                     
  6218                           ; BSR set to: 0
  6219   001E9A  51E7               	movf	___fldiv@rem& (0+255),w,b
  6220   001E9C  11E8               	iorwf	(___fldiv@rem+1)& (0+255),w,b
  6221   001E9E  11E9               	iorwf	(___fldiv@rem+2)& (0+255),w,b
  6222   001EA0  11EA               	iorwf	(___fldiv@rem+3)& (0+255),w,b
  6223   001EA2  B4D8               	btfsc	status,2,c
  6224   001EA4  EF56  F00F         	goto	u9341
  6225   001EA8  EF58  F00F         	goto	u9340
  6226   001EAC                     u9341:
  6227   001EAC  EF70  F00F         	goto	l9497
  6228   001EB0                     u9340:
  6229   001EB0                     
  6230                           ; BSR set to: 0
  6231   001EB0  81EE               	bsf	___fldiv@grs& (0+255),0,b
  6232   001EB2  EF70  F00F         	goto	l9497
  6233   001EB6                     l9491:
  6234                           
  6235                           ; BSR set to: 0
  6236   001EB6  90D8               	bcf	status,0,c
  6237   001EB8  3640               	rlcf	___fldiv@b^0,f,c
  6238   001EBA  3641               	rlcf	(___fldiv@b+1)^0,f,c
  6239   001EBC  3642               	rlcf	(___fldiv@b+2)^0,f,c
  6240   001EBE  3643               	rlcf	(___fldiv@b+3)^0,f,c
  6241   001EC0                     
  6242                           ; BSR set to: 0
  6243   001EC0  AFF1               	btfss	(___fldiv@grs+3)& (0+255),7,b
  6244   001EC2  EF65  F00F         	goto	u9351
  6245   001EC6  EF67  F00F         	goto	u9350
  6246   001ECA                     u9351:
  6247   001ECA  EF68  F00F         	goto	l2522
  6248   001ECE                     u9350:
  6249   001ECE                     
  6250                           ; BSR set to: 0
  6251   001ECE  8040               	bsf	___fldiv@b^0,0,c
  6252   001ED0                     l2522:
  6253                           
  6254                           ; BSR set to: 0
  6255   001ED0  90D8               	bcf	status,0,c
  6256   001ED2  37EE               	rlcf	___fldiv@grs& (0+255),f,b
  6257   001ED4  37EF               	rlcf	(___fldiv@grs+1)& (0+255),f,b
  6258   001ED6  37F0               	rlcf	(___fldiv@grs+2)& (0+255),f,b
  6259   001ED8  37F1               	rlcf	(___fldiv@grs+3)& (0+255),f,b
  6260   001EDA  07EC               	decf	___fldiv@new_exp& (0+255),f,b
  6261   001EDC  A0D8               	btfss	status,0,c
  6262   001EDE  07ED               	decf	(___fldiv@new_exp+1)& (0+255),f,b
  6263   001EE0                     l9497:
  6264                           
  6265                           ; BSR set to: 0
  6266   001EE0  AE42               	btfss	(___fldiv@b+2)^0,7,c
  6267   001EE2  EF75  F00F         	goto	u9361
  6268   001EE6  EF77  F00F         	goto	u9360
  6269   001EEA                     u9361:
  6270   001EEA  EF5B  F00F         	goto	l9491
  6271   001EEE                     u9360:
  6272   001EEE                     
  6273                           ; BSR set to: 0
  6274   001EEE  0E00               	movlw	0
  6275   001EF0  6FF3               	movwf	___fldiv@aexp& (0+255),b
  6276   001EF2                     
  6277                           ; BSR set to: 0
  6278   001EF2  AFF1               	btfss	(___fldiv@grs+3)& (0+255),7,b
  6279   001EF4  EF7E  F00F         	goto	u9371
  6280   001EF8  EF80  F00F         	goto	u9370
  6281   001EFC                     u9371:
  6282   001EFC  EFA4  F00F         	goto	l2524
  6283   001F00                     u9370:
  6284   001F00                     
  6285                           ; BSR set to: 0
  6286   001F00  0EFF               	movlw	255
  6287   001F02  15EE               	andwf	___fldiv@grs& (0+255),w,b
  6288   001F04  6E48               	movwf	??___fldiv^0,c
  6289   001F06  0EFF               	movlw	255
  6290   001F08  15EF               	andwf	(___fldiv@grs+1)& (0+255),w,b
  6291   001F0A  6E49               	movwf	(??___fldiv+1)^0,c
  6292   001F0C  0EFF               	movlw	255
  6293   001F0E  15F0               	andwf	(___fldiv@grs+2)& (0+255),w,b
  6294   001F10  6E4A               	movwf	(??___fldiv+2)^0,c
  6295   001F12  0E7F               	movlw	127
  6296   001F14  15F1               	andwf	(___fldiv@grs+3)& (0+255),w,b
  6297   001F16  6E4B               	movwf	(??___fldiv+3)^0,c
  6298   001F18  5048               	movf	??___fldiv^0,w,c
  6299   001F1A  1049               	iorwf	(??___fldiv+1)^0,w,c
  6300   001F1C  104A               	iorwf	(??___fldiv+2)^0,w,c
  6301   001F1E  104B               	iorwf	(??___fldiv+3)^0,w,c
  6302   001F20  B4D8               	btfsc	status,2,c
  6303   001F22  EF95  F00F         	goto	u9381
  6304   001F26  EF97  F00F         	goto	u9380
  6305   001F2A                     u9381:
  6306   001F2A  EF9B  F00F         	goto	l2525
  6307   001F2E                     u9380:
  6308   001F2E                     l9505:
  6309                           
  6310                           ; BSR set to: 0
  6311   001F2E  0E01               	movlw	1
  6312   001F30  6FF3               	movwf	___fldiv@aexp& (0+255),b
  6313   001F32  EFA4  F00F         	goto	l2524
  6314   001F36                     l2525:
  6315                           
  6316                           ; BSR set to: 0
  6317   001F36  A040               	btfss	___fldiv@b^0,0,c
  6318   001F38  EFA0  F00F         	goto	u9391
  6319   001F3C  EFA2  F00F         	goto	u9390
  6320   001F40                     u9391:
  6321   001F40  EFA4  F00F         	goto	l2524
  6322   001F44                     u9390:
  6323   001F44  EF97  F00F         	goto	l9505
  6324   001F48                     l2524:
  6325                           
  6326                           ; BSR set to: 0
  6327   001F48  51F3               	movf	___fldiv@aexp& (0+255),w,b
  6328   001F4A  B4D8               	btfsc	status,2,c
  6329   001F4C  EFAA  F00F         	goto	u9401
  6330   001F50  EFAC  F00F         	goto	u9400
  6331   001F54                     u9401:
  6332   001F54  EFD0  F00F         	goto	l9517
  6333   001F58                     u9400:
  6334   001F58                     
  6335                           ; BSR set to: 0
  6336   001F58  0E01               	movlw	1
  6337   001F5A  2640               	addwf	___fldiv@b^0,f,c
  6338   001F5C  0E00               	movlw	0
  6339   001F5E  2241               	addwfc	(___fldiv@b+1)^0,f,c
  6340   001F60  2242               	addwfc	(___fldiv@b+2)^0,f,c
  6341   001F62  2243               	addwfc	(___fldiv@b+3)^0,f,c
  6342   001F64                     
  6343                           ; BSR set to: 0
  6344   001F64  A043               	btfss	(___fldiv@b+3)^0,0,c
  6345   001F66  EFB7  F00F         	goto	u9411
  6346   001F6A  EFB9  F00F         	goto	u9410
  6347   001F6E                     u9411:
  6348   001F6E  EFD0  F00F         	goto	l9517
  6349   001F72                     u9410:
  6350   001F72                     
  6351                           ; BSR set to: 0
  6352   001F72  C040  F048         	movff	___fldiv@b,??___fldiv
  6353   001F76  C041  F049         	movff	___fldiv@b+1,??___fldiv+1
  6354   001F7A  C042  F04A         	movff	___fldiv@b+2,??___fldiv+2
  6355   001F7E  C043  F04B         	movff	___fldiv@b+3,??___fldiv+3
  6356   001F82  344B               	rlcf	(??___fldiv+3)^0,w,c
  6357   001F84  324B               	rrcf	(??___fldiv+3)^0,f,c
  6358   001F86  324A               	rrcf	(??___fldiv+2)^0,f,c
  6359   001F88  3249               	rrcf	(??___fldiv+1)^0,f,c
  6360   001F8A  3248               	rrcf	??___fldiv^0,f,c
  6361   001F8C  C048  F040         	movff	??___fldiv,___fldiv@b
  6362   001F90  C049  F041         	movff	??___fldiv+1,___fldiv@b+1
  6363   001F94  C04A  F042         	movff	??___fldiv+2,___fldiv@b+2
  6364   001F98  C04B  F043         	movff	??___fldiv+3,___fldiv@b+3
  6365   001F9C                     
  6366                           ; BSR set to: 0
  6367   001F9C  4BEC               	infsnz	___fldiv@new_exp& (0+255),f,b
  6368   001F9E  2BED               	incf	(___fldiv@new_exp+1)& (0+255),f,b
  6369   001FA0                     l9517:
  6370                           
  6371                           ; BSR set to: 0
  6372   001FA0  BFED               	btfsc	(___fldiv@new_exp+1)& (0+255),7,b
  6373   001FA2  EFDB  F00F         	goto	u9421
  6374   001FA6  51ED               	movf	(___fldiv@new_exp+1)& (0+255),w,b
  6375   001FA8  E108               	bnz	u9420
  6376   001FAA  29EC               	incf	___fldiv@new_exp& (0+255),w,b
  6377   001FAC  A0D8               	btfss	status,0,c
  6378   001FAE  EFDB  F00F         	goto	u9421
  6379   001FB2  EFDD  F00F         	goto	u9420
  6380   001FB6                     u9421:
  6381   001FB6  EFE8  F00F         	goto	l9521
  6382   001FBA                     u9420:
  6383   001FBA                     
  6384                           ; BSR set to: 0
  6385   001FBA  0E00               	movlw	0
  6386   001FBC  6FED               	movwf	(___fldiv@new_exp+1)& (0+255),b
  6387   001FBE  69EC               	setf	___fldiv@new_exp& (0+255),b
  6388   001FC0  0E00               	movlw	0
  6389   001FC2  6E40               	movwf	___fldiv@b^0,c
  6390   001FC4  0E00               	movlw	0
  6391   001FC6  6E41               	movwf	(___fldiv@b+1)^0,c
  6392   001FC8  0E00               	movlw	0
  6393   001FCA  6E42               	movwf	(___fldiv@b+2)^0,c
  6394   001FCC  0E00               	movlw	0
  6395   001FCE  6E43               	movwf	(___fldiv@b+3)^0,c
  6396   001FD0                     l9521:
  6397                           
  6398                           ; BSR set to: 0
  6399   001FD0  BFED               	btfsc	(___fldiv@new_exp+1)& (0+255),7,b
  6400   001FD2  EFF5  F00F         	goto	u9430
  6401   001FD6  51ED               	movf	(___fldiv@new_exp+1)& (0+255),w,b
  6402   001FD8  E106               	bnz	u9431
  6403   001FDA  05EC               	decf	___fldiv@new_exp& (0+255),w,b
  6404   001FDC  B0D8               	btfsc	status,0,c
  6405   001FDE  EFF3  F00F         	goto	u9431
  6406   001FE2  EFF5  F00F         	goto	u9430
  6407   001FE6                     u9431:
  6408   001FE6  EF03  F010         	goto	l9525
  6409   001FEA                     u9430:
  6410   001FEA                     
  6411                           ; BSR set to: 0
  6412   001FEA  0E00               	movlw	0
  6413   001FEC  6FED               	movwf	(___fldiv@new_exp+1)& (0+255),b
  6414   001FEE  0E00               	movlw	0
  6415   001FF0  6FEC               	movwf	___fldiv@new_exp& (0+255),b
  6416   001FF2  0E00               	movlw	0
  6417   001FF4  6E40               	movwf	___fldiv@b^0,c
  6418   001FF6  0E00               	movlw	0
  6419   001FF8  6E41               	movwf	(___fldiv@b+1)^0,c
  6420   001FFA  0E00               	movlw	0
  6421   001FFC  6E42               	movwf	(___fldiv@b+2)^0,c
  6422   001FFE  0E00               	movlw	0
  6423   002000  6E43               	movwf	(___fldiv@b+3)^0,c
  6424   002002  0E00               	movlw	0
  6425   002004  6FEB               	movwf	___fldiv@sign& (0+255),b
  6426   002006                     l9525:
  6427                           
  6428                           ; BSR set to: 0
  6429   002006  C0EC  F0F2         	movff	___fldiv@new_exp,___fldiv@bexp
  6430   00200A                     
  6431                           ; BSR set to: 0
  6432   00200A  A1F2               	btfss	___fldiv@bexp& (0+255),0,b
  6433   00200C  EF0A  F010         	goto	u9441
  6434   002010  EF0C  F010         	goto	u9440
  6435   002014                     u9441:
  6436   002014  EF0F  F010         	goto	l9531
  6437   002018                     u9440:
  6438   002018                     
  6439                           ; BSR set to: 0
  6440   002018  8E42               	bsf	(___fldiv@b+2)^0,7,c
  6441   00201A  EF10  F010         	goto	l9533
  6442   00201E                     l9531:
  6443                           
  6444                           ; BSR set to: 0
  6445   00201E  9E42               	bcf	(___fldiv@b+2)^0,7,c
  6446   002020                     l9533:
  6447                           
  6448                           ; BSR set to: 0
  6449   002020  90D8               	bcf	status,0,c
  6450   002022  31F2               	rrcf	___fldiv@bexp& (0+255),w,b
  6451   002024  6E43               	movwf	(___fldiv@b+3)^0,c
  6452   002026  EFC6  F00E         	goto	l9447
  6453   00202A                     l2511:
  6454                           
  6455                           ; BSR set to: 0
  6456   00202A  0012               	return		;funcret
  6457   00202C                     __end_of___fldiv:
  6458                           	callstack 0
  6459                           
  6460 ;; *************** function ___fladd *****************
  6461 ;; Defined at:
  6462 ;;		line 10 in file "C:\Program Files\Microchip\xc8\v2.45\pic\sources\c99\common\sprcadd.c"
  6463 ;; Parameters:    Size  Location     Type
  6464 ;;  b               4   13[BANK0 ] unsigned char 
  6465 ;;  a               4   17[BANK0 ] unsigned char 
  6466 ;; Auto vars:     Size  Location     Type
  6467 ;;  grs             1   24[BANK0 ] unsigned char 
  6468 ;;  bexp            1   23[BANK0 ] unsigned char 
  6469 ;;  aexp            1   22[BANK0 ] unsigned char 
  6470 ;;  signs           1   21[BANK0 ] unsigned char 
  6471 ;; Return value:  Size  Location     Type
  6472 ;;                  4   13[BANK0 ] unsigned char 
  6473 ;; Registers used:
  6474 ;;		wreg, status,2, status,0
  6475 ;; Tracked objects:
  6476 ;;		On entry : 0/0
  6477 ;;		On exit  : 0/0
  6478 ;;		Unchanged: 0/0
  6479 ;; Data sizes:     COMRAM   BANK0   BANK1   BANK2   BANK3   BANK4   BANK5   BANK6   BANK7   BANK8   BANK9  BANK10  BANK1
      +1  BANK12  BANK13  BANK14  BANK15
  6480 ;;      Params:         0       8       0       0       0       0       0       0       0       0       0       0       
      +0       0       0       0       0
  6481 ;;      Locals:         0       4       0       0       0       0       0       0       0       0       0       0       
      +0       0       0       0       0
  6482 ;;      Temps:          4       0       0       0       0       0       0       0       0       0       0       0       
      +0       0       0       0       0
  6483 ;;      Totals:         4      12       0       0       0       0       0       0       0       0       0       0       
      +0       0       0       0       0
  6484 ;;Total ram usage:       16 bytes
  6485 ;; Hardware stack levels used: 1
  6486 ;; Hardware stack levels required when called: 7
  6487 ;; This function calls:
  6488 ;;		Nothing
  6489 ;; This function is called by:
  6490 ;;		_CCP_PWM_Set_Duty
  6491 ;;		_CCP_PWM_Mode_Config
  6492 ;;		_EUSART_Baud_Rate_Calculation
  6493 ;; This function uses a non-reentrant model
  6494 ;;
  6495                           
  6496                           	psect	text39
  6497   001006                     __ptext39:
  6498                           	callstack 0
  6499   001006                     ___fladd:
  6500                           	callstack 20
  6501   001006  0100               	movlb	0	; () banked
  6502   001008  51F7               	movf	(___fladd@b+3)& (0+255),w,b
  6503   00100A  0B80               	andlw	128
  6504   00100C  6FFC               	movwf	___fladd@signs& (0+255),b
  6505   00100E  51F7               	movf	(___fladd@b+3)& (0+255),w,b
  6506   001010  25F7               	addwf	(___fladd@b+3)& (0+255),w,b
  6507   001012  6FFE               	movwf	___fladd@bexp& (0+255),b
  6508   001014                     
  6509                           ; BSR set to: 0
  6510   001014  AFF6               	btfss	(___fladd@b+2)& (0+255),7,b
  6511   001016  EF0F  F008         	goto	u8831
  6512   00101A  EF11  F008         	goto	u8830
  6513   00101E                     u8831:
  6514   00101E  EF12  F008         	goto	l9207
  6515   001022                     u8830:
  6516   001022                     
  6517                           ; BSR set to: 0
  6518   001022  81FE               	bsf	___fladd@bexp& (0+255),0,b
  6519   001024                     l9207:
  6520                           
  6521                           ; BSR set to: 0
  6522   001024  51FE               	movf	___fladd@bexp& (0+255),w,b
  6523   001026  B4D8               	btfsc	status,2,c
  6524   001028  EF18  F008         	goto	u8841
  6525   00102C  EF1A  F008         	goto	u8840
  6526   001030                     u8841:
  6527   001030  EF2F  F008         	goto	l9217
  6528   001034                     u8840:
  6529   001034                     
  6530                           ; BSR set to: 0
  6531   001034  29FE               	incf	___fladd@bexp& (0+255),w,b
  6532   001036  A4D8               	btfss	status,2,c
  6533   001038  EF20  F008         	goto	u8851
  6534   00103C  EF22  F008         	goto	u8850
  6535   001040                     u8851:
  6536   001040  EF2A  F008         	goto	l9213
  6537   001044                     u8850:
  6538   001044                     
  6539                           ; BSR set to: 0
  6540   001044  0E00               	movlw	0
  6541   001046  6FF4               	movwf	___fladd@b& (0+255),b
  6542   001048  0E00               	movlw	0
  6543   00104A  6FF5               	movwf	(___fladd@b+1)& (0+255),b
  6544   00104C  0E00               	movlw	0
  6545   00104E  6FF6               	movwf	(___fladd@b+2)& (0+255),b
  6546   001050  0E00               	movlw	0
  6547   001052  6FF7               	movwf	(___fladd@b+3)& (0+255),b
  6548   001054                     l9213:
  6549                           
  6550                           ; BSR set to: 0
  6551   001054  8FF6               	bsf	(___fladd@b+2)& (0+255),7,b
  6552   001056                     
  6553                           ; BSR set to: 0
  6554   001056  0E00               	movlw	0
  6555   001058  6FF7               	movwf	(___fladd@b+3)& (0+255),b
  6556   00105A  EF37  F008         	goto	l9219
  6557   00105E                     l9217:
  6558                           
  6559                           ; BSR set to: 0
  6560   00105E  0E00               	movlw	0
  6561   001060  6FF4               	movwf	___fladd@b& (0+255),b
  6562   001062  0E00               	movlw	0
  6563   001064  6FF5               	movwf	(___fladd@b+1)& (0+255),b
  6564   001066  0E00               	movlw	0
  6565   001068  6FF6               	movwf	(___fladd@b+2)& (0+255),b
  6566   00106A  0E00               	movlw	0
  6567   00106C  6FF7               	movwf	(___fladd@b+3)& (0+255),b
  6568   00106E                     l9219:
  6569                           
  6570                           ; BSR set to: 0
  6571   00106E  51FB               	movf	(___fladd@a+3)& (0+255),w,b
  6572   001070  0B80               	andlw	128
  6573   001072  6FFD               	movwf	___fladd@aexp& (0+255),b
  6574   001074                     
  6575                           ; BSR set to: 0
  6576   001074  51FC               	movf	___fladd@signs& (0+255),w,b
  6577   001076  19FD               	xorwf	___fladd@aexp& (0+255),w,b
  6578   001078  B4D8               	btfsc	status,2,c
  6579   00107A  EF41  F008         	goto	u8861
  6580   00107E  EF43  F008         	goto	u8860
  6581   001082                     u8861:
  6582   001082  EF44  F008         	goto	l9225
  6583   001086                     u8860:
  6584   001086                     
  6585                           ; BSR set to: 0
  6586   001086  8DFC               	bsf	___fladd@signs& (0+255),6,b
  6587   001088                     l9225:
  6588                           
  6589                           ; BSR set to: 0
  6590   001088  51FB               	movf	(___fladd@a+3)& (0+255),w,b
  6591   00108A  25FB               	addwf	(___fladd@a+3)& (0+255),w,b
  6592   00108C  6FFD               	movwf	___fladd@aexp& (0+255),b
  6593   00108E                     
  6594                           ; BSR set to: 0
  6595   00108E  AFFA               	btfss	(___fladd@a+2)& (0+255),7,b
  6596   001090  EF4C  F008         	goto	u8871
  6597   001094  EF4E  F008         	goto	u8870
  6598   001098                     u8871:
  6599   001098  EF4F  F008         	goto	l9231
  6600   00109C                     u8870:
  6601   00109C                     
  6602                           ; BSR set to: 0
  6603   00109C  81FD               	bsf	___fladd@aexp& (0+255),0,b
  6604   00109E                     l9231:
  6605                           
  6606                           ; BSR set to: 0
  6607   00109E  51FD               	movf	___fladd@aexp& (0+255),w,b
  6608   0010A0  B4D8               	btfsc	status,2,c
  6609   0010A2  EF55  F008         	goto	u8881
  6610   0010A6  EF57  F008         	goto	u8880
  6611   0010AA                     u8881:
  6612   0010AA  EF6C  F008         	goto	l9241
  6613   0010AE                     u8880:
  6614   0010AE                     
  6615                           ; BSR set to: 0
  6616   0010AE  29FD               	incf	___fladd@aexp& (0+255),w,b
  6617   0010B0  A4D8               	btfss	status,2,c
  6618   0010B2  EF5D  F008         	goto	u8891
  6619   0010B6  EF5F  F008         	goto	u8890
  6620   0010BA                     u8891:
  6621   0010BA  EF67  F008         	goto	l9237
  6622   0010BE                     u8890:
  6623   0010BE                     
  6624                           ; BSR set to: 0
  6625   0010BE  0E00               	movlw	0
  6626   0010C0  6FF8               	movwf	___fladd@a& (0+255),b
  6627   0010C2  0E00               	movlw	0
  6628   0010C4  6FF9               	movwf	(___fladd@a+1)& (0+255),b
  6629   0010C6  0E00               	movlw	0
  6630   0010C8  6FFA               	movwf	(___fladd@a+2)& (0+255),b
  6631   0010CA  0E00               	movlw	0
  6632   0010CC  6FFB               	movwf	(___fladd@a+3)& (0+255),b
  6633   0010CE                     l9237:
  6634                           
  6635                           ; BSR set to: 0
  6636   0010CE  8FFA               	bsf	(___fladd@a+2)& (0+255),7,b
  6637   0010D0                     
  6638                           ; BSR set to: 0
  6639   0010D0  0E00               	movlw	0
  6640   0010D2  6FFB               	movwf	(___fladd@a+3)& (0+255),b
  6641   0010D4  EF74  F008         	goto	l9243
  6642   0010D8                     l9241:
  6643                           
  6644                           ; BSR set to: 0
  6645   0010D8  0E00               	movlw	0
  6646   0010DA  6FF8               	movwf	___fladd@a& (0+255),b
  6647   0010DC  0E00               	movlw	0
  6648   0010DE  6FF9               	movwf	(___fladd@a+1)& (0+255),b
  6649   0010E0  0E00               	movlw	0
  6650   0010E2  6FFA               	movwf	(___fladd@a+2)& (0+255),b
  6651   0010E4  0E00               	movlw	0
  6652   0010E6  6FFB               	movwf	(___fladd@a+3)& (0+255),b
  6653   0010E8                     l9243:
  6654                           
  6655                           ; BSR set to: 0
  6656   0010E8  51FE               	movf	___fladd@bexp& (0+255),w,b
  6657   0010EA  5DFD               	subwf	___fladd@aexp& (0+255),w,b
  6658   0010EC  B0D8               	btfsc	status,0,c
  6659   0010EE  EF7B  F008         	goto	u8901
  6660   0010F2  EF7D  F008         	goto	u8900
  6661   0010F6                     u8901:
  6662   0010F6  EFA4  F008         	goto	l9279
  6663   0010FA                     u8900:
  6664   0010FA                     
  6665                           ; BSR set to: 0
  6666   0010FA  ADFC               	btfss	___fladd@signs& (0+255),6,b
  6667   0010FC  EF82  F008         	goto	u8911
  6668   001100  EF84  F008         	goto	u8910
  6669   001104                     u8911:
  6670   001104  EF86  F008         	goto	l9249
  6671   001108                     u8910:
  6672   001108                     
  6673                           ; BSR set to: 0
  6674   001108  0E80               	movlw	128
  6675   00110A  1BFC               	xorwf	___fladd@signs& (0+255),f,b
  6676   00110C                     l9249:
  6677                           
  6678                           ; BSR set to: 0
  6679   00110C  C0FE  F0FF         	movff	___fladd@bexp,___fladd@grs
  6680   001110                     
  6681                           ; BSR set to: 0
  6682   001110  C0FD  F0FE         	movff	___fladd@aexp,___fladd@bexp
  6683   001114                     
  6684                           ; BSR set to: 0
  6685   001114  C0FF  F0FD         	movff	___fladd@grs,___fladd@aexp
  6686   001118                     
  6687                           ; BSR set to: 0
  6688   001118  C0F4  F0FF         	movff	___fladd@b,___fladd@grs
  6689   00111C                     
  6690                           ; BSR set to: 0
  6691   00111C  C0F8  F0F4         	movff	___fladd@a,___fladd@b
  6692   001120                     
  6693                           ; BSR set to: 0
  6694   001120  C0FF  F0F8         	movff	___fladd@grs,___fladd@a
  6695   001124                     
  6696                           ; BSR set to: 0
  6697   001124  C0F5  F0FF         	movff	___fladd@b+1,___fladd@grs
  6698   001128                     
  6699                           ; BSR set to: 0
  6700   001128  C0F9  F0F5         	movff	___fladd@a+1,___fladd@b+1
  6701   00112C                     
  6702                           ; BSR set to: 0
  6703   00112C  C0FF  F0F9         	movff	___fladd@grs,___fladd@a+1
  6704   001130                     
  6705                           ; BSR set to: 0
  6706   001130  C0F6  F0FF         	movff	___fladd@b+2,___fladd@grs
  6707   001134                     
  6708                           ; BSR set to: 0
  6709   001134  C0FA  F0F6         	movff	___fladd@a+2,___fladd@b+2
  6710   001138                     
  6711                           ; BSR set to: 0
  6712   001138  C0FF  F0FA         	movff	___fladd@grs,___fladd@a+2
  6713   00113C                     
  6714                           ; BSR set to: 0
  6715   00113C  C0F7  F0FF         	movff	___fladd@b+3,___fladd@grs
  6716   001140                     
  6717                           ; BSR set to: 0
  6718   001140  C0FB  F0F7         	movff	___fladd@a+3,___fladd@b+3
  6719   001144                     
  6720                           ; BSR set to: 0
  6721   001144  C0FF  F0FB         	movff	___fladd@grs,___fladd@a+3
  6722   001148                     l9279:
  6723                           
  6724                           ; BSR set to: 0
  6725   001148  0E00               	movlw	0
  6726   00114A  6FFF               	movwf	___fladd@grs& (0+255),b
  6727   00114C                     
  6728                           ; BSR set to: 0
  6729   00114C  51FE               	movf	___fladd@bexp& (0+255),w,b
  6730   00114E  C0FD  F04C         	movff	___fladd@aexp,??___fladd
  6731   001152  6A4D               	clrf	(??___fladd+1)^0,c
  6732   001154  5E4C               	subwf	??___fladd^0,f,c
  6733   001156  0E00               	movlw	0
  6734   001158  5A4D               	subwfb	(??___fladd+1)^0,f,c
  6735   00115A  BE4D               	btfsc	(??___fladd+1)^0,7,c
  6736   00115C  EFB9  F008         	goto	u8921
  6737   001160  504D               	movf	(??___fladd+1)^0,w,c
  6738   001162  E109               	bnz	u8920
  6739   001164  0E1A               	movlw	26
  6740   001166  5C4C               	subwf	??___fladd^0,w,c
  6741   001168  A0D8               	btfss	status,0,c
  6742   00116A  EFB9  F008         	goto	u8921
  6743   00116E  EFBB  F008         	goto	u8920
  6744   001172                     u8921:
  6745   001172  EFF2  F008         	goto	l2458
  6746   001176                     u8920:
  6747   001176                     
  6748                           ; BSR set to: 0
  6749   001176  51F4               	movf	___fladd@b& (0+255),w,b
  6750   001178  11F5               	iorwf	(___fladd@b+1)& (0+255),w,b
  6751   00117A  11F6               	iorwf	(___fladd@b+2)& (0+255),w,b
  6752   00117C  11F7               	iorwf	(___fladd@b+3)& (0+255),w,b
  6753   00117E  A4D8               	btfss	status,2,c
  6754   001180  EFC4  F008         	goto	u8931
  6755   001184  EFC7  F008         	goto	u8930
  6756   001188                     u8931:
  6757   001188  0E01               	movlw	1
  6758   00118A  EFC8  F008         	goto	u8940
  6759   00118E                     u8930:
  6760   00118E  0E00               	movlw	0
  6761   001190                     u8940:
  6762   001190  6FFF               	movwf	___fladd@grs& (0+255),b
  6763   001192                     
  6764                           ; BSR set to: 0
  6765   001192  0E00               	movlw	0
  6766   001194  6FF4               	movwf	___fladd@b& (0+255),b
  6767   001196  0E00               	movlw	0
  6768   001198  6FF5               	movwf	(___fladd@b+1)& (0+255),b
  6769   00119A  0E00               	movlw	0
  6770   00119C  6FF6               	movwf	(___fladd@b+2)& (0+255),b
  6771   00119E  0E00               	movlw	0
  6772   0011A0  6FF7               	movwf	(___fladd@b+3)& (0+255),b
  6773   0011A2                     
  6774                           ; BSR set to: 0
  6775   0011A2  C0FD  F0FE         	movff	___fladd@aexp,___fladd@bexp
  6776   0011A6  EFFB  F008         	goto	l2457
  6777   0011AA                     l2459:
  6778                           
  6779                           ; BSR set to: 0
  6780   0011AA  A1FF               	btfss	___fladd@grs& (0+255),0,b
  6781   0011AC  EFDA  F008         	goto	u8951
  6782   0011B0  EFDC  F008         	goto	u8950
  6783   0011B4                     u8951:
  6784   0011B4  EFE2  F008         	goto	l9291
  6785   0011B8                     u8950:
  6786   0011B8                     
  6787                           ; BSR set to: 0
  6788   0011B8  90D8               	bcf	status,0,c
  6789   0011BA  31FF               	rrcf	___fladd@grs& (0+255),w,b
  6790   0011BC  0901               	iorlw	1
  6791   0011BE  6FFF               	movwf	___fladd@grs& (0+255),b
  6792   0011C0  EFE4  F008         	goto	l9293
  6793   0011C4                     l9291:
  6794                           
  6795                           ; BSR set to: 0
  6796   0011C4  90D8               	bcf	status,0,c
  6797   0011C6  33FF               	rrcf	___fladd@grs& (0+255),f,b
  6798   0011C8                     l9293:
  6799                           
  6800                           ; BSR set to: 0
  6801   0011C8  A1F4               	btfss	___fladd@b& (0+255),0,b
  6802   0011CA  EFE9  F008         	goto	u8961
  6803   0011CE  EFEB  F008         	goto	u8960
  6804   0011D2                     u8961:
  6805   0011D2  EFEC  F008         	goto	l9297
  6806   0011D6                     u8960:
  6807   0011D6                     
  6808                           ; BSR set to: 0
  6809   0011D6  8FFF               	bsf	___fladd@grs& (0+255),7,b
  6810   0011D8                     l9297:
  6811                           
  6812                           ; BSR set to: 0
  6813   0011D8  35F7               	rlcf	(___fladd@b+3)& (0+255),w,b
  6814   0011DA  33F7               	rrcf	(___fladd@b+3)& (0+255),f,b
  6815   0011DC  33F6               	rrcf	(___fladd@b+2)& (0+255),f,b
  6816   0011DE  33F5               	rrcf	(___fladd@b+1)& (0+255),f,b
  6817   0011E0  33F4               	rrcf	___fladd@b& (0+255),f,b
  6818   0011E2                     
  6819                           ; BSR set to: 0
  6820   0011E2  2BFE               	incf	___fladd@bexp& (0+255),f,b
  6821   0011E4                     l2458:
  6822                           
  6823                           ; BSR set to: 0
  6824   0011E4  51FD               	movf	___fladd@aexp& (0+255),w,b
  6825   0011E6  5DFE               	subwf	___fladd@bexp& (0+255),w,b
  6826   0011E8  A0D8               	btfss	status,0,c
  6827   0011EA  EFF9  F008         	goto	u8971
  6828   0011EE  EFFB  F008         	goto	u8970
  6829   0011F2                     u8971:
  6830   0011F2  EFD5  F008         	goto	l2459
  6831   0011F6                     u8970:
  6832   0011F6                     l2457:
  6833                           
  6834                           ; BSR set to: 0
  6835   0011F6  BDFC               	btfsc	___fladd@signs& (0+255),6,b
  6836   0011F8  EF00  F009         	goto	u8981
  6837   0011FC  EF02  F009         	goto	u8980
  6838   001200                     u8981:
  6839   001200  EF42  F009         	goto	l9325
  6840   001204                     u8980:
  6841   001204                     
  6842                           ; BSR set to: 0
  6843   001204  51FE               	movf	___fladd@bexp& (0+255),w,b
  6844   001206  A4D8               	btfss	status,2,c
  6845   001208  EF08  F009         	goto	u8991
  6846   00120C  EF0A  F009         	goto	u8990
  6847   001210                     u8991:
  6848   001210  EF14  F009         	goto	l9307
  6849   001214                     u8990:
  6850   001214                     
  6851                           ; BSR set to: 0
  6852   001214  0E00               	movlw	0
  6853   001216  6FF4               	movwf	?___fladd& (0+255),b
  6854   001218  0E00               	movlw	0
  6855   00121A  6FF5               	movwf	(?___fladd+1)& (0+255),b
  6856   00121C  0E00               	movlw	0
  6857   00121E  6FF6               	movwf	(?___fladd+2)& (0+255),b
  6858   001220  0E00               	movlw	0
  6859   001222  6FF7               	movwf	(?___fladd+3)& (0+255),b
  6860   001224  EF63  F00A         	goto	l2466
  6861   001228                     l9307:
  6862                           
  6863                           ; BSR set to: 0
  6864   001228  51F8               	movf	___fladd@a& (0+255),w,b
  6865   00122A  27F4               	addwf	___fladd@b& (0+255),f,b
  6866   00122C  51F9               	movf	(___fladd@a+1)& (0+255),w,b
  6867   00122E  23F5               	addwfc	(___fladd@b+1)& (0+255),f,b
  6868   001230  51FA               	movf	(___fladd@a+2)& (0+255),w,b
  6869   001232  23F6               	addwfc	(___fladd@b+2)& (0+255),f,b
  6870   001234  51FB               	movf	(___fladd@a+3)& (0+255),w,b
  6871   001236  23F7               	addwfc	(___fladd@b+3)& (0+255),f,b
  6872   001238                     
  6873                           ; BSR set to: 0
  6874   001238  A1F7               	btfss	(___fladd@b+3)& (0+255),0,b
  6875   00123A  EF21  F009         	goto	u9001
  6876   00123E  EF23  F009         	goto	u9000
  6877   001242                     u9001:
  6878   001242  EFCF  F009         	goto	l9361
  6879   001246                     u9000:
  6880   001246                     
  6881                           ; BSR set to: 0
  6882   001246  A1FF               	btfss	___fladd@grs& (0+255),0,b
  6883   001248  EF28  F009         	goto	u9011
  6884   00124C  EF2A  F009         	goto	u9010
  6885   001250                     u9011:
  6886   001250  EF30  F009         	goto	l9315
  6887   001254                     u9010:
  6888   001254                     
  6889                           ; BSR set to: 0
  6890   001254  90D8               	bcf	status,0,c
  6891   001256  31FF               	rrcf	___fladd@grs& (0+255),w,b
  6892   001258  0901               	iorlw	1
  6893   00125A  6FFF               	movwf	___fladd@grs& (0+255),b
  6894   00125C  EF32  F009         	goto	l9317
  6895   001260                     l9315:
  6896                           
  6897                           ; BSR set to: 0
  6898   001260  90D8               	bcf	status,0,c
  6899   001262  33FF               	rrcf	___fladd@grs& (0+255),f,b
  6900   001264                     l9317:
  6901                           
  6902                           ; BSR set to: 0
  6903   001264  A1F4               	btfss	___fladd@b& (0+255),0,b
  6904   001266  EF37  F009         	goto	u9021
  6905   00126A  EF39  F009         	goto	u9020
  6906   00126E                     u9021:
  6907   00126E  EF3A  F009         	goto	l9321
  6908   001272                     u9020:
  6909   001272                     
  6910                           ; BSR set to: 0
  6911   001272  8FFF               	bsf	___fladd@grs& (0+255),7,b
  6912   001274                     l9321:
  6913                           
  6914                           ; BSR set to: 0
  6915   001274  35F7               	rlcf	(___fladd@b+3)& (0+255),w,b
  6916   001276  33F7               	rrcf	(___fladd@b+3)& (0+255),f,b
  6917   001278  33F6               	rrcf	(___fladd@b+2)& (0+255),f,b
  6918   00127A  33F5               	rrcf	(___fladd@b+1)& (0+255),f,b
  6919   00127C  33F4               	rrcf	___fladd@b& (0+255),f,b
  6920   00127E                     
  6921                           ; BSR set to: 0
  6922   00127E  2BFE               	incf	___fladd@bexp& (0+255),f,b
  6923   001280  EFCF  F009         	goto	l9361
  6924   001284                     l9325:
  6925                           
  6926                           ; BSR set to: 0
  6927   001284  51F8               	movf	___fladd@a& (0+255),w,b
  6928   001286  5DF4               	subwf	___fladd@b& (0+255),w,b
  6929   001288  51F9               	movf	(___fladd@a+1)& (0+255),w,b
  6930   00128A  59F5               	subwfb	(___fladd@b+1)& (0+255),w,b
  6931   00128C  51FA               	movf	(___fladd@a+2)& (0+255),w,b
  6932   00128E  59F6               	subwfb	(___fladd@b+2)& (0+255),w,b
  6933   001290  51F7               	movf	(___fladd@b+3)& (0+255),w,b
  6934   001292  0A80               	xorlw	128
  6935   001294  6E4C               	movwf	??___fladd^0,c
  6936   001296  51FB               	movf	(___fladd@a+3)& (0+255),w,b
  6937   001298  0A80               	xorlw	128
  6938   00129A  584C               	subwfb	??___fladd^0,w,c
  6939   00129C  B0D8               	btfsc	status,0,c
  6940   00129E  EF53  F009         	goto	u9031
  6941   0012A2  EF55  F009         	goto	u9030
  6942   0012A6                     u9031:
  6943   0012A6  EF80  F009         	goto	l9335
  6944   0012AA                     u9030:
  6945   0012AA                     
  6946                           ; BSR set to: 0
  6947   0012AA  51F4               	movf	___fladd@b& (0+255),w,b
  6948   0012AC  5DF8               	subwf	___fladd@a& (0+255),w,b
  6949   0012AE  6E4C               	movwf	??___fladd^0,c
  6950   0012B0  51F5               	movf	(___fladd@b+1)& (0+255),w,b
  6951   0012B2  59F9               	subwfb	(___fladd@a+1)& (0+255),w,b
  6952   0012B4  6E4D               	movwf	(??___fladd+1)^0,c
  6953   0012B6  51F6               	movf	(___fladd@b+2)& (0+255),w,b
  6954   0012B8  59FA               	subwfb	(___fladd@a+2)& (0+255),w,b
  6955   0012BA  6E4E               	movwf	(??___fladd+2)^0,c
  6956   0012BC  51F7               	movf	(___fladd@b+3)& (0+255),w,b
  6957   0012BE  59FB               	subwfb	(___fladd@a+3)& (0+255),w,b
  6958   0012C0  6E4F               	movwf	(??___fladd+3)^0,c
  6959   0012C2  0EFF               	movlw	255
  6960   0012C4  244C               	addwf	??___fladd^0,w,c
  6961   0012C6  6FF4               	movwf	___fladd@b& (0+255),b
  6962   0012C8  0EFF               	movlw	255
  6963   0012CA  204D               	addwfc	(??___fladd+1)^0,w,c
  6964   0012CC  6FF5               	movwf	(___fladd@b+1)& (0+255),b
  6965   0012CE  0EFF               	movlw	255
  6966   0012D0  204E               	addwfc	(??___fladd+2)^0,w,c
  6967   0012D2  6FF6               	movwf	(___fladd@b+2)& (0+255),b
  6968   0012D4  0EFF               	movlw	255
  6969   0012D6  204F               	addwfc	(??___fladd+3)^0,w,c
  6970   0012D8  6FF7               	movwf	(___fladd@b+3)& (0+255),b
  6971   0012DA  0E80               	movlw	128
  6972   0012DC  1BFC               	xorwf	___fladd@signs& (0+255),f,b
  6973   0012DE                     
  6974                           ; BSR set to: 0
  6975   0012DE  6DFF               	negf	___fladd@grs& (0+255),b
  6976   0012E0                     
  6977                           ; BSR set to: 0
  6978   0012E0  51FF               	movf	___fladd@grs& (0+255),w,b
  6979   0012E2  A4D8               	btfss	status,2,c
  6980   0012E4  EF76  F009         	goto	u9041
  6981   0012E8  EF78  F009         	goto	u9040
  6982   0012EC                     u9041:
  6983   0012EC  EF88  F009         	goto	l2474
  6984   0012F0                     u9040:
  6985   0012F0                     
  6986                           ; BSR set to: 0
  6987   0012F0  0E01               	movlw	1
  6988   0012F2  27F4               	addwf	___fladd@b& (0+255),f,b
  6989   0012F4  0E00               	movlw	0
  6990   0012F6  23F5               	addwfc	(___fladd@b+1)& (0+255),f,b
  6991   0012F8  23F6               	addwfc	(___fladd@b+2)& (0+255),f,b
  6992   0012FA  23F7               	addwfc	(___fladd@b+3)& (0+255),f,b
  6993   0012FC  EF88  F009         	goto	l2474
  6994   001300                     l9335:
  6995                           
  6996                           ; BSR set to: 0
  6997   001300  51F8               	movf	___fladd@a& (0+255),w,b
  6998   001302  5FF4               	subwf	___fladd@b& (0+255),f,b
  6999   001304  51F9               	movf	(___fladd@a+1)& (0+255),w,b
  7000   001306  5BF5               	subwfb	(___fladd@b+1)& (0+255),f,b
  7001   001308  51FA               	movf	(___fladd@a+2)& (0+255),w,b
  7002   00130A  5BF6               	subwfb	(___fladd@b+2)& (0+255),f,b
  7003   00130C  51FB               	movf	(___fladd@a+3)& (0+255),w,b
  7004   00130E  5BF7               	subwfb	(___fladd@b+3)& (0+255),f,b
  7005   001310                     l2474:
  7006                           
  7007                           ; BSR set to: 0
  7008   001310  51F4               	movf	___fladd@b& (0+255),w,b
  7009   001312  11F5               	iorwf	(___fladd@b+1)& (0+255),w,b
  7010   001314  11F6               	iorwf	(___fladd@b+2)& (0+255),w,b
  7011   001316  11F7               	iorwf	(___fladd@b+3)& (0+255),w,b
  7012   001318  A4D8               	btfss	status,2,c
  7013   00131A  EF91  F009         	goto	u9051
  7014   00131E  EF93  F009         	goto	u9050
  7015   001322                     u9051:
  7016   001322  EFC8  F009         	goto	l9359
  7017   001326                     u9050:
  7018   001326                     
  7019                           ; BSR set to: 0
  7020   001326  51FF               	movf	___fladd@grs& (0+255),w,b
  7021   001328  A4D8               	btfss	status,2,c
  7022   00132A  EF99  F009         	goto	u9061
  7023   00132E  EF9B  F009         	goto	u9060
  7024   001332                     u9061:
  7025   001332  EFC8  F009         	goto	l9359
  7026   001336                     u9060:
  7027   001336                     
  7028                           ; BSR set to: 0
  7029   001336  0E00               	movlw	0
  7030   001338  6FF4               	movwf	?___fladd& (0+255),b
  7031   00133A  0E00               	movlw	0
  7032   00133C  6FF5               	movwf	(?___fladd+1)& (0+255),b
  7033   00133E  0E00               	movlw	0
  7034   001340  6FF6               	movwf	(?___fladd+2)& (0+255),b
  7035   001342  0E00               	movlw	0
  7036   001344  6FF7               	movwf	(?___fladd+3)& (0+255),b
  7037   001346  EF63  F00A         	goto	l2466
  7038   00134A                     l9343:
  7039                           
  7040                           ; BSR set to: 0
  7041   00134A  90D8               	bcf	status,0,c
  7042   00134C  37F4               	rlcf	___fladd@b& (0+255),f,b
  7043   00134E  37F5               	rlcf	(___fladd@b+1)& (0+255),f,b
  7044   001350  37F6               	rlcf	(___fladd@b+2)& (0+255),f,b
  7045   001352  37F7               	rlcf	(___fladd@b+3)& (0+255),f,b
  7046   001354                     
  7047                           ; BSR set to: 0
  7048   001354  AFFF               	btfss	___fladd@grs& (0+255),7,b
  7049   001356  EFAF  F009         	goto	u9071
  7050   00135A  EFB1  F009         	goto	u9070
  7051   00135E                     u9071:
  7052   00135E  EFB2  F009         	goto	l9349
  7053   001362                     u9070:
  7054   001362                     
  7055                           ; BSR set to: 0
  7056   001362  81F4               	bsf	___fladd@b& (0+255),0,b
  7057   001364                     l9349:
  7058                           
  7059                           ; BSR set to: 0
  7060   001364  A1FF               	btfss	___fladd@grs& (0+255),0,b
  7061   001366  EFB7  F009         	goto	u9081
  7062   00136A  EFB9  F009         	goto	u9080
  7063   00136E                     u9081:
  7064   00136E  EFBD  F009         	goto	l9353
  7065   001372                     u9080:
  7066   001372                     
  7067                           ; BSR set to: 0
  7068   001372  80D8               	bsf	status,0,c
  7069   001374  37FF               	rlcf	___fladd@grs& (0+255),f,b
  7070   001376  EFBF  F009         	goto	l9355
  7071   00137A                     l9353:
  7072                           
  7073                           ; BSR set to: 0
  7074   00137A  90D8               	bcf	status,0,c
  7075   00137C  37FF               	rlcf	___fladd@grs& (0+255),f,b
  7076   00137E                     l9355:
  7077                           
  7078                           ; BSR set to: 0
  7079   00137E  51FE               	movf	___fladd@bexp& (0+255),w,b
  7080   001380  B4D8               	btfsc	status,2,c
  7081   001382  EFC5  F009         	goto	u9091
  7082   001386  EFC7  F009         	goto	u9090
  7083   00138A                     u9091:
  7084   00138A  EFC8  F009         	goto	l9359
  7085   00138E                     u9090:
  7086   00138E                     
  7087                           ; BSR set to: 0
  7088   00138E  07FE               	decf	___fladd@bexp& (0+255),f,b
  7089   001390                     l9359:
  7090                           
  7091                           ; BSR set to: 0
  7092   001390  AFF6               	btfss	(___fladd@b+2)& (0+255),7,b
  7093   001392  EFCD  F009         	goto	u9101
  7094   001396  EFCF  F009         	goto	u9100
  7095   00139A                     u9101:
  7096   00139A  EFA5  F009         	goto	l9343
  7097   00139E                     u9100:
  7098   00139E                     l9361:
  7099                           
  7100                           ; BSR set to: 0
  7101   00139E  0E00               	movlw	0
  7102   0013A0  6FFD               	movwf	___fladd@aexp& (0+255),b
  7103   0013A2                     
  7104                           ; BSR set to: 0
  7105   0013A2  AFFF               	btfss	___fladd@grs& (0+255),7,b
  7106   0013A4  EFD6  F009         	goto	u9111
  7107   0013A8  EFD8  F009         	goto	u9110
  7108   0013AC                     u9111:
  7109   0013AC  EFF0  F009         	goto	l2483
  7110   0013B0                     u9110:
  7111   0013B0                     
  7112                           ; BSR set to: 0
  7113   0013B0  C0FF  F04C         	movff	___fladd@grs,??___fladd
  7114   0013B4  0E7F               	movlw	127
  7115   0013B6  164C               	andwf	??___fladd^0,f,c
  7116   0013B8  B4D8               	btfsc	status,2,c
  7117   0013BA  EFE1  F009         	goto	u9121
  7118   0013BE  EFE3  F009         	goto	u9120
  7119   0013C2                     u9121:
  7120   0013C2  EFE7  F009         	goto	l2484
  7121   0013C6                     u9120:
  7122   0013C6                     l9367:
  7123                           
  7124                           ; BSR set to: 0
  7125   0013C6  0E01               	movlw	1
  7126   0013C8  6FFD               	movwf	___fladd@aexp& (0+255),b
  7127   0013CA  EFF0  F009         	goto	l2483
  7128   0013CE                     l2484:
  7129                           
  7130                           ; BSR set to: 0
  7131   0013CE  A1F4               	btfss	___fladd@b& (0+255),0,b
  7132   0013D0  EFEC  F009         	goto	u9131
  7133   0013D4  EFEE  F009         	goto	u9130
  7134   0013D8                     u9131:
  7135   0013D8  EFF0  F009         	goto	l2483
  7136   0013DC                     u9130:
  7137   0013DC  EFE3  F009         	goto	l9367
  7138   0013E0                     l2483:
  7139                           
  7140                           ; BSR set to: 0
  7141   0013E0  51FD               	movf	___fladd@aexp& (0+255),w,b
  7142   0013E2  B4D8               	btfsc	status,2,c
  7143   0013E4  EFF6  F009         	goto	u9141
  7144   0013E8  EFF8  F009         	goto	u9140
  7145   0013EC                     u9141:
  7146   0013EC  EF23  F00A         	goto	l9379
  7147   0013F0                     u9140:
  7148   0013F0                     
  7149                           ; BSR set to: 0
  7150   0013F0  0E01               	movlw	1
  7151   0013F2  27F4               	addwf	___fladd@b& (0+255),f,b
  7152   0013F4  0E00               	movlw	0
  7153   0013F6  23F5               	addwfc	(___fladd@b+1)& (0+255),f,b
  7154   0013F8  23F6               	addwfc	(___fladd@b+2)& (0+255),f,b
  7155   0013FA  23F7               	addwfc	(___fladd@b+3)& (0+255),f,b
  7156   0013FC                     
  7157                           ; BSR set to: 0
  7158   0013FC  A1F7               	btfss	(___fladd@b+3)& (0+255),0,b
  7159   0013FE  EF03  F00A         	goto	u9151
  7160   001402  EF05  F00A         	goto	u9150
  7161   001406                     u9151:
  7162   001406  EF23  F00A         	goto	l9379
  7163   00140A                     u9150:
  7164   00140A                     
  7165                           ; BSR set to: 0
  7166   00140A  C0F4  F04C         	movff	___fladd@b,??___fladd
  7167   00140E  C0F5  F04D         	movff	___fladd@b+1,??___fladd+1
  7168   001412  C0F6  F04E         	movff	___fladd@b+2,??___fladd+2
  7169   001416  C0F7  F04F         	movff	___fladd@b+3,??___fladd+3
  7170   00141A  344F               	rlcf	(??___fladd+3)^0,w,c
  7171   00141C  324F               	rrcf	(??___fladd+3)^0,f,c
  7172   00141E  324E               	rrcf	(??___fladd+2)^0,f,c
  7173   001420  324D               	rrcf	(??___fladd+1)^0,f,c
  7174   001422  324C               	rrcf	??___fladd^0,f,c
  7175   001424  C04C  F0F4         	movff	??___fladd,___fladd@b
  7176   001428  C04D  F0F5         	movff	??___fladd+1,___fladd@b+1
  7177   00142C  C04E  F0F6         	movff	??___fladd+2,___fladd@b+2
  7178   001430  C04F  F0F7         	movff	??___fladd+3,___fladd@b+3
  7179   001434  29FE               	incf	___fladd@bexp& (0+255),w,b
  7180   001436  B4D8               	btfsc	status,2,c
  7181   001438  EF20  F00A         	goto	u9161
  7182   00143C  EF22  F00A         	goto	u9160
  7183   001440                     u9161:
  7184   001440  EF23  F00A         	goto	l9379
  7185   001444                     u9160:
  7186   001444                     
  7187                           ; BSR set to: 0
  7188   001444  2BFE               	incf	___fladd@bexp& (0+255),f,b
  7189   001446                     l9379:
  7190                           
  7191                           ; BSR set to: 0
  7192   001446  29FE               	incf	___fladd@bexp& (0+255),w,b
  7193   001448  B4D8               	btfsc	status,2,c
  7194   00144A  EF29  F00A         	goto	u9171
  7195   00144E  EF2B  F00A         	goto	u9170
  7196   001452                     u9171:
  7197   001452  EF33  F00A         	goto	l9383
  7198   001456                     u9170:
  7199   001456                     
  7200                           ; BSR set to: 0
  7201   001456  51FE               	movf	___fladd@bexp& (0+255),w,b
  7202   001458  A4D8               	btfss	status,2,c
  7203   00145A  EF31  F00A         	goto	u9181
  7204   00145E  EF33  F00A         	goto	u9180
  7205   001462                     u9181:
  7206   001462  EF45  F00A         	goto	l9387
  7207   001466                     u9180:
  7208   001466                     l9383:
  7209                           
  7210                           ; BSR set to: 0
  7211   001466  0E00               	movlw	0
  7212   001468  6FF4               	movwf	___fladd@b& (0+255),b
  7213   00146A  0E00               	movlw	0
  7214   00146C  6FF5               	movwf	(___fladd@b+1)& (0+255),b
  7215   00146E  0E00               	movlw	0
  7216   001470  6FF6               	movwf	(___fladd@b+2)& (0+255),b
  7217   001472  0E00               	movlw	0
  7218   001474  6FF7               	movwf	(___fladd@b+3)& (0+255),b
  7219   001476  51FE               	movf	___fladd@bexp& (0+255),w,b
  7220   001478  A4D8               	btfss	status,2,c
  7221   00147A  EF41  F00A         	goto	u9191
  7222   00147E  EF43  F00A         	goto	u9190
  7223   001482                     u9191:
  7224   001482  EF45  F00A         	goto	l9387
  7225   001486                     u9190:
  7226   001486                     
  7227                           ; BSR set to: 0
  7228   001486  0E00               	movlw	0
  7229   001488  6FFC               	movwf	___fladd@signs& (0+255),b
  7230   00148A                     l9387:
  7231                           
  7232                           ; BSR set to: 0
  7233   00148A  A1FE               	btfss	___fladd@bexp& (0+255),0,b
  7234   00148C  EF4A  F00A         	goto	u9201
  7235   001490  EF4C  F00A         	goto	u9200
  7236   001494                     u9201:
  7237   001494  EF4F  F00A         	goto	l9391
  7238   001498                     u9200:
  7239   001498                     
  7240                           ; BSR set to: 0
  7241   001498  8FF6               	bsf	(___fladd@b+2)& (0+255),7,b
  7242   00149A  EF50  F00A         	goto	l9393
  7243   00149E                     l9391:
  7244                           
  7245                           ; BSR set to: 0
  7246   00149E  9FF6               	bcf	(___fladd@b+2)& (0+255),7,b
  7247   0014A0                     l9393:
  7248                           
  7249                           ; BSR set to: 0
  7250   0014A0  90D8               	bcf	status,0,c
  7251   0014A2  31FE               	rrcf	___fladd@bexp& (0+255),w,b
  7252   0014A4  6FF7               	movwf	(___fladd@b+3)& (0+255),b
  7253   0014A6                     
  7254                           ; BSR set to: 0
  7255   0014A6  AFFC               	btfss	___fladd@signs& (0+255),7,b
  7256   0014A8  EF58  F00A         	goto	u9211
  7257   0014AC  EF5A  F00A         	goto	u9210
  7258   0014B0                     u9211:
  7259   0014B0  EF5B  F00A         	goto	l9399
  7260   0014B4                     u9210:
  7261   0014B4                     
  7262                           ; BSR set to: 0
  7263   0014B4  8FF7               	bsf	(___fladd@b+3)& (0+255),7,b
  7264   0014B6                     l9399:
  7265                           
  7266                           ; BSR set to: 0
  7267   0014B6  C0F4  F0F4         	movff	___fladd@b,?___fladd
  7268   0014BA  C0F5  F0F5         	movff	___fladd@b+1,?___fladd+1
  7269   0014BE  C0F6  F0F6         	movff	___fladd@b+2,?___fladd+2
  7270   0014C2  C0F7  F0F7         	movff	___fladd@b+3,?___fladd+3
  7271   0014C6                     l2466:
  7272                           
  7273                           ; BSR set to: 0
  7274   0014C6  0012               	return		;funcret
  7275   0014C8                     __end_of___fladd:
  7276                           	callstack 0
  7277                           
  7278 ;; *************** function _INTERRUPT_InterruptManager *****************
  7279 ;; Defined at:
  7280 ;;		line 60 in file "mcc_generated_files/interrupt_manager.c"
  7281 ;; Parameters:    Size  Location     Type
  7282 ;;		None
  7283 ;; Auto vars:     Size  Location     Type
  7284 ;;		None
  7285 ;; Return value:  Size  Location     Type
  7286 ;;                  1    wreg      void 
  7287 ;; Registers used:
  7288 ;;		wreg, fsr2l, fsr2h, status,2, status,0, pcl, pclath, pclatu, tosl, prodl, prodh, cstack
  7289 ;; Tracked objects:
  7290 ;;		On entry : 0/0
  7291 ;;		On exit  : 0/0
  7292 ;;		Unchanged: 0/0
  7293 ;; Data sizes:     COMRAM   BANK0   BANK1   BANK2   BANK3   BANK4   BANK5   BANK6   BANK7   BANK8   BANK9  BANK10  BANK1
      +1  BANK12  BANK13  BANK14  BANK15
  7294 ;;      Params:         0       0       0       0       0       0       0       0       0       0       0       0       
      +0       0       0       0       0
  7295 ;;      Locals:         0       0       0       0       0       0       0       0       0       0       0       0       
      +0       0       0       0       0
  7296 ;;      Temps:          6       0       0       0       0       0       0       0       0       0       0       0       
      +0       0       0       0       0
  7297 ;;      Totals:         6       0       0       0       0       0       0       0       0       0       0       0       
      +0       0       0       0       0
  7298 ;;Total ram usage:        6 bytes
  7299 ;; Hardware stack levels used: 1
  7300 ;; Hardware stack levels required when called: 6
  7301 ;; This function calls:
  7302 ;;		NULL
  7303 ;;		_ADC_ISR
  7304 ;;		_I2C_Isr
  7305 ;;		_INT0_ISR
  7306 ;;		_INT1_ISR
  7307 ;;		_INT2_ISR
  7308 ;;		_RB4_ISR
  7309 ;;		_RB5_ISR
  7310 ;;		_RB6_ISR
  7311 ;;		_RB7_ISR
  7312 ;;		_TMR0_ISR
  7313 ;;		_TMR1_ISR
  7314 ;;		_TMR2_ISR
  7315 ;; This function is called by:
  7316 ;;		Interrupt level 2
  7317 ;; This function uses a non-reentrant model
  7318 ;;
  7319                           
  7320                           	psect	intcode
  7321   000008                     __pintcode:
  7322                           	callstack 0
  7323   000008                     _INTERRUPT_InterruptManager:
  7324                           	callstack 20
  7325                           
  7326                           ; BSR set to: 0
  7327                           ;incstack = 0
  7328   000008  8267               	bsf	int$flags,1,c	;set compiler interrupt flag (level 2)
  7329   00000A  ED79  F00C         	call	int_func,f	;refresh shadow registers
  7330                           
  7331                           	psect	intcode_body
  7332   0018F2                     __pintcode_body:
  7333                           	callstack 20
  7334   0018F2                     int_func:
  7335                           	callstack 20
  7336   0018F2  0006               	pop		; remove dummy address from shadow register refresh
  7337   0018F4  CFFA F013          	movff	pclath,??_INTERRUPT_InterruptManager
  7338   0018F8  CFFB F014          	movff	pclatu,??_INTERRUPT_InterruptManager+1
  7339   0018FC  CFD9 F015          	movff	fsr2l,??_INTERRUPT_InterruptManager+2
  7340   001900  CFDA F016          	movff	fsr2h,??_INTERRUPT_InterruptManager+3
  7341   001904  CFF3 F017          	movff	prodl,??_INTERRUPT_InterruptManager+4
  7342   001908  CFF4 F018          	movff	prodh,??_INTERRUPT_InterruptManager+5
  7343   00190C                     
  7344                           ;mcc_generated_files/interrupt_manager.c: 63:     if((1 == INTCONbits.INT0IE) && (1 == I
      +                          NTCONbits.INT0IF)){
  7345   00190C  A8F2               	btfss	242,4,c	;volatile
  7346   00190E  EF8B  F00C         	goto	i2u1086_41
  7347   001912  EF8D  F00C         	goto	i2u1086_40
  7348   001916                     i2u1086_41:
  7349   001916  EF96  F00C         	goto	i2l10807
  7350   00191A                     i2u1086_40:
  7351   00191A  A2F2               	btfss	242,1,c	;volatile
  7352   00191C  EF92  F00C         	goto	i2u1087_41
  7353   001920  EF94  F00C         	goto	i2u1087_40
  7354   001924                     i2u1087_41:
  7355   001924  EF96  F00C         	goto	i2l10807
  7356   001928                     i2u1087_40:
  7357   001928                     
  7358                           ;mcc_generated_files/interrupt_manager.c: 64:         INT0_ISR();
  7359   001928  EC25  F01D         	call	_INT0_ISR	;wreg free
  7360   00192C                     i2l10807:
  7361                           
  7362                           ;mcc_generated_files/interrupt_manager.c: 66:     if((1 == INTCON3bits.INT1E) && (1 == I
      +                          NTCON3bits.INT1F)){
  7363   00192C  A6F0               	btfss	240,3,c	;volatile
  7364   00192E  EF9B  F00C         	goto	i2u1088_41
  7365   001932  EF9D  F00C         	goto	i2u1088_40
  7366   001936                     i2u1088_41:
  7367   001936  EFA6  F00C         	goto	i2l10813
  7368   00193A                     i2u1088_40:
  7369   00193A  A0F0               	btfss	240,0,c	;volatile
  7370   00193C  EFA2  F00C         	goto	i2u1089_41
  7371   001940  EFA4  F00C         	goto	i2u1089_40
  7372   001944                     i2u1089_41:
  7373   001944  EFA6  F00C         	goto	i2l10813
  7374   001948                     i2u1089_40:
  7375   001948                     
  7376                           ;mcc_generated_files/interrupt_manager.c: 67:         INT1_ISR();
  7377   001948  EC23  F01D         	call	_INT1_ISR	;wreg free
  7378   00194C                     i2l10813:
  7379                           
  7380                           ;mcc_generated_files/interrupt_manager.c: 69:     if((1 == INTCON3bits.INT2IE) && (1 == 
      +                          INTCON3bits.INT2IF)){
  7381   00194C  A8F0               	btfss	240,4,c	;volatile
  7382   00194E  EFAB  F00C         	goto	i2u1090_41
  7383   001952  EFAD  F00C         	goto	i2u1090_40
  7384   001956                     i2u1090_41:
  7385   001956  EFB6  F00C         	goto	i2l10819
  7386   00195A                     i2u1090_40:
  7387   00195A  A2F0               	btfss	240,1,c	;volatile
  7388   00195C  EFB2  F00C         	goto	i2u1091_41
  7389   001960  EFB4  F00C         	goto	i2u1091_40
  7390   001964                     i2u1091_41:
  7391   001964  EFB6  F00C         	goto	i2l10819
  7392   001968                     i2u1091_40:
  7393   001968                     
  7394                           ;mcc_generated_files/interrupt_manager.c: 70:         INT2_ISR();
  7395   001968  EC21  F01D         	call	_INT2_ISR	;wreg free
  7396   00196C                     i2l10819:
  7397                           
  7398                           ;mcc_generated_files/interrupt_manager.c: 74:     if(INTCONbits.PEIE == 1)
  7399   00196C  ACF2               	btfss	242,6,c	;volatile
  7400   00196E  EFBB  F00C         	goto	i2u1092_41
  7401   001972  EFBD  F00C         	goto	i2u1092_40
  7402   001976                     i2u1092_41:
  7403   001976  EFEA  F00C         	goto	i2l1501
  7404   00197A                     i2u1092_40:
  7405   00197A                     
  7406                           ;mcc_generated_files/interrupt_manager.c: 75:     {;mcc_generated_files/interrupt_manage
      +                          r.c: 76:         if(PIE2bits.BCLIE == 1 && PIR2bits.BCLIF == 1)
  7407   00197A  A6A0               	btfss	160,3,c	;volatile
  7408   00197C  EFC2  F00C         	goto	i2u1093_41
  7409   001980  EFC4  F00C         	goto	i2u1093_40
  7410   001984                     i2u1093_41:
  7411   001984  EFDA  F00C         	goto	i2l1497
  7412   001988                     i2u1093_40:
  7413   001988  A6A1               	btfss	161,3,c	;volatile
  7414   00198A  EFC9  F00C         	goto	i2u1094_41
  7415   00198E  EFCB  F00C         	goto	i2u1094_40
  7416   001992                     i2u1094_41:
  7417   001992  EFDA  F00C         	goto	i2l1497
  7418   001996                     i2u1094_40:
  7419   001996                     i2l10825:
  7420                           
  7421                           ;mcc_generated_files/interrupt_manager.c: 77:         {;mcc_generated_files/interrupt_ma
      +                          nager.c: 78:             MSSP_InterruptHandler();
  7422   001996  D802               	call	i2u1095_48
  7423   001998  EFD8  F00C         	goto	i2u1095_49
  7424   00199C                     i2u1095_48:
  7425   00199C  0005               	push	
  7426   00199E  6EFA               	movwf	pclath,c
  7427   0019A0  0100               	movlb	0	; () banked
  7428   0019A2  518A               	movf	_MSSP_InterruptHandler& (0+255),w,b
  7429   0019A4  6EFD               	movwf	tosl,c
  7430   0019A6  518B               	movf	(_MSSP_InterruptHandler+1)& (0+255),w,b
  7431   0019A8  6EFE               	movwf	tosh,c
  7432   0019AA  6AFF               	clrf	tosu,c
  7433   0019AC  50FA               	movf	pclath,w,c
  7434   0019AE  0012               	return		;indir
  7435   0019B0                     i2u1095_49:
  7436                           
  7437                           ;mcc_generated_files/interrupt_manager.c: 79:         }
  7438   0019B0  EFEA  F00C         	goto	i2l1501
  7439   0019B4                     i2l1497:
  7440   0019B4  A69D               	btfss	157,3,c	;volatile
  7441   0019B6  EFDF  F00C         	goto	i2u1096_41
  7442   0019BA  EFE1  F00C         	goto	i2u1096_40
  7443   0019BE                     i2u1096_41:
  7444   0019BE  EFEA  F00C         	goto	i2l1501
  7445   0019C2                     i2u1096_40:
  7446   0019C2  A69E               	btfss	158,3,c	;volatile
  7447   0019C4  EFE6  F00C         	goto	i2u1097_41
  7448   0019C8  EFE8  F00C         	goto	i2u1097_40
  7449   0019CC                     i2u1097_41:
  7450   0019CC  EFEA  F00C         	goto	i2l1501
  7451   0019D0                     i2u1097_40:
  7452   0019D0  EFCB  F00C         	goto	i2l10825
  7453   0019D4                     i2l1501:
  7454                           
  7455                           ;mcc_generated_files/interrupt_manager.c: 97:     if((1 == INTCONbits.RBIE) && (1 == INT
      +                          CONbits.RBIF) &&
  7456   0019D4  A6F2               	btfss	242,3,c	;volatile
  7457   0019D6  EFEF  F00C         	goto	i2u1098_41
  7458   0019DA  EFF1  F00C         	goto	i2u1098_40
  7459   0019DE                     i2u1098_41:
  7460   0019DE  EF0C  F00D         	goto	i2l10841
  7461   0019E2                     i2u1098_40:
  7462   0019E2  A0F2               	btfss	242,0,c	;volatile
  7463   0019E4  EFF6  F00C         	goto	i2u1099_41
  7464   0019E8  EFF8  F00C         	goto	i2u1099_40
  7465   0019EC                     i2u1099_41:
  7466   0019EC  EF0C  F00D         	goto	i2l10841
  7467   0019F0                     i2u1099_40:
  7468   0019F0  A881               	btfss	129,4,c	;volatile
  7469   0019F2  EFFD  F00C         	goto	i2u1100_41
  7470   0019F6  EFFF  F00C         	goto	i2u1100_40
  7471   0019FA                     i2u1100_41:
  7472   0019FA  EF0C  F00D         	goto	i2l10841
  7473   0019FE                     i2u1100_40:
  7474   0019FE  0453               	decf	_RB4_Flag^0,w,c	;volatile
  7475   001A00  A4D8               	btfss	status,2,c
  7476   001A02  EF05  F00D         	goto	i2u1101_41
  7477   001A06  EF07  F00D         	goto	i2u1101_40
  7478   001A0A                     i2u1101_41:
  7479   001A0A  EF0C  F00D         	goto	i2l10841
  7480   001A0E                     i2u1101_40:
  7481   001A0E                     
  7482                           ;mcc_generated_files/interrupt_manager.c: 98:        (PORTBbits.RB4 == HIGH) && (RB4_Fla
      +                          g == 1)){;mcc_generated_files/interrupt_manager.c: 99:         RB4_Flag = 0;
  7483   001A0E  0E00               	movlw	0
  7484   001A10  6E53               	movwf	_RB4_Flag^0,c	;volatile
  7485   001A12                     
  7486                           ;mcc_generated_files/interrupt_manager.c: 100:         RB4_ISR(0);
  7487   001A12  0E00               	movlw	0
  7488   001A14  EC94  F01C         	call	_RB4_ISR
  7489   001A18                     i2l10841:
  7490                           
  7491                           ;mcc_generated_files/interrupt_manager.c: 102:     if((1 == INTCONbits.RBIE) && (1 == IN
      +                          TCONbits.RBIF) &&
  7492   001A18  A6F2               	btfss	242,3,c	;volatile
  7493   001A1A  EF11  F00D         	goto	i2u1102_41
  7494   001A1E  EF13  F00D         	goto	i2u1102_40
  7495   001A22                     i2u1102_41:
  7496   001A22  EF2E  F00D         	goto	i2l10853
  7497   001A26                     i2u1102_40:
  7498   001A26  A0F2               	btfss	242,0,c	;volatile
  7499   001A28  EF18  F00D         	goto	i2u1103_41
  7500   001A2C  EF1A  F00D         	goto	i2u1103_40
  7501   001A30                     i2u1103_41:
  7502   001A30  EF2E  F00D         	goto	i2l10853
  7503   001A34                     i2u1103_40:
  7504   001A34  B881               	btfsc	129,4,c	;volatile
  7505   001A36  EF1F  F00D         	goto	i2u1104_41
  7506   001A3A  EF21  F00D         	goto	i2u1104_40
  7507   001A3E                     i2u1104_41:
  7508   001A3E  EF2E  F00D         	goto	i2l10853
  7509   001A42                     i2u1104_40:
  7510   001A42  5053               	movf	_RB4_Flag^0,w,c	;volatile
  7511   001A44  A4D8               	btfss	status,2,c
  7512   001A46  EF27  F00D         	goto	i2u1105_41
  7513   001A4A  EF29  F00D         	goto	i2u1105_40
  7514   001A4E                     i2u1105_41:
  7515   001A4E  EF2E  F00D         	goto	i2l10853
  7516   001A52                     i2u1105_40:
  7517   001A52                     
  7518                           ;mcc_generated_files/interrupt_manager.c: 103:        (PORTBbits.RB4 == LOW) && (RB4_Fla
      +                          g == 0)){;mcc_generated_files/interrupt_manager.c: 104:         RB4_Flag = 1;
  7519   001A52  0E01               	movlw	1
  7520   001A54  6E53               	movwf	_RB4_Flag^0,c	;volatile
  7521   001A56                     
  7522                           ;mcc_generated_files/interrupt_manager.c: 105:         RB4_ISR(1);
  7523   001A56  0E01               	movlw	1
  7524   001A58  EC94  F01C         	call	_RB4_ISR
  7525   001A5C                     i2l10853:
  7526                           
  7527                           ;mcc_generated_files/interrupt_manager.c: 107:     if((1 == INTCONbits.RBIE) && (1 == IN
      +                          TCONbits.RBIF) &&
  7528   001A5C  A6F2               	btfss	242,3,c	;volatile
  7529   001A5E  EF33  F00D         	goto	i2u1106_41
  7530   001A62  EF35  F00D         	goto	i2u1106_40
  7531   001A66                     i2u1106_41:
  7532   001A66  EF50  F00D         	goto	i2l10865
  7533   001A6A                     i2u1106_40:
  7534   001A6A  A0F2               	btfss	242,0,c	;volatile
  7535   001A6C  EF3A  F00D         	goto	i2u1107_41
  7536   001A70  EF3C  F00D         	goto	i2u1107_40
  7537   001A74                     i2u1107_41:
  7538   001A74  EF50  F00D         	goto	i2l10865
  7539   001A78                     i2u1107_40:
  7540   001A78  AA81               	btfss	129,5,c	;volatile
  7541   001A7A  EF41  F00D         	goto	i2u1108_41
  7542   001A7E  EF43  F00D         	goto	i2u1108_40
  7543   001A82                     i2u1108_41:
  7544   001A82  EF50  F00D         	goto	i2l10865
  7545   001A86                     i2u1108_40:
  7546   001A86  0452               	decf	_RB5_Flag^0,w,c	;volatile
  7547   001A88  A4D8               	btfss	status,2,c
  7548   001A8A  EF49  F00D         	goto	i2u1109_41
  7549   001A8E  EF4B  F00D         	goto	i2u1109_40
  7550   001A92                     i2u1109_41:
  7551   001A92  EF50  F00D         	goto	i2l10865
  7552   001A96                     i2u1109_40:
  7553   001A96                     
  7554                           ;mcc_generated_files/interrupt_manager.c: 108:        (PORTBbits.RB5 == HIGH) && (RB5_Fl
      +                          ag == 1)){;mcc_generated_files/interrupt_manager.c: 109:         RB5_Flag = 0;
  7555   001A96  0E00               	movlw	0
  7556   001A98  6E52               	movwf	_RB5_Flag^0,c	;volatile
  7557   001A9A                     
  7558                           ;mcc_generated_files/interrupt_manager.c: 110:         RB5_ISR(0);
  7559   001A9A  0E00               	movlw	0
  7560   001A9C  EC87  F01C         	call	_RB5_ISR
  7561   001AA0                     i2l10865:
  7562                           
  7563                           ;mcc_generated_files/interrupt_manager.c: 112:     if((1 == INTCONbits.RBIE) && (1 == IN
      +                          TCONbits.RBIF) &&
  7564   001AA0  A6F2               	btfss	242,3,c	;volatile
  7565   001AA2  EF55  F00D         	goto	i2u1110_41
  7566   001AA6  EF57  F00D         	goto	i2u1110_40
  7567   001AAA                     i2u1110_41:
  7568   001AAA  EF72  F00D         	goto	i2l10877
  7569   001AAE                     i2u1110_40:
  7570   001AAE  A0F2               	btfss	242,0,c	;volatile
  7571   001AB0  EF5C  F00D         	goto	i2u1111_41
  7572   001AB4  EF5E  F00D         	goto	i2u1111_40
  7573   001AB8                     i2u1111_41:
  7574   001AB8  EF72  F00D         	goto	i2l10877
  7575   001ABC                     i2u1111_40:
  7576   001ABC  BA81               	btfsc	129,5,c	;volatile
  7577   001ABE  EF63  F00D         	goto	i2u1112_41
  7578   001AC2  EF65  F00D         	goto	i2u1112_40
  7579   001AC6                     i2u1112_41:
  7580   001AC6  EF72  F00D         	goto	i2l10877
  7581   001ACA                     i2u1112_40:
  7582   001ACA  5052               	movf	_RB5_Flag^0,w,c	;volatile
  7583   001ACC  A4D8               	btfss	status,2,c
  7584   001ACE  EF6B  F00D         	goto	i2u1113_41
  7585   001AD2  EF6D  F00D         	goto	i2u1113_40
  7586   001AD6                     i2u1113_41:
  7587   001AD6  EF72  F00D         	goto	i2l10877
  7588   001ADA                     i2u1113_40:
  7589   001ADA                     
  7590                           ;mcc_generated_files/interrupt_manager.c: 113:        (PORTBbits.RB5 == LOW) && (RB5_Fla
      +                          g == 0)){;mcc_generated_files/interrupt_manager.c: 114:         RB5_Flag = 1;
  7591   001ADA  0E01               	movlw	1
  7592   001ADC  6E52               	movwf	_RB5_Flag^0,c	;volatile
  7593   001ADE                     
  7594                           ;mcc_generated_files/interrupt_manager.c: 115:         RB5_ISR(1);
  7595   001ADE  0E01               	movlw	1
  7596   001AE0  EC87  F01C         	call	_RB5_ISR
  7597   001AE4                     i2l10877:
  7598                           
  7599                           ;mcc_generated_files/interrupt_manager.c: 117:     if((1 == INTCONbits.RBIE) && (1 == IN
      +                          TCONbits.RBIF) &&
  7600   001AE4  A6F2               	btfss	242,3,c	;volatile
  7601   001AE6  EF77  F00D         	goto	i2u1114_41
  7602   001AEA  EF79  F00D         	goto	i2u1114_40
  7603   001AEE                     i2u1114_41:
  7604   001AEE  EF94  F00D         	goto	i2l10889
  7605   001AF2                     i2u1114_40:
  7606   001AF2  A0F2               	btfss	242,0,c	;volatile
  7607   001AF4  EF7E  F00D         	goto	i2u1115_41
  7608   001AF8  EF80  F00D         	goto	i2u1115_40
  7609   001AFC                     i2u1115_41:
  7610   001AFC  EF94  F00D         	goto	i2l10889
  7611   001B00                     i2u1115_40:
  7612   001B00  AC81               	btfss	129,6,c	;volatile
  7613   001B02  EF85  F00D         	goto	i2u1116_41
  7614   001B06  EF87  F00D         	goto	i2u1116_40
  7615   001B0A                     i2u1116_41:
  7616   001B0A  EF94  F00D         	goto	i2l10889
  7617   001B0E                     i2u1116_40:
  7618   001B0E  0451               	decf	_RB6_Flag^0,w,c	;volatile
  7619   001B10  A4D8               	btfss	status,2,c
  7620   001B12  EF8D  F00D         	goto	i2u1117_41
  7621   001B16  EF8F  F00D         	goto	i2u1117_40
  7622   001B1A                     i2u1117_41:
  7623   001B1A  EF94  F00D         	goto	i2l10889
  7624   001B1E                     i2u1117_40:
  7625   001B1E                     
  7626                           ;mcc_generated_files/interrupt_manager.c: 118:        (PORTBbits.RB6 == HIGH) && (RB6_Fl
      +                          ag == 1)){;mcc_generated_files/interrupt_manager.c: 119:         RB6_Flag = 0;
  7627   001B1E  0E00               	movlw	0
  7628   001B20  6E51               	movwf	_RB6_Flag^0,c	;volatile
  7629   001B22                     
  7630                           ;mcc_generated_files/interrupt_manager.c: 120:         RB6_ISR(0);
  7631   001B22  0E00               	movlw	0
  7632   001B24  EC7A  F01C         	call	_RB6_ISR
  7633   001B28                     i2l10889:
  7634                           
  7635                           ;mcc_generated_files/interrupt_manager.c: 122:     if((1 == INTCONbits.RBIE) && (1 == IN
      +                          TCONbits.RBIF) &&
  7636   001B28  A6F2               	btfss	242,3,c	;volatile
  7637   001B2A  EF99  F00D         	goto	i2u1118_41
  7638   001B2E  EF9B  F00D         	goto	i2u1118_40
  7639   001B32                     i2u1118_41:
  7640   001B32  EFB6  F00D         	goto	i2l10901
  7641   001B36                     i2u1118_40:
  7642   001B36  A0F2               	btfss	242,0,c	;volatile
  7643   001B38  EFA0  F00D         	goto	i2u1119_41
  7644   001B3C  EFA2  F00D         	goto	i2u1119_40
  7645   001B40                     i2u1119_41:
  7646   001B40  EFB6  F00D         	goto	i2l10901
  7647   001B44                     i2u1119_40:
  7648   001B44  BC81               	btfsc	129,6,c	;volatile
  7649   001B46  EFA7  F00D         	goto	i2u1120_41
  7650   001B4A  EFA9  F00D         	goto	i2u1120_40
  7651   001B4E                     i2u1120_41:
  7652   001B4E  EFB6  F00D         	goto	i2l10901
  7653   001B52                     i2u1120_40:
  7654   001B52  5051               	movf	_RB6_Flag^0,w,c	;volatile
  7655   001B54  A4D8               	btfss	status,2,c
  7656   001B56  EFAF  F00D         	goto	i2u1121_41
  7657   001B5A  EFB1  F00D         	goto	i2u1121_40
  7658   001B5E                     i2u1121_41:
  7659   001B5E  EFB6  F00D         	goto	i2l10901
  7660   001B62                     i2u1121_40:
  7661   001B62                     
  7662                           ;mcc_generated_files/interrupt_manager.c: 123:        (PORTBbits.RB6 == LOW) && (RB6_Fla
      +                          g == 0)){;mcc_generated_files/interrupt_manager.c: 124:         RB6_Flag = 1;
  7663   001B62  0E01               	movlw	1
  7664   001B64  6E51               	movwf	_RB6_Flag^0,c	;volatile
  7665   001B66                     
  7666                           ;mcc_generated_files/interrupt_manager.c: 125:         RB6_ISR(1);
  7667   001B66  0E01               	movlw	1
  7668   001B68  EC7A  F01C         	call	_RB6_ISR
  7669   001B6C                     i2l10901:
  7670                           
  7671                           ;mcc_generated_files/interrupt_manager.c: 127:     if((1 == INTCONbits.RBIE) && (1 == IN
      +                          TCONbits.RBIF) &&
  7672   001B6C  A6F2               	btfss	242,3,c	;volatile
  7673   001B6E  EFBB  F00D         	goto	i2u1122_41
  7674   001B72  EFBD  F00D         	goto	i2u1122_40
  7675   001B76                     i2u1122_41:
  7676   001B76  EFD8  F00D         	goto	i2l10913
  7677   001B7A                     i2u1122_40:
  7678   001B7A  A0F2               	btfss	242,0,c	;volatile
  7679   001B7C  EFC2  F00D         	goto	i2u1123_41
  7680   001B80  EFC4  F00D         	goto	i2u1123_40
  7681   001B84                     i2u1123_41:
  7682   001B84  EFD8  F00D         	goto	i2l10913
  7683   001B88                     i2u1123_40:
  7684   001B88  AE81               	btfss	129,7,c	;volatile
  7685   001B8A  EFC9  F00D         	goto	i2u1124_41
  7686   001B8E  EFCB  F00D         	goto	i2u1124_40
  7687   001B92                     i2u1124_41:
  7688   001B92  EFD8  F00D         	goto	i2l10913
  7689   001B96                     i2u1124_40:
  7690   001B96  0450               	decf	_RB7_Flag^0,w,c	;volatile
  7691   001B98  A4D8               	btfss	status,2,c
  7692   001B9A  EFD1  F00D         	goto	i2u1125_41
  7693   001B9E  EFD3  F00D         	goto	i2u1125_40
  7694   001BA2                     i2u1125_41:
  7695   001BA2  EFD8  F00D         	goto	i2l10913
  7696   001BA6                     i2u1125_40:
  7697   001BA6                     
  7698                           ;mcc_generated_files/interrupt_manager.c: 128:        (PORTBbits.RB7 == HIGH) && (RB7_Fl
      +                          ag == 1)){;mcc_generated_files/interrupt_manager.c: 129:         RB7_Flag = 0;
  7699   001BA6  0E00               	movlw	0
  7700   001BA8  6E50               	movwf	_RB7_Flag^0,c	;volatile
  7701   001BAA                     
  7702                           ;mcc_generated_files/interrupt_manager.c: 130:         RB7_ISR(0);
  7703   001BAA  0E00               	movlw	0
  7704   001BAC  EC6D  F01C         	call	_RB7_ISR
  7705   001BB0                     i2l10913:
  7706                           
  7707                           ;mcc_generated_files/interrupt_manager.c: 132:     if((1 == INTCONbits.RBIE) && (1 == IN
      +                          TCONbits.RBIF) &&
  7708   001BB0  A6F2               	btfss	242,3,c	;volatile
  7709   001BB2  EFDD  F00D         	goto	i2u1126_41
  7710   001BB6  EFDF  F00D         	goto	i2u1126_40
  7711   001BBA                     i2u1126_41:
  7712   001BBA  EFFA  F00D         	goto	i2l10925
  7713   001BBE                     i2u1126_40:
  7714   001BBE  A0F2               	btfss	242,0,c	;volatile
  7715   001BC0  EFE4  F00D         	goto	i2u1127_41
  7716   001BC4  EFE6  F00D         	goto	i2u1127_40
  7717   001BC8                     i2u1127_41:
  7718   001BC8  EFFA  F00D         	goto	i2l10925
  7719   001BCC                     i2u1127_40:
  7720   001BCC  BE81               	btfsc	129,7,c	;volatile
  7721   001BCE  EFEB  F00D         	goto	i2u1128_41
  7722   001BD2  EFED  F00D         	goto	i2u1128_40
  7723   001BD6                     i2u1128_41:
  7724   001BD6  EFFA  F00D         	goto	i2l10925
  7725   001BDA                     i2u1128_40:
  7726   001BDA  5050               	movf	_RB7_Flag^0,w,c	;volatile
  7727   001BDC  A4D8               	btfss	status,2,c
  7728   001BDE  EFF3  F00D         	goto	i2u1129_41
  7729   001BE2  EFF5  F00D         	goto	i2u1129_40
  7730   001BE6                     i2u1129_41:
  7731   001BE6  EFFA  F00D         	goto	i2l10925
  7732   001BEA                     i2u1129_40:
  7733   001BEA                     
  7734                           ;mcc_generated_files/interrupt_manager.c: 133:        (PORTBbits.RB7 == LOW) && (RB7_Fla
      +                          g == 0)){;mcc_generated_files/interrupt_manager.c: 134:         RB7_Flag = 1;
  7735   001BEA  0E01               	movlw	1
  7736   001BEC  6E50               	movwf	_RB7_Flag^0,c	;volatile
  7737   001BEE                     
  7738                           ;mcc_generated_files/interrupt_manager.c: 135:         RB7_ISR(1);
  7739   001BEE  0E01               	movlw	1
  7740   001BF0  EC6D  F01C         	call	_RB7_ISR
  7741   001BF4                     i2l10925:
  7742                           
  7743                           ;mcc_generated_files/interrupt_manager.c: 139:     if((1 == PIE1bits.ADIE) && (1 == PIR1
      +                          bits.ADIF)){
  7744   001BF4  AC9D               	btfss	157,6,c	;volatile
  7745   001BF6  EFFF  F00D         	goto	i2u1130_41
  7746   001BFA  EF01  F00E         	goto	i2u1130_40
  7747   001BFE                     i2u1130_41:
  7748   001BFE  EF0A  F00E         	goto	i2l10931
  7749   001C02                     i2u1130_40:
  7750   001C02  AC9E               	btfss	158,6,c	;volatile
  7751   001C04  EF06  F00E         	goto	i2u1131_41
  7752   001C08  EF08  F00E         	goto	i2u1131_40
  7753   001C0C                     i2u1131_41:
  7754   001C0C  EF0A  F00E         	goto	i2l10931
  7755   001C10                     i2u1131_40:
  7756   001C10                     
  7757                           ;mcc_generated_files/interrupt_manager.c: 140:         ADC_ISR();
  7758   001C10  EC2D  F01D         	call	_ADC_ISR	;wreg free
  7759   001C14                     i2l10931:
  7760                           
  7761                           ;mcc_generated_files/interrupt_manager.c: 144:     if((1 == INTCONbits.T0IE) && (1 == IN
      +                          TCONbits.T0IF)){
  7762   001C14  AAF2               	btfss	242,5,c	;volatile
  7763   001C16  EF0F  F00E         	goto	i2u1132_41
  7764   001C1A  EF11  F00E         	goto	i2u1132_40
  7765   001C1E                     i2u1132_41:
  7766   001C1E  EF1A  F00E         	goto	i2l10937
  7767   001C22                     i2u1132_40:
  7768   001C22  A4F2               	btfss	242,2,c	;volatile
  7769   001C24  EF16  F00E         	goto	i2u1133_41
  7770   001C28  EF18  F00E         	goto	i2u1133_40
  7771   001C2C                     i2u1133_41:
  7772   001C2C  EF1A  F00E         	goto	i2l10937
  7773   001C30                     i2u1133_40:
  7774   001C30                     
  7775                           ;mcc_generated_files/interrupt_manager.c: 145:         TMR0_ISR();
  7776   001C30  ECD8  F01C         	call	_TMR0_ISR	;wreg free
  7777   001C34                     i2l10937:
  7778                           
  7779                           ;mcc_generated_files/interrupt_manager.c: 149:     if((1 == PIE1bits.TMR1IE) && (1 == PI
      +                          R1bits.TMR1IF)){
  7780   001C34  A09D               	btfss	157,0,c	;volatile
  7781   001C36  EF1F  F00E         	goto	i2u1134_41
  7782   001C3A  EF21  F00E         	goto	i2u1134_40
  7783   001C3E                     i2u1134_41:
  7784   001C3E  EF2A  F00E         	goto	i2l10943
  7785   001C42                     i2u1134_40:
  7786   001C42  A09E               	btfss	158,0,c	;volatile
  7787   001C44  EF26  F00E         	goto	i2u1135_41
  7788   001C48  EF28  F00E         	goto	i2u1135_40
  7789   001C4C                     i2u1135_41:
  7790   001C4C  EF2A  F00E         	goto	i2l10943
  7791   001C50                     i2u1135_40:
  7792   001C50                     
  7793                           ;mcc_generated_files/interrupt_manager.c: 150:         TMR1_ISR();
  7794   001C50  ECD1  F01C         	call	_TMR1_ISR	;wreg free
  7795   001C54                     i2l10943:
  7796                           
  7797                           ;mcc_generated_files/interrupt_manager.c: 154:     if((1 == PIE1bits.TMR2IE) && (1 == PI
      +                          R1bits.TMR2IF)){
  7798   001C54  A29D               	btfss	157,1,c	;volatile
  7799   001C56  EF2F  F00E         	goto	i2u1136_41
  7800   001C5A  EF31  F00E         	goto	i2u1136_40
  7801   001C5E                     i2u1136_41:
  7802   001C5E  EF3A  F00E         	goto	i2l1514
  7803   001C62                     i2u1136_40:
  7804   001C62  A29E               	btfss	158,1,c	;volatile
  7805   001C64  EF36  F00E         	goto	i2u1137_41
  7806   001C68  EF38  F00E         	goto	i2u1137_40
  7807   001C6C                     i2u1137_41:
  7808   001C6C  EF3A  F00E         	goto	i2l1514
  7809   001C70                     i2u1137_40:
  7810   001C70                     
  7811                           ;mcc_generated_files/interrupt_manager.c: 155:         TMR2_ISR();
  7812   001C70  EC11  F01D         	call	_TMR2_ISR	;wreg free
  7813   001C74                     i2l1514:
  7814   001C74  C018  FFF4         	movff	??_INTERRUPT_InterruptManager+5,prodh
  7815   001C78  C017  FFF3         	movff	??_INTERRUPT_InterruptManager+4,prodl
  7816   001C7C  C016  FFDA         	movff	??_INTERRUPT_InterruptManager+3,fsr2h
  7817   001C80  C015  FFD9         	movff	??_INTERRUPT_InterruptManager+2,fsr2l
  7818   001C84  C014  FFFB         	movff	??_INTERRUPT_InterruptManager+1,pclatu
  7819   001C88  C013  FFFA         	movff	??_INTERRUPT_InterruptManager,pclath
  7820   001C8C  9267               	bcf	int$flags,1,c	;clear compiler interrupt flag (level 2)
  7821   001C8E  0011               	retfie		f
  7822   001C90                     __end_of_INTERRUPT_InterruptManager:
  7823                           	callstack 0
  7824                           
  7825 ;; *************** function _TMR2_ISR *****************
  7826 ;; Defined at:
  7827 ;;		line 147 in file "MCAL/TIMER2/timer2.c"
  7828 ;; Parameters:    Size  Location     Type
  7829 ;;		None
  7830 ;; Auto vars:     Size  Location     Type
  7831 ;;		None
  7832 ;; Return value:  Size  Location     Type
  7833 ;;                  1    wreg      void 
  7834 ;; Registers used:
  7835 ;;		None
  7836 ;; Tracked objects:
  7837 ;;		On entry : 0/0
  7838 ;;		On exit  : 0/0
  7839 ;;		Unchanged: 0/0
  7840 ;; Data sizes:     COMRAM   BANK0   BANK1   BANK2   BANK3   BANK4   BANK5   BANK6   BANK7   BANK8   BANK9  BANK10  BANK1
      +1  BANK12  BANK13  BANK14  BANK15
  7841 ;;      Params:         0       0       0       0       0       0       0       0       0       0       0       0       
      +0       0       0       0       0
  7842 ;;      Locals:         0       0       0       0       0       0       0       0       0       0       0       0       
      +0       0       0       0       0
  7843 ;;      Temps:          0       0       0       0       0       0       0       0       0       0       0       0       
      +0       0       0       0       0
  7844 ;;      Totals:         0       0       0       0       0       0       0       0       0       0       0       0       
      +0       0       0       0       0
  7845 ;;Total ram usage:        0 bytes
  7846 ;; Hardware stack levels used: 1
  7847 ;; This function calls:
  7848 ;;		Nothing
  7849 ;; This function is called by:
  7850 ;;		_INTERRUPT_InterruptManager
  7851 ;; This function uses a non-reentrant model
  7852 ;;
  7853                           
  7854                           	psect	text41
  7855   003A22                     __ptext41:
  7856                           	callstack 0
  7857   003A22                     _TMR2_ISR:
  7858                           	callstack 25
  7859   003A22                     
  7860                           ;MCAL/TIMER2/timer2.c: 149:     (PIR1bits.TMR2IF = 0);
  7861   003A22  929E               	bcf	158,1,c	;volatile
  7862                           
  7863                           ;MCAL/TIMER2/timer2.c: 151:     TMR2 = timer2_preload;
  7864   003A24  C05F  FFCC         	movff	_timer2_preload,4044	;volatile
  7865   003A28  0012               	return		;funcret
  7866   003A2A                     __end_of_TMR2_ISR:
  7867                           	callstack 0
  7868                           
  7869 ;; *************** function _TMR1_ISR *****************
  7870 ;; Defined at:
  7871 ;;		line 194 in file "MCAL/TIMER1/timer1.c"
  7872 ;; Parameters:    Size  Location     Type
  7873 ;;		None
  7874 ;; Auto vars:     Size  Location     Type
  7875 ;;		None
  7876 ;; Return value:  Size  Location     Type
  7877 ;;                  1    wreg      void 
  7878 ;; Registers used:
  7879 ;;		wreg, status,2
  7880 ;; Tracked objects:
  7881 ;;		On entry : 0/0
  7882 ;;		On exit  : 0/0
  7883 ;;		Unchanged: 0/0
  7884 ;; Data sizes:     COMRAM   BANK0   BANK1   BANK2   BANK3   BANK4   BANK5   BANK6   BANK7   BANK8   BANK9  BANK10  BANK1
      +1  BANK12  BANK13  BANK14  BANK15
  7885 ;;      Params:         0       0       0       0       0       0       0       0       0       0       0       0       
      +0       0       0       0       0
  7886 ;;      Locals:         0       0       0       0       0       0       0       0       0       0       0       0       
      +0       0       0       0       0
  7887 ;;      Temps:          0       0       0       0       0       0       0       0       0       0       0       0       
      +0       0       0       0       0
  7888 ;;      Totals:         0       0       0       0       0       0       0       0       0       0       0       0       
      +0       0       0       0       0
  7889 ;;Total ram usage:        0 bytes
  7890 ;; Hardware stack levels used: 1
  7891 ;; This function calls:
  7892 ;;		Nothing
  7893 ;; This function is called by:
  7894 ;;		_INTERRUPT_InterruptManager
  7895 ;; This function uses a non-reentrant model
  7896 ;;
  7897                           
  7898                           	psect	text42
  7899   0039A2                     __ptext42:
  7900                           	callstack 0
  7901   0039A2                     _TMR1_ISR:
  7902                           	callstack 25
  7903   0039A2                     
  7904                           ;MCAL/TIMER1/timer1.c: 196:     (PIR1bits.TMR1IF = 0);
  7905   0039A2  909E               	bcf	158,0,c	;volatile
  7906   0039A4                     
  7907                           ;MCAL/TIMER1/timer1.c: 198:     TMR1H = (timer1_preload) >> 8;
  7908   0039A4  0100               	movlb	0	; () banked
  7909   0039A6  519B               	movf	(_timer1_preload+1)& (0+255),w,b
  7910   0039A8  6ECF               	movwf	207,c	;volatile
  7911   0039AA                     
  7912                           ; BSR set to: 0
  7913                           ;MCAL/TIMER1/timer1.c: 199:     TMR1L = (uint8)(timer1_preload);
  7914   0039AA  C09A  FFCE         	movff	_timer1_preload,4046	;volatile
  7915   0039AE                     
  7916                           ; BSR set to: 0
  7917   0039AE  0012               	return		;funcret
  7918   0039B0                     __end_of_TMR1_ISR:
  7919                           	callstack 0
  7920                           
  7921 ;; *************** function _TMR0_ISR *****************
  7922 ;; Defined at:
  7923 ;;		line 192 in file "MCAL/TIMER0/timer0.c"
  7924 ;; Parameters:    Size  Location     Type
  7925 ;;		None
  7926 ;; Auto vars:     Size  Location     Type
  7927 ;;		None
  7928 ;; Return value:  Size  Location     Type
  7929 ;;                  1    wreg      void 
  7930 ;; Registers used:
  7931 ;;		wreg, status,2
  7932 ;; Tracked objects:
  7933 ;;		On entry : 0/0
  7934 ;;		On exit  : 0/0
  7935 ;;		Unchanged: 0/0
  7936 ;; Data sizes:     COMRAM   BANK0   BANK1   BANK2   BANK3   BANK4   BANK5   BANK6   BANK7   BANK8   BANK9  BANK10  BANK1
      +1  BANK12  BANK13  BANK14  BANK15
  7937 ;;      Params:         0       0       0       0       0       0       0       0       0       0       0       0       
      +0       0       0       0       0
  7938 ;;      Locals:         0       0       0       0       0       0       0       0       0       0       0       0       
      +0       0       0       0       0
  7939 ;;      Temps:          0       0       0       0       0       0       0       0       0       0       0       0       
      +0       0       0       0       0
  7940 ;;      Totals:         0       0       0       0       0       0       0       0       0       0       0       0       
      +0       0       0       0       0
  7941 ;;Total ram usage:        0 bytes
  7942 ;; Hardware stack levels used: 1
  7943 ;; This function calls:
  7944 ;;		Nothing
  7945 ;; This function is called by:
  7946 ;;		_INTERRUPT_InterruptManager
  7947 ;; This function uses a non-reentrant model
  7948 ;;
  7949                           
  7950                           	psect	text43
  7951   0039B0                     __ptext43:
  7952                           	callstack 0
  7953   0039B0                     _TMR0_ISR:
  7954                           	callstack 25
  7955   0039B0                     
  7956                           ;MCAL/TIMER0/timer0.c: 194:     (INTCONbits.TMR0IF = 0);
  7957   0039B0  94F2               	bcf	242,2,c	;volatile
  7958   0039B2                     
  7959                           ;MCAL/TIMER0/timer0.c: 196:     TMR0H = (timer0_preload) >> 8;
  7960   0039B2  0100               	movlb	0	; () banked
  7961   0039B4  519F               	movf	(_timer0_preload+1)& (0+255),w,b
  7962   0039B6  6ED7               	movwf	215,c	;volatile
  7963   0039B8                     
  7964                           ; BSR set to: 0
  7965                           ;MCAL/TIMER0/timer0.c: 197:     TMR0L = (uint8)(timer0_preload);
  7966   0039B8  C09E  FFD6         	movff	_timer0_preload,4054	;volatile
  7967   0039BC                     
  7968                           ; BSR set to: 0
  7969   0039BC  0012               	return		;funcret
  7970   0039BE                     __end_of_TMR0_ISR:
  7971                           	callstack 0
  7972                           
  7973 ;; *************** function _RB7_ISR *****************
  7974 ;; Defined at:
  7975 ;;		line 526 in file "MCAL/INTERRUPT/mcal_external_interrupt.c"
  7976 ;; Parameters:    Size  Location     Type
  7977 ;;  RB7_Source      1    wreg     unsigned char 
  7978 ;; Auto vars:     Size  Location     Type
  7979 ;;  RB7_Source      1    0[COMRAM] unsigned char 
  7980 ;; Return value:  Size  Location     Type
  7981 ;;                  1    wreg      void 
  7982 ;; Registers used:
  7983 ;;		wreg, status,2, status,0
  7984 ;; Tracked objects:
  7985 ;;		On entry : 0/0
  7986 ;;		On exit  : 0/0
  7987 ;;		Unchanged: 0/0
  7988 ;; Data sizes:     COMRAM   BANK0   BANK1   BANK2   BANK3   BANK4   BANK5   BANK6   BANK7   BANK8   BANK9  BANK10  BANK1
      +1  BANK12  BANK13  BANK14  BANK15
  7989 ;;      Params:         0       0       0       0       0       0       0       0       0       0       0       0       
      +0       0       0       0       0
  7990 ;;      Locals:         1       0       0       0       0       0       0       0       0       0       0       0       
      +0       0       0       0       0
  7991 ;;      Temps:          0       0       0       0       0       0       0       0       0       0       0       0       
      +0       0       0       0       0
  7992 ;;      Totals:         1       0       0       0       0       0       0       0       0       0       0       0       
      +0       0       0       0       0
  7993 ;;Total ram usage:        1 bytes
  7994 ;; Hardware stack levels used: 1
  7995 ;; This function calls:
  7996 ;;		Nothing
  7997 ;; This function is called by:
  7998 ;;		_INTERRUPT_InterruptManager
  7999 ;; This function uses a non-reentrant model
  8000 ;;
  8001                           
  8002                           	psect	text44
  8003   0038DA                     __ptext44:
  8004                           	callstack 0
  8005   0038DA                     _RB7_ISR:
  8006                           	callstack 25
  8007                           
  8008                           ; BSR set to: 0
  8009                           ;incstack = 0
  8010                           ;RB7_ISR@RB7_Source stored from wreg
  8011   0038DA  6E01               	movwf	RB7_ISR@RB7_Source^0,c
  8012   0038DC                     
  8013                           ;MCAL/INTERRUPT/mcal_external_interrupt.c: 528:     (INTCONbits.RBIF=0);
  8014   0038DC  90F2               	bcf	242,0,c	;volatile
  8015   0038DE                     
  8016                           ;MCAL/INTERRUPT/mcal_external_interrupt.c: 530:     if(0 == RB7_Source){
  8017   0038DE  5001               	movf	RB7_ISR@RB7_Source^0,w,c
  8018   0038E0  A4D8               	btfss	status,2,c
  8019   0038E2  EF75  F01C         	goto	i2u670_41
  8020   0038E6  EF77  F01C         	goto	i2u670_40
  8021   0038EA                     i2u670_41:
  8022   0038EA  EF79  F01C         	goto	i2l7485
  8023   0038EE                     i2u670_40:
  8024   0038EE  EF79  F01C         	goto	i2l937
  8025   0038F2                     i2l7485:
  8026   0038F2                     i2l937:
  8027   0038F2  0012               	return		;funcret
  8028   0038F4                     __end_of_RB7_ISR:
  8029                           	callstack 0
  8030                           
  8031 ;; *************** function _RB6_ISR *****************
  8032 ;; Defined at:
  8033 ;;		line 511 in file "MCAL/INTERRUPT/mcal_external_interrupt.c"
  8034 ;; Parameters:    Size  Location     Type
  8035 ;;  RB6_Source      1    wreg     unsigned char 
  8036 ;; Auto vars:     Size  Location     Type
  8037 ;;  RB6_Source      1    0[COMRAM] unsigned char 
  8038 ;; Return value:  Size  Location     Type
  8039 ;;                  1    wreg      void 
  8040 ;; Registers used:
  8041 ;;		wreg, status,2, status,0
  8042 ;; Tracked objects:
  8043 ;;		On entry : 0/0
  8044 ;;		On exit  : 0/0
  8045 ;;		Unchanged: 0/0
  8046 ;; Data sizes:     COMRAM   BANK0   BANK1   BANK2   BANK3   BANK4   BANK5   BANK6   BANK7   BANK8   BANK9  BANK10  BANK1
      +1  BANK12  BANK13  BANK14  BANK15
  8047 ;;      Params:         0       0       0       0       0       0       0       0       0       0       0       0       
      +0       0       0       0       0
  8048 ;;      Locals:         1       0       0       0       0       0       0       0       0       0       0       0       
      +0       0       0       0       0
  8049 ;;      Temps:          0       0       0       0       0       0       0       0       0       0       0       0       
      +0       0       0       0       0
  8050 ;;      Totals:         1       0       0       0       0       0       0       0       0       0       0       0       
      +0       0       0       0       0
  8051 ;;Total ram usage:        1 bytes
  8052 ;; Hardware stack levels used: 1
  8053 ;; This function calls:
  8054 ;;		Nothing
  8055 ;; This function is called by:
  8056 ;;		_INTERRUPT_InterruptManager
  8057 ;; This function uses a non-reentrant model
  8058 ;;
  8059                           
  8060                           	psect	text45
  8061   0038F4                     __ptext45:
  8062                           	callstack 0
  8063   0038F4                     _RB6_ISR:
  8064                           	callstack 25
  8065                           
  8066                           ;incstack = 0
  8067                           ;RB6_ISR@RB6_Source stored from wreg
  8068   0038F4  6E01               	movwf	RB6_ISR@RB6_Source^0,c
  8069   0038F6                     
  8070                           ;MCAL/INTERRUPT/mcal_external_interrupt.c: 513:     (INTCONbits.RBIF=0);
  8071   0038F6  90F2               	bcf	242,0,c	;volatile
  8072   0038F8                     
  8073                           ;MCAL/INTERRUPT/mcal_external_interrupt.c: 515:     if(0 == RB6_Source){
  8074   0038F8  5001               	movf	RB6_ISR@RB6_Source^0,w,c
  8075   0038FA  A4D8               	btfss	status,2,c
  8076   0038FC  EF82  F01C         	goto	i2u669_41
  8077   003900  EF84  F01C         	goto	i2u669_40
  8078   003904                     i2u669_41:
  8079   003904  EF86  F01C         	goto	i2l7475
  8080   003908                     i2u669_40:
  8081   003908  EF86  F01C         	goto	i2l929
  8082   00390C                     i2l7475:
  8083   00390C                     i2l929:
  8084   00390C  0012               	return		;funcret
  8085   00390E                     __end_of_RB6_ISR:
  8086                           	callstack 0
  8087                           
  8088 ;; *************** function _RB5_ISR *****************
  8089 ;; Defined at:
  8090 ;;		line 496 in file "MCAL/INTERRUPT/mcal_external_interrupt.c"
  8091 ;; Parameters:    Size  Location     Type
  8092 ;;  RB5_Source      1    wreg     unsigned char 
  8093 ;; Auto vars:     Size  Location     Type
  8094 ;;  RB5_Source      1    0[COMRAM] unsigned char 
  8095 ;; Return value:  Size  Location     Type
  8096 ;;                  1    wreg      void 
  8097 ;; Registers used:
  8098 ;;		wreg, status,2, status,0
  8099 ;; Tracked objects:
  8100 ;;		On entry : 0/0
  8101 ;;		On exit  : 0/0
  8102 ;;		Unchanged: 0/0
  8103 ;; Data sizes:     COMRAM   BANK0   BANK1   BANK2   BANK3   BANK4   BANK5   BANK6   BANK7   BANK8   BANK9  BANK10  BANK1
      +1  BANK12  BANK13  BANK14  BANK15
  8104 ;;      Params:         0       0       0       0       0       0       0       0       0       0       0       0       
      +0       0       0       0       0
  8105 ;;      Locals:         1       0       0       0       0       0       0       0       0       0       0       0       
      +0       0       0       0       0
  8106 ;;      Temps:          0       0       0       0       0       0       0       0       0       0       0       0       
      +0       0       0       0       0
  8107 ;;      Totals:         1       0       0       0       0       0       0       0       0       0       0       0       
      +0       0       0       0       0
  8108 ;;Total ram usage:        1 bytes
  8109 ;; Hardware stack levels used: 1
  8110 ;; This function calls:
  8111 ;;		Nothing
  8112 ;; This function is called by:
  8113 ;;		_INTERRUPT_InterruptManager
  8114 ;; This function uses a non-reentrant model
  8115 ;;
  8116                           
  8117                           	psect	text46
  8118   00390E                     __ptext46:
  8119                           	callstack 0
  8120   00390E                     _RB5_ISR:
  8121                           	callstack 25
  8122                           
  8123                           ;incstack = 0
  8124                           ;RB5_ISR@RB5_Source stored from wreg
  8125   00390E  6E01               	movwf	RB5_ISR@RB5_Source^0,c
  8126   003910                     
  8127                           ;MCAL/INTERRUPT/mcal_external_interrupt.c: 498:     (INTCONbits.RBIF=0);
  8128   003910  90F2               	bcf	242,0,c	;volatile
  8129   003912                     
  8130                           ;MCAL/INTERRUPT/mcal_external_interrupt.c: 500:     if(0 == RB5_Source){
  8131   003912  5001               	movf	RB5_ISR@RB5_Source^0,w,c
  8132   003914  A4D8               	btfss	status,2,c
  8133   003916  EF8F  F01C         	goto	i2u668_41
  8134   00391A  EF91  F01C         	goto	i2u668_40
  8135   00391E                     i2u668_41:
  8136   00391E  EF93  F01C         	goto	i2l7465
  8137   003922                     i2u668_40:
  8138   003922  EF93  F01C         	goto	i2l921
  8139   003926                     i2l7465:
  8140   003926                     i2l921:
  8141   003926  0012               	return		;funcret
  8142   003928                     __end_of_RB5_ISR:
  8143                           	callstack 0
  8144                           
  8145 ;; *************** function _RB4_ISR *****************
  8146 ;; Defined at:
  8147 ;;		line 481 in file "MCAL/INTERRUPT/mcal_external_interrupt.c"
  8148 ;; Parameters:    Size  Location     Type
  8149 ;;  RB4_Source      1    wreg     unsigned char 
  8150 ;; Auto vars:     Size  Location     Type
  8151 ;;  RB4_Source      1    0[COMRAM] unsigned char 
  8152 ;; Return value:  Size  Location     Type
  8153 ;;                  1    wreg      void 
  8154 ;; Registers used:
  8155 ;;		wreg, status,2, status,0
  8156 ;; Tracked objects:
  8157 ;;		On entry : 0/0
  8158 ;;		On exit  : 0/0
  8159 ;;		Unchanged: 0/0
  8160 ;; Data sizes:     COMRAM   BANK0   BANK1   BANK2   BANK3   BANK4   BANK5   BANK6   BANK7   BANK8   BANK9  BANK10  BANK1
      +1  BANK12  BANK13  BANK14  BANK15
  8161 ;;      Params:         0       0       0       0       0       0       0       0       0       0       0       0       
      +0       0       0       0       0
  8162 ;;      Locals:         1       0       0       0       0       0       0       0       0       0       0       0       
      +0       0       0       0       0
  8163 ;;      Temps:          0       0       0       0       0       0       0       0       0       0       0       0       
      +0       0       0       0       0
  8164 ;;      Totals:         1       0       0       0       0       0       0       0       0       0       0       0       
      +0       0       0       0       0
  8165 ;;Total ram usage:        1 bytes
  8166 ;; Hardware stack levels used: 1
  8167 ;; This function calls:
  8168 ;;		Nothing
  8169 ;; This function is called by:
  8170 ;;		_INTERRUPT_InterruptManager
  8171 ;; This function uses a non-reentrant model
  8172 ;;
  8173                           
  8174                           	psect	text47
  8175   003928                     __ptext47:
  8176                           	callstack 0
  8177   003928                     _RB4_ISR:
  8178                           	callstack 25
  8179                           
  8180                           ;incstack = 0
  8181                           ;RB4_ISR@RB4_Source stored from wreg
  8182   003928  6E01               	movwf	RB4_ISR@RB4_Source^0,c
  8183   00392A                     
  8184                           ;MCAL/INTERRUPT/mcal_external_interrupt.c: 483:     (INTCONbits.RBIF=0);
  8185   00392A  90F2               	bcf	242,0,c	;volatile
  8186   00392C                     
  8187                           ;MCAL/INTERRUPT/mcal_external_interrupt.c: 485:     if(0 == RB4_Source){
  8188   00392C  5001               	movf	RB4_ISR@RB4_Source^0,w,c
  8189   00392E  A4D8               	btfss	status,2,c
  8190   003930  EF9C  F01C         	goto	i2u667_41
  8191   003934  EF9E  F01C         	goto	i2u667_40
  8192   003938                     i2u667_41:
  8193   003938  EFA0  F01C         	goto	i2l7455
  8194   00393C                     i2u667_40:
  8195   00393C  EFA0  F01C         	goto	i2l913
  8196   003940                     i2l7455:
  8197   003940                     i2l913:
  8198   003940  0012               	return		;funcret
  8199   003942                     __end_of_RB4_ISR:
  8200                           	callstack 0
  8201                           
  8202 ;; *************** function _INT2_ISR *****************
  8203 ;; Defined at:
  8204 ;;		line 107 in file "MCAL/INTERRUPT/mcal_external_interrupt.c"
  8205 ;; Parameters:    Size  Location     Type
  8206 ;;		None
  8207 ;; Auto vars:     Size  Location     Type
  8208 ;;		None
  8209 ;; Return value:  Size  Location     Type
  8210 ;;                  1    wreg      void 
  8211 ;; Registers used:
  8212 ;;		None
  8213 ;; Tracked objects:
  8214 ;;		On entry : 0/0
  8215 ;;		On exit  : 0/0
  8216 ;;		Unchanged: 0/0
  8217 ;; Data sizes:     COMRAM   BANK0   BANK1   BANK2   BANK3   BANK4   BANK5   BANK6   BANK7   BANK8   BANK9  BANK10  BANK1
      +1  BANK12  BANK13  BANK14  BANK15
  8218 ;;      Params:         0       0       0       0       0       0       0       0       0       0       0       0       
      +0       0       0       0       0
  8219 ;;      Locals:         0       0       0       0       0       0       0       0       0       0       0       0       
      +0       0       0       0       0
  8220 ;;      Temps:          0       0       0       0       0       0       0       0       0       0       0       0       
      +0       0       0       0       0
  8221 ;;      Totals:         0       0       0       0       0       0       0       0       0       0       0       0       
      +0       0       0       0       0
  8222 ;;Total ram usage:        0 bytes
  8223 ;; Hardware stack levels used: 1
  8224 ;; This function calls:
  8225 ;;		Nothing
  8226 ;; This function is called by:
  8227 ;;		_INTERRUPT_InterruptManager
  8228 ;; This function uses a non-reentrant model
  8229 ;;
  8230                           
  8231                           	psect	text48
  8232   003A42                     __ptext48:
  8233                           	callstack 0
  8234   003A42                     _INT2_ISR:
  8235                           	callstack 25
  8236   003A42                     
  8237                           ;MCAL/INTERRUPT/mcal_external_interrupt.c: 109:     (INTCON3bits.INT2F=0);
  8238   003A42  92F0               	bcf	240,1,c	;volatile
  8239   003A44  0012               	return		;funcret
  8240   003A46                     __end_of_INT2_ISR:
  8241                           	callstack 0
  8242                           
  8243 ;; *************** function _INT1_ISR *****************
  8244 ;; Defined at:
  8245 ;;		line 98 in file "MCAL/INTERRUPT/mcal_external_interrupt.c"
  8246 ;; Parameters:    Size  Location     Type
  8247 ;;		None
  8248 ;; Auto vars:     Size  Location     Type
  8249 ;;		None
  8250 ;; Return value:  Size  Location     Type
  8251 ;;                  1    wreg      void 
  8252 ;; Registers used:
  8253 ;;		None
  8254 ;; Tracked objects:
  8255 ;;		On entry : 0/0
  8256 ;;		On exit  : 0/0
  8257 ;;		Unchanged: 0/0
  8258 ;; Data sizes:     COMRAM   BANK0   BANK1   BANK2   BANK3   BANK4   BANK5   BANK6   BANK7   BANK8   BANK9  BANK10  BANK1
      +1  BANK12  BANK13  BANK14  BANK15
  8259 ;;      Params:         0       0       0       0       0       0       0       0       0       0       0       0       
      +0       0       0       0       0
  8260 ;;      Locals:         0       0       0       0       0       0       0       0       0       0       0       0       
      +0       0       0       0       0
  8261 ;;      Temps:          0       0       0       0       0       0       0       0       0       0       0       0       
      +0       0       0       0       0
  8262 ;;      Totals:         0       0       0       0       0       0       0       0       0       0       0       0       
      +0       0       0       0       0
  8263 ;;Total ram usage:        0 bytes
  8264 ;; Hardware stack levels used: 1
  8265 ;; This function calls:
  8266 ;;		Nothing
  8267 ;; This function is called by:
  8268 ;;		_INTERRUPT_InterruptManager
  8269 ;; This function uses a non-reentrant model
  8270 ;;
  8271                           
  8272                           	psect	text49
  8273   003A46                     __ptext49:
  8274                           	callstack 0
  8275   003A46                     _INT1_ISR:
  8276                           	callstack 25
  8277   003A46                     
  8278                           ;MCAL/INTERRUPT/mcal_external_interrupt.c: 100:     (INTCON3bits.INT1F=0);
  8279   003A46  90F0               	bcf	240,0,c	;volatile
  8280   003A48  0012               	return		;funcret
  8281   003A4A                     __end_of_INT1_ISR:
  8282                           	callstack 0
  8283                           
  8284 ;; *************** function _INT0_ISR *****************
  8285 ;; Defined at:
  8286 ;;		line 89 in file "MCAL/INTERRUPT/mcal_external_interrupt.c"
  8287 ;; Parameters:    Size  Location     Type
  8288 ;;		None
  8289 ;; Auto vars:     Size  Location     Type
  8290 ;;		None
  8291 ;; Return value:  Size  Location     Type
  8292 ;;                  1    wreg      void 
  8293 ;; Registers used:
  8294 ;;		None
  8295 ;; Tracked objects:
  8296 ;;		On entry : 0/0
  8297 ;;		On exit  : 0/0
  8298 ;;		Unchanged: 0/0
  8299 ;; Data sizes:     COMRAM   BANK0   BANK1   BANK2   BANK3   BANK4   BANK5   BANK6   BANK7   BANK8   BANK9  BANK10  BANK1
      +1  BANK12  BANK13  BANK14  BANK15
  8300 ;;      Params:         0       0       0       0       0       0       0       0       0       0       0       0       
      +0       0       0       0       0
  8301 ;;      Locals:         0       0       0       0       0       0       0       0       0       0       0       0       
      +0       0       0       0       0
  8302 ;;      Temps:          0       0       0       0       0       0       0       0       0       0       0       0       
      +0       0       0       0       0
  8303 ;;      Totals:         0       0       0       0       0       0       0       0       0       0       0       0       
      +0       0       0       0       0
  8304 ;;Total ram usage:        0 bytes
  8305 ;; Hardware stack levels used: 1
  8306 ;; This function calls:
  8307 ;;		Nothing
  8308 ;; This function is called by:
  8309 ;;		_INTERRUPT_InterruptManager
  8310 ;; This function uses a non-reentrant model
  8311 ;;
  8312                           
  8313                           	psect	text50
  8314   003A4A                     __ptext50:
  8315                           	callstack 0
  8316   003A4A                     _INT0_ISR:
  8317                           	callstack 25
  8318   003A4A                     
  8319                           ;MCAL/INTERRUPT/mcal_external_interrupt.c: 91:     (INTCONbits.INT0F=0);
  8320   003A4A  92F2               	bcf	242,1,c	;volatile
  8321   003A4C  0012               	return		;funcret
  8322   003A4E                     __end_of_INT0_ISR:
  8323                           	callstack 0
  8324                           
  8325 ;; *************** function _I2C_Isr *****************
  8326 ;; Defined at:
  8327 ;;		line 165 in file "mcc_generated_files/i2c_slave.c"
  8328 ;; Parameters:    Size  Location     Type
  8329 ;;		None
  8330 ;; Auto vars:     Size  Location     Type
  8331 ;;		None
  8332 ;; Return value:  Size  Location     Type
  8333 ;;                  1    wreg      void 
  8334 ;; Registers used:
  8335 ;;		wreg, fsr2l, fsr2h, status,2, status,0, pcl, pclath, pclatu, tosl, prodl, prodh, cstack
  8336 ;; Tracked objects:
  8337 ;;		On entry : 0/0
  8338 ;;		On exit  : 0/0
  8339 ;;		Unchanged: 0/0
  8340 ;; Data sizes:     COMRAM   BANK0   BANK1   BANK2   BANK3   BANK4   BANK5   BANK6   BANK7   BANK8   BANK9  BANK10  BANK1
      +1  BANK12  BANK13  BANK14  BANK15
  8341 ;;      Params:         0       0       0       0       0       0       0       0       0       0       0       0       
      +0       0       0       0       0
  8342 ;;      Locals:         0       0       0       0       0       0       0       0       0       0       0       0       
      +0       0       0       0       0
  8343 ;;      Temps:          2       0       0       0       0       0       0       0       0       0       0       0       
      +0       0       0       0       0
  8344 ;;      Totals:         2       0       0       0       0       0       0       0       0       0       0       0       
      +0       0       0       0       0
  8345 ;;Total ram usage:        2 bytes
  8346 ;; Hardware stack levels used: 1
  8347 ;; Hardware stack levels required when called: 5
  8348 ;; This function calls:
  8349 ;;		_I2C_SlaveAddrCallBack
  8350 ;;		_I2C_SlaveClearIrq
  8351 ;;		_I2C_SlaveIsAddr
  8352 ;;		_I2C_SlaveIsRead
  8353 ;;		_I2C_SlaveIsRxBufFull
  8354 ;;		_I2C_SlaveIsTxBufEmpty
  8355 ;;		_I2C_SlaveRdCallBack
  8356 ;;		_I2C_SlaveReleaseClock
  8357 ;;		_I2C_SlaveWrCallBack
  8358 ;; This function is called by:
  8359 ;;		_I2C_Open
  8360 ;;		_INTERRUPT_InterruptManager
  8361 ;; This function uses a non-reentrant model
  8362 ;;
  8363                           
  8364                           	psect	text51
  8365   002F18                     __ptext51:
  8366                           	callstack 0
  8367   002F18                     _I2C_Isr:
  8368                           	callstack 20
  8369   002F18                     
  8370                           ;mcc_generated_files/i2c_slave.c: 167:     I2C_SlaveClearIrq();
  8371   002F18  EC29  F01D         	call	_I2C_SlaveClearIrq	;wreg free
  8372   002F1C                     
  8373                           ;mcc_generated_files/i2c_slave.c: 169:     if(I2C_SlaveIsAddr())
  8374   002F1C  ECBF  F01C         	call	_I2C_SlaveIsAddr	;wreg free
  8375   002F20  0900               	iorlw	0
  8376   002F22  B4D8               	btfsc	status,2,c
  8377   002F24  EF96  F017         	goto	i2u1037_41
  8378   002F28  EF98  F017         	goto	i2u1037_40
  8379   002F2C                     i2u1037_41:
  8380   002F2C  EFAA  F017         	goto	i2l10307
  8381   002F30                     i2u1037_40:
  8382   002F30                     
  8383                           ;mcc_generated_files/i2c_slave.c: 170:     {;mcc_generated_files/i2c_slave.c: 171:      
      +                             if(I2C_SlaveIsRead())
  8384   002F30  ECB5  F01C         	call	_I2C_SlaveIsRead	;wreg free
  8385   002F34  0900               	iorlw	0
  8386   002F36  B4D8               	btfsc	status,2,c
  8387   002F38  EFA0  F017         	goto	i2u1038_41
  8388   002F3C  EFA2  F017         	goto	i2u1038_40
  8389   002F40                     i2u1038_41:
  8390   002F40  EFA6  F017         	goto	i2l10305
  8391   002F44                     i2u1038_40:
  8392   002F44                     
  8393                           ;mcc_generated_files/i2c_slave.c: 172:         {;mcc_generated_files/i2c_slave.c: 173:  
      +                                     i2cSlaveState = I2C_ADDR_TX;
  8394   002F44  0E01               	movlw	1
  8395   002F46  6E5D               	movwf	_i2cSlaveState^0,c	;volatile
  8396                           
  8397                           ;mcc_generated_files/i2c_slave.c: 174:         }
  8398   002F48  EFEA  F017         	goto	i2l10331
  8399   002F4C                     i2l10305:
  8400                           
  8401                           ;mcc_generated_files/i2c_slave.c: 176:         {;mcc_generated_files/i2c_slave.c: 177:  
      +                                     i2cSlaveState = I2C_ADDR_RX;
  8402   002F4C  0E02               	movlw	2
  8403   002F4E  6E5D               	movwf	_i2cSlaveState^0,c	;volatile
  8404   002F50  EFEA  F017         	goto	i2l10331
  8405   002F54                     i2l10307:
  8406                           
  8407                           ;mcc_generated_files/i2c_slave.c: 181:     {;mcc_generated_files/i2c_slave.c: 182:      
      +                             if(I2C_SlaveIsRead())
  8408   002F54  ECB5  F01C         	call	_I2C_SlaveIsRead	;wreg free
  8409   002F58  0900               	iorlw	0
  8410   002F5A  B4D8               	btfsc	status,2,c
  8411   002F5C  EFB2  F017         	goto	i2u1039_41
  8412   002F60  EFB4  F017         	goto	i2u1039_40
  8413   002F64                     i2u1039_41:
  8414   002F64  EFB8  F017         	goto	i2l10311
  8415   002F68                     i2u1039_40:
  8416   002F68                     
  8417                           ;mcc_generated_files/i2c_slave.c: 183:         {;mcc_generated_files/i2c_slave.c: 184:  
      +                                     i2cSlaveState = I2C_DATA_TX;
  8418   002F68  0E03               	movlw	3
  8419   002F6A  6E5D               	movwf	_i2cSlaveState^0,c	;volatile
  8420                           
  8421                           ;mcc_generated_files/i2c_slave.c: 185:         }
  8422   002F6C  EFEA  F017         	goto	i2l10331
  8423   002F70                     i2l10311:
  8424                           
  8425                           ;mcc_generated_files/i2c_slave.c: 187:         {;mcc_generated_files/i2c_slave.c: 188:  
      +                                     i2cSlaveState = I2C_DATA_RX;
  8426   002F70  0E04               	movlw	4
  8427   002F72  6E5D               	movwf	_i2cSlaveState^0,c	;volatile
  8428   002F74  EFEA  F017         	goto	i2l10331
  8429   002F78                     i2l10313:
  8430                           
  8431                           ;mcc_generated_files/i2c_slave.c: 195:             I2C_SlaveAddrCallBack();
  8432   002F78  EC10  F01C         	call	_I2C_SlaveAddrCallBack	;wreg free
  8433   002F7C                     
  8434                           ;mcc_generated_files/i2c_slave.c: 196:             if(I2C_SlaveIsTxBufEmpty())
  8435   002F7C  ECA1  F01C         	call	_I2C_SlaveIsTxBufEmpty	;wreg free
  8436   002F80  0900               	iorlw	0
  8437   002F82  B4D8               	btfsc	status,2,c
  8438   002F84  EFC6  F017         	goto	i2u1040_41
  8439   002F88  EFC8  F017         	goto	i2u1040_40
  8440   002F8C                     i2u1040_41:
  8441   002F8C  EF07  F018         	goto	i2l10333
  8442   002F90                     i2u1040_40:
  8443   002F90                     i2l10317:
  8444                           
  8445                           ;mcc_generated_files/i2c_slave.c: 197:             {;mcc_generated_files/i2c_slave.c: 19
      +                          8:                 I2C_SlaveWrCallBack();
  8446   002F90  ECE2  F01B         	call	_I2C_SlaveWrCallBack	;wreg free
  8447   002F94  EF07  F018         	goto	i2l10333
  8448   002F98                     i2l10319:
  8449                           
  8450                           ;mcc_generated_files/i2c_slave.c: 202:             I2C_SlaveAddrCallBack();
  8451   002F98  EC10  F01C         	call	_I2C_SlaveAddrCallBack	;wreg free
  8452                           
  8453                           ;mcc_generated_files/i2c_slave.c: 203:             break;
  8454   002F9C  EF07  F018         	goto	i2l10333
  8455   002FA0                     i2l10321:
  8456                           
  8457                           ;mcc_generated_files/i2c_slave.c: 205:             if(I2C_SlaveIsTxBufEmpty())
  8458   002FA0  ECA1  F01C         	call	_I2C_SlaveIsTxBufEmpty	;wreg free
  8459   002FA4  0900               	iorlw	0
  8460   002FA6  B4D8               	btfsc	status,2,c
  8461   002FA8  EFD8  F017         	goto	i2u1041_41
  8462   002FAC  EFDA  F017         	goto	i2u1041_40
  8463   002FB0                     i2u1041_41:
  8464   002FB0  EF07  F018         	goto	i2l10333
  8465   002FB4                     i2u1041_40:
  8466   002FB4  EFC8  F017         	goto	i2l10317
  8467   002FB8                     i2l10325:
  8468                           
  8469                           ;mcc_generated_files/i2c_slave.c: 211:             if(I2C_SlaveIsRxBufFull())
  8470   002FB8  ECAB  F01C         	call	_I2C_SlaveIsRxBufFull	;wreg free
  8471   002FBC  0900               	iorlw	0
  8472   002FBE  B4D8               	btfsc	status,2,c
  8473   002FC0  EFE4  F017         	goto	i2u1042_41
  8474   002FC4  EFE6  F017         	goto	i2u1042_40
  8475   002FC8                     i2u1042_41:
  8476   002FC8  EF07  F018         	goto	i2l10333
  8477   002FCC                     i2u1042_40:
  8478   002FCC                     
  8479                           ;mcc_generated_files/i2c_slave.c: 212:             {;mcc_generated_files/i2c_slave.c: 21
      +                          3:                 I2C_SlaveRdCallBack();
  8480   002FCC  ECF9  F01B         	call	_I2C_SlaveRdCallBack	;wreg free
  8481   002FD0  EF07  F018         	goto	i2l10333
  8482   002FD4                     i2l10331:
  8483   002FD4  505D               	movf	_i2cSlaveState^0,w,c	;volatile
  8484   002FD6  6E11               	movwf	??_I2C_Isr^0,c
  8485   002FD8  6A12               	clrf	(??_I2C_Isr+1)^0,c
  8486                           
  8487                           ; Switch on 2 bytes has been partitioned into a top level switch of size 1, and 1 sub-sw
      +                          itches
  8488                           ; Switch size 1, requested type "simple"
  8489                           ; Number of cases is 1, Range of values is 0 to 0
  8490                           ; switch strategies available:
  8491                           ; Name         Instructions Cycles
  8492                           ; simple_byte            4     3 (average)
  8493                           ;	Chosen strategy is simple_byte
  8494   002FDA  5012               	movf	(??_I2C_Isr+1)^0,w,c
  8495   002FDC  0A00               	xorlw	0	; case 0
  8496   002FDE  B4D8               	btfsc	status,2,c
  8497   002FE0  EFF4  F017         	goto	i2l11159
  8498   002FE4  EF07  F018         	goto	i2l10333
  8499   002FE8                     i2l11159:
  8500                           
  8501                           ; Switch size 1, requested type "simple"
  8502                           ; Number of cases is 4, Range of values is 1 to 4
  8503                           ; switch strategies available:
  8504                           ; Name         Instructions Cycles
  8505                           ; simple_byte           13     7 (average)
  8506                           ;	Chosen strategy is simple_byte
  8507   002FE8  5011               	movf	??_I2C_Isr^0,w,c
  8508   002FEA  0A01               	xorlw	1	; case 1
  8509   002FEC  B4D8               	btfsc	status,2,c
  8510   002FEE  EFBC  F017         	goto	i2l10313
  8511   002FF2  0A03               	xorlw	3	; case 2
  8512   002FF4  B4D8               	btfsc	status,2,c
  8513   002FF6  EFCC  F017         	goto	i2l10319
  8514   002FFA  0A01               	xorlw	1	; case 3
  8515   002FFC  B4D8               	btfsc	status,2,c
  8516   002FFE  EFD0  F017         	goto	i2l10321
  8517   003002  0A07               	xorlw	7	; case 4
  8518   003004  B4D8               	btfsc	status,2,c
  8519   003006  EFDC  F017         	goto	i2l10325
  8520   00300A  EF07  F018         	goto	i2l10333
  8521   00300E                     i2l10333:
  8522                           
  8523                           ;mcc_generated_files/i2c_slave.c: 219:     I2C_SlaveReleaseClock();
  8524   00300E  EC27  F01D         	call	_I2C_SlaveReleaseClock	;wreg free
  8525   003012  0012               	return		;funcret
  8526   003014                     __end_of_I2C_Isr:
  8527                           	callstack 0
  8528                           
  8529 ;; *************** function _I2C_SlaveWrCallBack *****************
  8530 ;; Defined at:
  8531 ;;		line 250 in file "mcc_generated_files/i2c_slave.c"
  8532 ;; Parameters:    Size  Location     Type
  8533 ;;		None
  8534 ;; Auto vars:     Size  Location     Type
  8535 ;;		None
  8536 ;; Return value:  Size  Location     Type
  8537 ;;                  1    wreg      void 
  8538 ;; Registers used:
  8539 ;;		wreg, status,2, status,0, pcl, pclath, pclatu, tosl, cstack
  8540 ;; Tracked objects:
  8541 ;;		On entry : 0/0
  8542 ;;		On exit  : 0/0
  8543 ;;		Unchanged: 0/0
  8544 ;; Data sizes:     COMRAM   BANK0   BANK1   BANK2   BANK3   BANK4   BANK5   BANK6   BANK7   BANK8   BANK9  BANK10  BANK1
      +1  BANK12  BANK13  BANK14  BANK15
  8545 ;;      Params:         0       0       0       0       0       0       0       0       0       0       0       0       
      +0       0       0       0       0
  8546 ;;      Locals:         0       0       0       0       0       0       0       0       0       0       0       0       
      +0       0       0       0       0
  8547 ;;      Temps:          0       0       0       0       0       0       0       0       0       0       0       0       
      +0       0       0       0       0
  8548 ;;      Totals:         0       0       0       0       0       0       0       0       0       0       0       0       
      +0       0       0       0       0
  8549 ;;Total ram usage:        0 bytes
  8550 ;; Hardware stack levels used: 1
  8551 ;; Hardware stack levels required when called: 2
  8552 ;; This function calls:
  8553 ;;		NULL
  8554 ;;		_I2C_SlaveDefWrInterruptHandler
  8555 ;; This function is called by:
  8556 ;;		_I2C_Isr
  8557 ;; This function uses a non-reentrant model
  8558 ;;
  8559                           
  8560                           	psect	text52
  8561   0037C4                     __ptext52:
  8562                           	callstack 0
  8563   0037C4                     _I2C_SlaveWrCallBack:
  8564                           	callstack 22
  8565   0037C4                     
  8566                           ;mcc_generated_files/i2c_slave.c: 252:     if (I2C_SlaveWrInterruptHandler)
  8567   0037C4  0100               	movlb	0	; () banked
  8568   0037C6  5186               	movf	_I2C_SlaveWrInterruptHandler& (0+255),w,b
  8569   0037C8  1187               	iorwf	(_I2C_SlaveWrInterruptHandler+1)& (0+255),w,b
  8570   0037CA  B4D8               	btfsc	status,2,c
  8571   0037CC  EFEA  F01B         	goto	i2u639_41
  8572   0037D0  EFEC  F01B         	goto	i2u639_40
  8573   0037D4                     i2u639_41:
  8574   0037D4  EFF8  F01B         	goto	i2l1680
  8575   0037D8                     i2u639_40:
  8576   0037D8                     
  8577                           ; BSR set to: 0
  8578                           ;mcc_generated_files/i2c_slave.c: 253:     {;mcc_generated_files/i2c_slave.c: 254:      
      +                             I2C_SlaveWrInterruptHandler();
  8579   0037D8  D802               	call	i2u640_48
  8580   0037DA  EFF8  F01B         	goto	i2u640_49
  8581   0037DE                     i2u640_48:
  8582   0037DE  0005               	push	
  8583   0037E0  6EFA               	movwf	pclath,c
  8584   0037E2  5186               	movf	_I2C_SlaveWrInterruptHandler& (0+255),w,b
  8585   0037E4  6EFD               	movwf	tosl,c
  8586   0037E6  5187               	movf	(_I2C_SlaveWrInterruptHandler+1)& (0+255),w,b
  8587   0037E8  6EFE               	movwf	tosh,c
  8588   0037EA  6AFF               	clrf	tosu,c
  8589   0037EC  50FA               	movf	pclath,w,c
  8590   0037EE  0012               	return		;indir
  8591   0037F0                     i2u640_49:
  8592   0037F0                     i2l1680:
  8593   0037F0  0012               	return		;funcret
  8594   0037F2                     __end_of_I2C_SlaveWrCallBack:
  8595                           	callstack 0
  8596                           
  8597 ;; *************** function _I2C_SlaveDefWrInterruptHandler *****************
  8598 ;; Defined at:
  8599 ;;		line 258 in file "mcc_generated_files/i2c_slave.c"
  8600 ;; Parameters:    Size  Location     Type
  8601 ;;		None
  8602 ;; Auto vars:     Size  Location     Type
  8603 ;;		None
  8604 ;; Return value:  Size  Location     Type
  8605 ;;                  1    wreg      void 
  8606 ;; Registers used:
  8607 ;;		wreg, status,2, cstack
  8608 ;; Tracked objects:
  8609 ;;		On entry : 0/0
  8610 ;;		On exit  : 0/0
  8611 ;;		Unchanged: 0/0
  8612 ;; Data sizes:     COMRAM   BANK0   BANK1   BANK2   BANK3   BANK4   BANK5   BANK6   BANK7   BANK8   BANK9  BANK10  BANK1
      +1  BANK12  BANK13  BANK14  BANK15
  8613 ;;      Params:         0       0       0       0       0       0       0       0       0       0       0       0       
      +0       0       0       0       0
  8614 ;;      Locals:         0       0       0       0       0       0       0       0       0       0       0       0       
      +0       0       0       0       0
  8615 ;;      Temps:          0       0       0       0       0       0       0       0       0       0       0       0       
      +0       0       0       0       0
  8616 ;;      Totals:         0       0       0       0       0       0       0       0       0       0       0       0       
      +0       0       0       0       0
  8617 ;;Total ram usage:        0 bytes
  8618 ;; Hardware stack levels used: 1
  8619 ;; Hardware stack levels required when called: 1
  8620 ;; This function calls:
  8621 ;;		_I2C_SlaveSendTxData
  8622 ;; This function is called by:
  8623 ;;		_I2C_Open
  8624 ;;		_I2C_SlaveWrCallBack
  8625 ;; This function uses a non-reentrant model
  8626 ;;
  8627                           
  8628                           	psect	text53
  8629   003A2A                     __ptext53:
  8630                           	callstack 0
  8631   003A2A                     _I2C_SlaveDefWrInterruptHandler:
  8632                           	callstack 22
  8633   003A2A                     
  8634                           ;mcc_generated_files/i2c_slave.c: 259:     I2C_SlaveSendTxData(i2cWrData);
  8635   003A2A  505E               	movf	_i2cWrData^0,w,c	;volatile
  8636   003A2C  EC19  F01D         	call	_I2C_SlaveSendTxData
  8637   003A30  0012               	return		;funcret
  8638   003A32                     __end_of_I2C_SlaveDefWrInterruptHandler:
  8639                           	callstack 0
  8640                           
  8641 ;; *************** function _I2C_SlaveSendTxData *****************
  8642 ;; Defined at:
  8643 ;;		line 391 in file "mcc_generated_files/i2c_slave.c"
  8644 ;; Parameters:    Size  Location     Type
  8645 ;;  data            1    wreg     unsigned char 
  8646 ;; Auto vars:     Size  Location     Type
  8647 ;;  data            1    0[COMRAM] unsigned char 
  8648 ;; Return value:  Size  Location     Type
  8649 ;;                  1    wreg      void 
  8650 ;; Registers used:
  8651 ;;		wreg
  8652 ;; Tracked objects:
  8653 ;;		On entry : 0/0
  8654 ;;		On exit  : 0/0
  8655 ;;		Unchanged: 0/0
  8656 ;; Data sizes:     COMRAM   BANK0   BANK1   BANK2   BANK3   BANK4   BANK5   BANK6   BANK7   BANK8   BANK9  BANK10  BANK1
      +1  BANK12  BANK13  BANK14  BANK15
  8657 ;;      Params:         0       0       0       0       0       0       0       0       0       0       0       0       
      +0       0       0       0       0
  8658 ;;      Locals:         1       0       0       0       0       0       0       0       0       0       0       0       
      +0       0       0       0       0
  8659 ;;      Temps:          0       0       0       0       0       0       0       0       0       0       0       0       
      +0       0       0       0       0
  8660 ;;      Totals:         1       0       0       0       0       0       0       0       0       0       0       0       
      +0       0       0       0       0
  8661 ;;Total ram usage:        1 bytes
  8662 ;; Hardware stack levels used: 1
  8663 ;; This function calls:
  8664 ;;		Nothing
  8665 ;; This function is called by:
  8666 ;;		_I2C_SlaveDefWrInterruptHandler
  8667 ;;		_I2C_Write
  8668 ;; This function uses a non-reentrant model
  8669 ;;
  8670                           
  8671                           	psect	text54
  8672   003A32                     __ptext54:
  8673                           	callstack 0
  8674   003A32                     _I2C_SlaveSendTxData:
  8675                           	callstack 22
  8676                           
  8677                           ;incstack = 0
  8678                           ;I2C_SlaveSendTxData@data stored from wreg
  8679   003A32  6E01               	movwf	I2C_SlaveSendTxData@data^0,c
  8680   003A34                     
  8681                           ;mcc_generated_files/i2c_slave.c: 391: static __attribute__((inline)) void I2C_SlaveSend
      +                          TxData(uint8_t data);mcc_generated_files/i2c_slave.c: 392: {;mcc_generated_files/i2c_sla
      +                          ve.c: 393:     SSPBUF = data;
  8682   003A34  C001  FFC9         	movff	I2C_SlaveSendTxData@data,4041	;volatile
  8683   003A38  0012               	return		;funcret
  8684   003A3A                     __end_of_I2C_SlaveSendTxData:
  8685                           	callstack 0
  8686                           
  8687 ;; *************** function _I2C_SlaveReleaseClock *****************
  8688 ;; Defined at:
  8689 ;;		line 361 in file "mcc_generated_files/i2c_slave.c"
  8690 ;; Parameters:    Size  Location     Type
  8691 ;;		None
  8692 ;; Auto vars:     Size  Location     Type
  8693 ;;		None
  8694 ;; Return value:  Size  Location     Type
  8695 ;;                  1    wreg      void 
  8696 ;; Registers used:
  8697 ;;		None
  8698 ;; Tracked objects:
  8699 ;;		On entry : 0/0
  8700 ;;		On exit  : 0/0
  8701 ;;		Unchanged: 0/0
  8702 ;; Data sizes:     COMRAM   BANK0   BANK1   BANK2   BANK3   BANK4   BANK5   BANK6   BANK7   BANK8   BANK9  BANK10  BANK1
      +1  BANK12  BANK13  BANK14  BANK15
  8703 ;;      Params:         0       0       0       0       0       0       0       0       0       0       0       0       
      +0       0       0       0       0
  8704 ;;      Locals:         0       0       0       0       0       0       0       0       0       0       0       0       
      +0       0       0       0       0
  8705 ;;      Temps:          0       0       0       0       0       0       0       0       0       0       0       0       
      +0       0       0       0       0
  8706 ;;      Totals:         0       0       0       0       0       0       0       0       0       0       0       0       
      +0       0       0       0       0
  8707 ;;Total ram usage:        0 bytes
  8708 ;; Hardware stack levels used: 1
  8709 ;; This function calls:
  8710 ;;		Nothing
  8711 ;; This function is called by:
  8712 ;;		_I2C_Isr
  8713 ;; This function uses a non-reentrant model
  8714 ;;
  8715                           
  8716                           	psect	text55
  8717   003A4E                     __ptext55:
  8718                           	callstack 0
  8719   003A4E                     _I2C_SlaveReleaseClock:
  8720                           	callstack 24
  8721   003A4E                     
  8722                           ;mcc_generated_files/i2c_slave.c: 363:     SSPCON1bits.CKP = 1;
  8723   003A4E  88C6               	bsf	198,4,c	;volatile
  8724   003A50  0012               	return		;funcret
  8725   003A52                     __end_of_I2C_SlaveReleaseClock:
  8726                           	callstack 0
  8727                           
  8728 ;; *************** function _I2C_SlaveRdCallBack *****************
  8729 ;; Defined at:
  8730 ;;		line 233 in file "mcc_generated_files/i2c_slave.c"
  8731 ;; Parameters:    Size  Location     Type
  8732 ;;		None
  8733 ;; Auto vars:     Size  Location     Type
  8734 ;;		None
  8735 ;; Return value:  Size  Location     Type
  8736 ;;                  1    wreg      void 
  8737 ;; Registers used:
  8738 ;;		wreg, fsr2l, fsr2h, status,2, status,0, pcl, pclath, pclatu, tosl, prodl, prodh, cstack
  8739 ;; Tracked objects:
  8740 ;;		On entry : 0/0
  8741 ;;		On exit  : 0/0
  8742 ;;		Unchanged: 0/0
  8743 ;; Data sizes:     COMRAM   BANK0   BANK1   BANK2   BANK3   BANK4   BANK5   BANK6   BANK7   BANK8   BANK9  BANK10  BANK1
      +1  BANK12  BANK13  BANK14  BANK15
  8744 ;;      Params:         0       0       0       0       0       0       0       0       0       0       0       0       
      +0       0       0       0       0
  8745 ;;      Locals:         0       0       0       0       0       0       0       0       0       0       0       0       
      +0       0       0       0       0
  8746 ;;      Temps:          0       0       0       0       0       0       0       0       0       0       0       0       
      +0       0       0       0       0
  8747 ;;      Totals:         0       0       0       0       0       0       0       0       0       0       0       0       
      +0       0       0       0       0
  8748 ;;Total ram usage:        0 bytes
  8749 ;; Hardware stack levels used: 1
  8750 ;; Hardware stack levels required when called: 4
  8751 ;; This function calls:
  8752 ;;		NULL
  8753 ;;		_I2C_SlaveDefRdInterruptHandler
  8754 ;;		_MY_I2C_slave_ISR
  8755 ;; This function is called by:
  8756 ;;		_I2C_Isr
  8757 ;; This function uses a non-reentrant model
  8758 ;;
  8759                           
  8760                           	psect	text56
  8761   0037F2                     __ptext56:
  8762                           	callstack 0
  8763   0037F2                     _I2C_SlaveRdCallBack:
  8764                           	callstack 20
  8765   0037F2                     
  8766                           ;mcc_generated_files/i2c_slave.c: 235:     if (I2C_SlaveRdInterruptHandler)
  8767   0037F2  0100               	movlb	0	; () banked
  8768   0037F4  5188               	movf	_I2C_SlaveRdInterruptHandler& (0+255),w,b
  8769   0037F6  1189               	iorwf	(_I2C_SlaveRdInterruptHandler+1)& (0+255),w,b
  8770   0037F8  B4D8               	btfsc	status,2,c
  8771   0037FA  EF01  F01C         	goto	i2u1013_41
  8772   0037FE  EF03  F01C         	goto	i2u1013_40
  8773   003802                     i2u1013_41:
  8774   003802  EF0F  F01C         	goto	i2l1670
  8775   003806                     i2u1013_40:
  8776   003806                     
  8777                           ; BSR set to: 0
  8778                           ;mcc_generated_files/i2c_slave.c: 236:     {;mcc_generated_files/i2c_slave.c: 237:      
      +                             I2C_SlaveRdInterruptHandler();
  8779   003806  D802               	call	i2u1014_48
  8780   003808  EF0F  F01C         	goto	i2u1014_49
  8781   00380C                     i2u1014_48:
  8782   00380C  0005               	push	
  8783   00380E  6EFA               	movwf	pclath,c
  8784   003810  5188               	movf	_I2C_SlaveRdInterruptHandler& (0+255),w,b
  8785   003812  6EFD               	movwf	tosl,c
  8786   003814  5189               	movf	(_I2C_SlaveRdInterruptHandler+1)& (0+255),w,b
  8787   003816  6EFE               	movwf	tosh,c
  8788   003818  6AFF               	clrf	tosu,c
  8789   00381A  50FA               	movf	pclath,w,c
  8790   00381C  0012               	return		;indir
  8791   00381E                     i2u1014_49:
  8792   00381E                     i2l1670:
  8793   00381E  0012               	return		;funcret
  8794   003820                     __end_of_I2C_SlaveRdCallBack:
  8795                           	callstack 0
  8796                           
  8797 ;; *************** function _I2C_SlaveDefRdInterruptHandler *****************
  8798 ;; Defined at:
  8799 ;;		line 241 in file "mcc_generated_files/i2c_slave.c"
  8800 ;; Parameters:    Size  Location     Type
  8801 ;;		None
  8802 ;; Auto vars:     Size  Location     Type
  8803 ;;		None
  8804 ;; Return value:  Size  Location     Type
  8805 ;;                  1    wreg      void 
  8806 ;; Registers used:
  8807 ;;		wreg, status,2, cstack
  8808 ;; Tracked objects:
  8809 ;;		On entry : 0/0
  8810 ;;		On exit  : 0/0
  8811 ;;		Unchanged: 0/0
  8812 ;; Data sizes:     COMRAM   BANK0   BANK1   BANK2   BANK3   BANK4   BANK5   BANK6   BANK7   BANK8   BANK9  BANK10  BANK1
      +1  BANK12  BANK13  BANK14  BANK15
  8813 ;;      Params:         0       0       0       0       0       0       0       0       0       0       0       0       
      +0       0       0       0       0
  8814 ;;      Locals:         0       0       0       0       0       0       0       0       0       0       0       0       
      +0       0       0       0       0
  8815 ;;      Temps:          0       0       0       0       0       0       0       0       0       0       0       0       
      +0       0       0       0       0
  8816 ;;      Totals:         0       0       0       0       0       0       0       0       0       0       0       0       
      +0       0       0       0       0
  8817 ;;Total ram usage:        0 bytes
  8818 ;; Hardware stack levels used: 1
  8819 ;; Hardware stack levels required when called: 1
  8820 ;; This function calls:
  8821 ;;		_I2C_SlaveGetRxData
  8822 ;; This function is called by:
  8823 ;;		_I2C_Open
  8824 ;;		_I2C_SlaveRdCallBack
  8825 ;; This function uses a non-reentrant model
  8826 ;;
  8827                           
  8828                           	psect	text57
  8829   003A06                     __ptext57:
  8830                           	callstack 0
  8831   003A06                     _I2C_SlaveDefRdInterruptHandler:
  8832                           	callstack 22
  8833   003A06                     
  8834                           ;mcc_generated_files/i2c_slave.c: 242:     i2cRdData = I2C_SlaveGetRxData();
  8835   003A06  EC2B  F01D         	call	_I2C_SlaveGetRxData	;wreg free
  8836   003A0A  0100               	movlb	0	; () banked
  8837   003A0C  6FC1               	movwf	_i2cRdData& (0+255),b	;volatile
  8838   003A0E                     
  8839                           ; BSR set to: 0
  8840   003A0E  0012               	return		;funcret
  8841   003A10                     __end_of_I2C_SlaveDefRdInterruptHandler:
  8842                           	callstack 0
  8843                           
  8844 ;; *************** function _MY_I2C_slave_ISR *****************
  8845 ;; Defined at:
  8846 ;;		line 12 in file "app.c"
  8847 ;; Parameters:    Size  Location     Type
  8848 ;;		None
  8849 ;; Auto vars:     Size  Location     Type
  8850 ;;  temp_var        1   15[COMRAM] unsigned char 
  8851 ;; Return value:  Size  Location     Type
  8852 ;;                  1    wreg      void 
  8853 ;; Registers used:
  8854 ;;		wreg, fsr2l, fsr2h, status,2, status,0, prodl, prodh, cstack
  8855 ;; Tracked objects:
  8856 ;;		On entry : 0/0
  8857 ;;		On exit  : 0/0
  8858 ;;		Unchanged: 0/0
  8859 ;; Data sizes:     COMRAM   BANK0   BANK1   BANK2   BANK3   BANK4   BANK5   BANK6   BANK7   BANK8   BANK9  BANK10  BANK1
      +1  BANK12  BANK13  BANK14  BANK15
  8860 ;;      Params:         0       0       0       0       0       0       0       0       0       0       0       0       
      +0       0       0       0       0
  8861 ;;      Locals:         1       0       0       0       0       0       0       0       0       0       0       0       
      +0       0       0       0       0
  8862 ;;      Temps:          0       0       0       0       0       0       0       0       0       0       0       0       
      +0       0       0       0       0
  8863 ;;      Totals:         1       0       0       0       0       0       0       0       0       0       0       0       
      +0       0       0       0       0
  8864 ;;Total ram usage:        1 bytes
  8865 ;; Hardware stack levels used: 1
  8866 ;; Hardware stack levels required when called: 3
  8867 ;; This function calls:
  8868 ;;		_print_num_7seg
  8869 ;; This function is called by:
  8870 ;;		_main
  8871 ;;		_I2C_SlaveRdCallBack
  8872 ;; This function uses a non-reentrant model
  8873 ;;
  8874                           
  8875                           	psect	text58
  8876   00384E                     __ptext58:
  8877                           	callstack 0
  8878   00384E                     _MY_I2C_slave_ISR:
  8879                           	callstack 20
  8880   00384E                     
  8881                           ;app.c: 13:     uint8 temp_var=SSPBUF;
  8882   00384E  CFC9 F010          	movff	4041,MY_I2C_slave_ISR@temp_var	;volatile
  8883   003852                     
  8884                           ;app.c: 14:     if(temp_var==112){
  8885   003852  0E70               	movlw	112
  8886   003854  1810               	xorwf	MY_I2C_slave_ISR@temp_var^0,w,c
  8887   003856  A4D8               	btfss	status,2,c
  8888   003858  EF30  F01C         	goto	i2u992_41
  8889   00385C  EF32  F01C         	goto	i2u992_40
  8890   003860                     i2u992_41:
  8891   003860  EF34  F01C         	goto	i2l1908
  8892   003864                     i2u992_40:
  8893   003864  EF39  F01C         	goto	i2l1910
  8894   003868                     i2l1908:
  8895                           
  8896                           ;app.c: 18:         var_slave=SSPBUF;
  8897   003868  CFC9 F05C          	movff	4041,_var_slave	;volatile
  8898   00386C                     
  8899                           ;app.c: 19:         print_num_7seg(var_slave);
  8900   00386C  505C               	movf	_var_slave^0,w,c	;volatile
  8901   00386E  EC6A  F01B         	call	_print_num_7seg
  8902   003872                     i2l1910:
  8903   003872  0012               	return		;funcret
  8904   003874                     __end_of_MY_I2C_slave_ISR:
  8905                           	callstack 0
  8906                           
  8907 ;; *************** function _print_num_7seg *****************
  8908 ;; Defined at:
  8909 ;;		line 61 in file "app.c"
  8910 ;; Parameters:    Size  Location     Type
  8911 ;;  num             1    wreg     unsigned char 
  8912 ;; Auto vars:     Size  Location     Type
  8913 ;;  num             1   14[COMRAM] unsigned char 
  8914 ;; Return value:  Size  Location     Type
  8915 ;;                  1    wreg      void 
  8916 ;; Registers used:
  8917 ;;		wreg, fsr2l, fsr2h, status,2, status,0, prodl, prodh, cstack
  8918 ;; Tracked objects:
  8919 ;;		On entry : 0/0
  8920 ;;		On exit  : 0/0
  8921 ;;		Unchanged: 0/0
  8922 ;; Data sizes:     COMRAM   BANK0   BANK1   BANK2   BANK3   BANK4   BANK5   BANK6   BANK7   BANK8   BANK9  BANK10  BANK1
      +1  BANK12  BANK13  BANK14  BANK15
  8923 ;;      Params:         0       0       0       0       0       0       0       0       0       0       0       0       
      +0       0       0       0       0
  8924 ;;      Locals:         1       0       0       0       0       0       0       0       0       0       0       0       
      +0       0       0       0       0
  8925 ;;      Temps:          0       0       0       0       0       0       0       0       0       0       0       0       
      +0       0       0       0       0
  8926 ;;      Totals:         1       0       0       0       0       0       0       0       0       0       0       0       
      +0       0       0       0       0
  8927 ;;Total ram usage:        1 bytes
  8928 ;; Hardware stack levels used: 1
  8929 ;; Hardware stack levels required when called: 2
  8930 ;; This function calls:
  8931 ;;		___awdiv
  8932 ;;		___awmod
  8933 ;;		_seven_segment_write
  8934 ;; This function is called by:
  8935 ;;		_MY_I2C_slave_ISR
  8936 ;; This function uses a non-reentrant model
  8937 ;;
  8938                           
  8939                           	psect	text59
  8940   0036D4                     __ptext59:
  8941                           	callstack 0
  8942   0036D4                     _print_num_7seg:
  8943                           	callstack 20
  8944                           
  8945                           ;incstack = 0
  8946                           ;print_num_7seg@num stored from wreg
  8947   0036D4  6E0F               	movwf	print_num_7seg@num^0,c
  8948   0036D6                     
  8949                           ;app.c: 62:     seven_segment_write(&seg_2,num%10);
  8950   0036D6  0E29               	movlw	low _seg_2
  8951   0036D8  6E09               	movwf	seven_segment_write@seg^0,c
  8952   0036DA  0E01               	movlw	high _seg_2
  8953   0036DC  6E0A               	movwf	(seven_segment_write@seg+1)^0,c
  8954   0036DE  C00F  F001         	movff	print_num_7seg@num,___awmod@dividend
  8955   0036E2  6A02               	clrf	(___awmod@dividend+1)^0,c
  8956   0036E4  0E00               	movlw	0
  8957   0036E6  6E04               	movwf	(___awmod@divisor+1)^0,c
  8958   0036E8  0E0A               	movlw	10
  8959   0036EA  6E03               	movwf	___awmod@divisor^0,c
  8960   0036EC  EC6C  F018         	call	___awmod	;wreg free
  8961   0036F0  5001               	movf	?___awmod^0,w,c
  8962   0036F2  6E0B               	movwf	seven_segment_write@num^0,c
  8963   0036F4  EC52  F019         	call	_seven_segment_write	;wreg free
  8964                           
  8965                           ;app.c: 63:     seven_segment_write(&seg_1,num/10);
  8966   0036F8  0ED8               	movlw	low _seg_1
  8967   0036FA  6E09               	movwf	seven_segment_write@seg^0,c
  8968   0036FC  6A0A               	clrf	(seven_segment_write@seg+1)^0,c
  8969   0036FE  C00F  F001         	movff	print_num_7seg@num,___awdiv@dividend
  8970   003702  6A02               	clrf	(___awdiv@dividend+1)^0,c
  8971   003704  0E00               	movlw	0
  8972   003706  6E04               	movwf	(___awdiv@divisor+1)^0,c
  8973   003708  0E0A               	movlw	10
  8974   00370A  6E03               	movwf	___awdiv@divisor^0,c
  8975   00370C  EC0A  F018         	call	___awdiv	;wreg free
  8976   003710  5001               	movf	?___awdiv^0,w,c
  8977   003712  6E0B               	movwf	seven_segment_write@num^0,c
  8978   003714  EC52  F019         	call	_seven_segment_write	;wreg free
  8979   003718  0012               	return		;funcret
  8980   00371A                     __end_of_print_num_7seg:
  8981                           	callstack 0
  8982                           
  8983 ;; *************** function _seven_segment_write *****************
  8984 ;; Defined at:
  8985 ;;		line 44 in file "ECUAL/7_SEGMENT/seven_segment.c"
  8986 ;; Parameters:    Size  Location     Type
  8987 ;;  seg             2    8[COMRAM] PTR struct .
  8988 ;;		 -> seg_2(5), seg_1(5), 
  8989 ;;  num             1   10[COMRAM] unsigned char 
  8990 ;; Auto vars:     Size  Location     Type
  8991 ;;  ret             1    0        unsigned char 
  8992 ;;  gpio_ret        1   13[COMRAM] unsigned char 
  8993 ;; Return value:  Size  Location     Type
  8994 ;;                  1    wreg      unsigned char 
  8995 ;; Registers used:
  8996 ;;		wreg, fsr2l, fsr2h, status,2, status,0, prodl, prodh, cstack
  8997 ;; Tracked objects:
  8998 ;;		On entry : 0/0
  8999 ;;		On exit  : 0/0
  9000 ;;		Unchanged: 0/0
  9001 ;; Data sizes:     COMRAM   BANK0   BANK1   BANK2   BANK3   BANK4   BANK5   BANK6   BANK7   BANK8   BANK9  BANK10  BANK1
      +1  BANK12  BANK13  BANK14  BANK15
  9002 ;;      Params:         3       0       0       0       0       0       0       0       0       0       0       0       
      +0       0       0       0       0
  9003 ;;      Locals:         1       0       0       0       0       0       0       0       0       0       0       0       
      +0       0       0       0       0
  9004 ;;      Temps:          2       0       0       0       0       0       0       0       0       0       0       0       
      +0       0       0       0       0
  9005 ;;      Totals:         6       0       0       0       0       0       0       0       0       0       0       0       
      +0       0       0       0       0
  9006 ;;Total ram usage:        6 bytes
  9007 ;; Hardware stack levels used: 1
  9008 ;; Hardware stack levels required when called: 1
  9009 ;; This function calls:
  9010 ;;		i2_gpio_pin_logic_write
  9011 ;; This function is called by:
  9012 ;;		_print_num_7seg
  9013 ;; This function uses a non-reentrant model
  9014 ;;
  9015                           
  9016                           	psect	text60
  9017   0032A4                     __ptext60:
  9018                           	callstack 0
  9019   0032A4                     _seven_segment_write:
  9020                           	callstack 20
  9021   0032A4                     
  9022                           ;ECUAL/7_SEGMENT/seven_segment.c: 48:     Std_ReturnType gpio_ret=(Std_ReturnType)0x00;
  9023   0032A4  0E00               	movlw	0
  9024   0032A6  6E0E               	movwf	seven_segment_write@gpio_ret^0,c
  9025   0032A8                     
  9026                           ;ECUAL/7_SEGMENT/seven_segment.c: 49:     if(((void*)0)==seg || num>9){
  9027   0032A8  5009               	movf	seven_segment_write@seg^0,w,c
  9028   0032AA  100A               	iorwf	(seven_segment_write@seg+1)^0,w,c
  9029   0032AC  B4D8               	btfsc	status,2,c
  9030   0032AE  EF5B  F019         	goto	i2u864_41
  9031   0032B2  EF5D  F019         	goto	i2u864_40
  9032   0032B6                     i2u864_41:
  9033   0032B6  EF65  F019         	goto	i2l9109
  9034   0032BA                     i2u864_40:
  9035   0032BA  0E09               	movlw	9
  9036   0032BC  640B               	cpfsgt	seven_segment_write@num^0,c
  9037   0032BE  EF63  F019         	goto	i2u865_41
  9038   0032C2  EF65  F019         	goto	i2u865_40
  9039   0032C6                     i2u865_41:
  9040   0032C6  EF67  F019         	goto	i2l9111
  9041   0032CA                     i2u865_40:
  9042   0032CA                     i2l9109:
  9043                           
  9044                           ;ECUAL/7_SEGMENT/seven_segment.c: 51:     }
  9045   0032CA  EF8D  F019         	goto	i2l24
  9046   0032CE                     i2l9111:
  9047                           
  9048                           ;ECUAL/7_SEGMENT/seven_segment.c: 53:         for(counter=0;counter<8;counter++){
  9049   0032CE  0E00               	movlw	0
  9050   0032D0  6E63               	movwf	seven_segment_write@counter^0,c
  9051   0032D2                     i2l9113:
  9052   0032D2  0E07               	movlw	7
  9053   0032D4  6463               	cpfsgt	seven_segment_write@counter^0,c
  9054   0032D6  EF6F  F019         	goto	i2u866_41
  9055   0032DA  EF71  F019         	goto	i2u866_40
  9056   0032DE                     i2u866_41:
  9057   0032DE  EF73  F019         	goto	i2l9117
  9058   0032E2                     i2u866_40:
  9059   0032E2  EF8D  F019         	goto	i2l9123
  9060   0032E6                     i2l9117:
  9061                           
  9062                           ;ECUAL/7_SEGMENT/seven_segment.c: 54:              gpio_pin_logic_write(&(seg->seven_seg
      +                          ment_pins[counter]),(num>>counter)&0x1);
  9063   0032E6  5063               	movf	seven_segment_write@counter^0,w,c
  9064   0032E8  2409               	addwf	seven_segment_write@seg^0,w,c
  9065   0032EA  6E01               	movwf	i2gpio_pin_logic_write@pin^0,c
  9066   0032EC  0E00               	movlw	0
  9067   0032EE  200A               	addwfc	(seven_segment_write@seg+1)^0,w,c
  9068   0032F0  6E02               	movwf	(i2gpio_pin_logic_write@pin+1)^0,c
  9069   0032F2  C063  F00C         	movff	seven_segment_write@counter,??_seven_segment_write
  9070   0032F6  C00B  F00D         	movff	seven_segment_write@num,??_seven_segment_write+1
  9071   0032FA  2A0C               	incf	??_seven_segment_write^0,f,c
  9072   0032FC  EF82  F019         	goto	i2u867_44
  9073   003300                     i2u867_45:
  9074   003300  90D8               	bcf	status,0,c
  9075   003302  320D               	rrcf	(??_seven_segment_write+1)^0,f,c
  9076   003304                     i2u867_44:
  9077   003304  2E0C               	decfsz	??_seven_segment_write^0,f,c
  9078   003306  EF80  F019         	goto	i2u867_45
  9079   00330A  500D               	movf	(??_seven_segment_write+1)^0,w,c
  9080   00330C  0B01               	andlw	1
  9081   00330E  6E03               	movwf	i2gpio_pin_logic_write@pin_logic^0,c
  9082   003310  EC3E  F015         	call	i2_gpio_pin_logic_write	;wreg free
  9083   003314                     
  9084                           ;ECUAL/7_SEGMENT/seven_segment.c: 56:         }
  9085   003314  2A63               	incf	seven_segment_write@counter^0,f,c
  9086   003316  EF69  F019         	goto	i2l9113
  9087   00331A                     i2l9123:
  9088   00331A                     i2l24:
  9089   00331A  0012               	return		;funcret
  9090   00331C                     __end_of_seven_segment_write:
  9091                           	callstack 0
  9092                           
  9093 ;; *************** function i2_gpio_pin_logic_write *****************
  9094 ;; Defined at:
  9095 ;;		line 81 in file "MCAL/GPIO/gpio.c"
  9096 ;; Parameters:    Size  Location     Type
  9097 ;;  pin             2    0[COMRAM] PTR struct .
  9098 ;;		 -> ccp1(15), seg_2$seven_segment_pins(4), seg_2(5), seg_1$seven_segment_pins(4), 
  9099 ;;		 -> seg_1(5), motor2(3), motor1(3), led_blue(2), 
  9100 ;;		 -> led_red(2), 
  9101 ;;  pin_logic       1    2[COMRAM] enum E2978
  9102 ;; Auto vars:     Size  Location     Type
  9103 ;;  ret             1    0        unsigned char 
  9104 ;; Return value:  Size  Location     Type
  9105 ;;                  1    wreg      unsigned char 
  9106 ;; Registers used:
  9107 ;;		wreg, fsr2l, fsr2h, status,2, status,0, prodl, prodh
  9108 ;; Tracked objects:
  9109 ;;		On entry : 0/0
  9110 ;;		On exit  : 0/0
  9111 ;;		Unchanged: 0/0
  9112 ;; Data sizes:     COMRAM   BANK0   BANK1   BANK2   BANK3   BANK4   BANK5   BANK6   BANK7   BANK8   BANK9  BANK10  BANK1
      +1  BANK12  BANK13  BANK14  BANK15
  9113 ;;      Params:         3       0       0       0       0       0       0       0       0       0       0       0       
      +0       0       0       0       0
  9114 ;;      Locals:         0       0       0       0       0       0       0       0       0       0       0       0       
      +0       0       0       0       0
  9115 ;;      Temps:          5       0       0       0       0       0       0       0       0       0       0       0       
      +0       0       0       0       0
  9116 ;;      Totals:         8       0       0       0       0       0       0       0       0       0       0       0       
      +0       0       0       0       0
  9117 ;;Total ram usage:        8 bytes
  9118 ;; Hardware stack levels used: 1
  9119 ;; This function calls:
  9120 ;;		Nothing
  9121 ;; This function is called by:
  9122 ;;		_seven_segment_write
  9123 ;; This function uses a non-reentrant model
  9124 ;;
  9125                           
  9126                           	psect	text61
  9127   002A7C                     __ptext61:
  9128                           	callstack 0
  9129   002A7C                     i2_gpio_pin_logic_write:
  9130                           	callstack 20
  9131   002A7C                     
  9132                           ;MCAL/GPIO/gpio.c: 84:     if(((void*)0)==pin ||(pin->pin)>7 || pin_logic>1){
  9133   002A7C  5001               	movf	i2gpio_pin_logic_write@pin^0,w,c
  9134   002A7E  1002               	iorwf	(i2gpio_pin_logic_write@pin+1)^0,w,c
  9135   002A80  B4D8               	btfsc	status,2,c
  9136   002A82  EF45  F015         	goto	i2u858_41
  9137   002A86  EF47  F015         	goto	i2u858_40
  9138   002A8A                     i2u858_41:
  9139   002A8A  EF60  F015         	goto	i2l9083
  9140   002A8E                     i2u858_40:
  9141   002A8E  C001  FFD9         	movff	i2gpio_pin_logic_write@pin,fsr2l
  9142   002A92  C002  FFDA         	movff	i2gpio_pin_logic_write@pin+1,fsr2h
  9143   002A96  30DF               	rrcf	223,w,c
  9144   002A98  32E8               	rrcf	wreg,f,c
  9145   002A9A  32E8               	rrcf	wreg,f,c
  9146   002A9C  0B07               	andlw	7
  9147   002A9E  6E04               	movwf	??i2_gpio_pin_logic_write^0,c
  9148   002AA0  0E08               	movlw	8
  9149   002AA2  6004               	cpfslt	??i2_gpio_pin_logic_write^0,c
  9150   002AA4  EF56  F015         	goto	i2u859_41
  9151   002AA8  EF58  F015         	goto	i2u859_40
  9152   002AAC                     i2u859_41:
  9153   002AAC  EF60  F015         	goto	i2l9083
  9154   002AB0                     i2u859_40:
  9155   002AB0  0E01               	movlw	1
  9156   002AB2  6403               	cpfsgt	i2gpio_pin_logic_write@pin_logic^0,c
  9157   002AB4  EF5E  F015         	goto	i2u860_41
  9158   002AB8  EF60  F015         	goto	i2u860_40
  9159   002ABC                     i2u860_41:
  9160   002ABC  EFBB  F015         	goto	i2l9091
  9161   002AC0                     i2u860_40:
  9162   002AC0                     i2l9083:
  9163                           
  9164                           ;MCAL/GPIO/gpio.c: 86:     }
  9165   002AC0  EFD9  F015         	goto	i2l674
  9166   002AC4                     i2l9085:
  9167                           
  9168                           ;MCAL/GPIO/gpio.c: 90:                 (*latx[pin->port] &= ~((uint8)1<<pin->pin));
  9169   002AC4  C001  FFD9         	movff	i2gpio_pin_logic_write@pin,fsr2l
  9170   002AC8  C002  FFDA         	movff	i2gpio_pin_logic_write@pin+1,fsr2h
  9171   002ACC  30DF               	rrcf	223,w,c
  9172   002ACE  32E8               	rrcf	wreg,f,c
  9173   002AD0  32E8               	rrcf	wreg,f,c
  9174   002AD2  0B07               	andlw	7
  9175   002AD4  6E04               	movwf	??i2_gpio_pin_logic_write^0,c
  9176   002AD6  0E01               	movlw	1
  9177   002AD8  6E05               	movwf	(??i2_gpio_pin_logic_write+1)^0,c
  9178   002ADA  2A04               	incf	??i2_gpio_pin_logic_write^0,f,c
  9179   002ADC  EF72  F015         	goto	i2u861_44
  9180   002AE0                     i2u861_45:
  9181   002AE0  90D8               	bcf	status,0,c
  9182   002AE2  3605               	rlcf	(??i2_gpio_pin_logic_write+1)^0,f,c
  9183   002AE4                     i2u861_44:
  9184   002AE4  2E04               	decfsz	??i2_gpio_pin_logic_write^0,f,c
  9185   002AE6  EF70  F015         	goto	i2u861_45
  9186   002AEA  5005               	movf	(??i2_gpio_pin_logic_write+1)^0,w,c
  9187   002AEC  0AFF               	xorlw	255
  9188   002AEE  6E06               	movwf	(??i2_gpio_pin_logic_write+2)^0,c
  9189   002AF0  C001  FFD9         	movff	i2gpio_pin_logic_write@pin,fsr2l
  9190   002AF4  C002  FFDA         	movff	i2gpio_pin_logic_write@pin+1,fsr2h
  9191   002AF8  50DF               	movf	223,w,c
  9192   002AFA  0B07               	andlw	7
  9193   002AFC  0D02               	mullw	2
  9194   002AFE  50F3               	movf	243,w,c
  9195   002B00  0FC4               	addlw	low _latx
  9196   002B02  6ED9               	movwf	fsr2l,c
  9197   002B04  6ADA               	clrf	fsr2h,c
  9198   002B06  CFDE F007          	movff	postinc2,??i2_gpio_pin_logic_write+3
  9199   002B0A  CFDD F008          	movff	postdec2,??i2_gpio_pin_logic_write+4
  9200   002B0E  C007  FFD9         	movff	??i2_gpio_pin_logic_write+3,fsr2l
  9201   002B12  C008  FFDA         	movff	??i2_gpio_pin_logic_write+4,fsr2h
  9202   002B16  5006               	movf	(??i2_gpio_pin_logic_write+2)^0,w,c
  9203   002B18  16DF               	andwf	indf2,f,c
  9204                           
  9205                           ;MCAL/GPIO/gpio.c: 91:                 break;
  9206   002B1A  EFD0  F015         	goto	i2l9093
  9207   002B1E                     i2l9087:
  9208                           
  9209                           ;MCAL/GPIO/gpio.c: 94:                 (*latx[pin->port] |= ((uint8)1<<pin->pin));
  9210   002B1E  C001  FFD9         	movff	i2gpio_pin_logic_write@pin,fsr2l
  9211   002B22  C002  FFDA         	movff	i2gpio_pin_logic_write@pin+1,fsr2h
  9212   002B26  30DF               	rrcf	223,w,c
  9213   002B28  32E8               	rrcf	wreg,f,c
  9214   002B2A  32E8               	rrcf	wreg,f,c
  9215   002B2C  0B07               	andlw	7
  9216   002B2E  6E04               	movwf	??i2_gpio_pin_logic_write^0,c
  9217   002B30  0E01               	movlw	1
  9218   002B32  6E05               	movwf	(??i2_gpio_pin_logic_write+1)^0,c
  9219   002B34  2A04               	incf	??i2_gpio_pin_logic_write^0,f,c
  9220   002B36  EF9F  F015         	goto	i2u862_44
  9221   002B3A                     i2u862_45:
  9222   002B3A  90D8               	bcf	status,0,c
  9223   002B3C  3605               	rlcf	(??i2_gpio_pin_logic_write+1)^0,f,c
  9224   002B3E                     i2u862_44:
  9225   002B3E  2E04               	decfsz	??i2_gpio_pin_logic_write^0,f,c
  9226   002B40  EF9D  F015         	goto	i2u862_45
  9227   002B44  C001  FFD9         	movff	i2gpio_pin_logic_write@pin,fsr2l
  9228   002B48  C002  FFDA         	movff	i2gpio_pin_logic_write@pin+1,fsr2h
  9229   002B4C  50DF               	movf	223,w,c
  9230   002B4E  0B07               	andlw	7
  9231   002B50  0D02               	mullw	2
  9232   002B52  50F3               	movf	243,w,c
  9233   002B54  0FC4               	addlw	low _latx
  9234   002B56  6ED9               	movwf	fsr2l,c
  9235   002B58  6ADA               	clrf	fsr2h,c
  9236   002B5A  CFDE F006          	movff	postinc2,??i2_gpio_pin_logic_write+2
  9237   002B5E  CFDD F007          	movff	postdec2,??i2_gpio_pin_logic_write+3
  9238   002B62  C006  FFD9         	movff	??i2_gpio_pin_logic_write+2,fsr2l
  9239   002B66  C007  FFDA         	movff	??i2_gpio_pin_logic_write+3,fsr2h
  9240   002B6A  5005               	movf	(??i2_gpio_pin_logic_write+1)^0,w,c
  9241   002B6C  12DF               	iorwf	indf2,f,c
  9242                           
  9243                           ;MCAL/GPIO/gpio.c: 95:                 break;
  9244   002B6E  EFD0  F015         	goto	i2l9093
  9245   002B72                     i2l9089:
  9246                           
  9247                           ;MCAL/GPIO/gpio.c: 99:         }
  9248   002B72  EFD0  F015         	goto	i2l9093
  9249   002B76                     i2l9091:
  9250   002B76  5003               	movf	i2gpio_pin_logic_write@pin_logic^0,w,c
  9251   002B78  6E04               	movwf	??i2_gpio_pin_logic_write^0,c
  9252   002B7A  6A05               	clrf	(??i2_gpio_pin_logic_write+1)^0,c
  9253                           
  9254                           ; Switch on 2 bytes has been partitioned into a top level switch of size 1, and 1 sub-sw
      +                          itches
  9255                           ; Switch size 1, requested type "simple"
  9256                           ; Number of cases is 1, Range of values is 0 to 0
  9257                           ; switch strategies available:
  9258                           ; Name         Instructions Cycles
  9259                           ; simple_byte            4     3 (average)
  9260                           ;	Chosen strategy is simple_byte
  9261   002B7C  5005               	movf	(??i2_gpio_pin_logic_write+1)^0,w,c
  9262   002B7E  0A00               	xorlw	0	; case 0
  9263   002B80  B4D8               	btfsc	status,2,c
  9264   002B82  EFC5  F015         	goto	i2l11161
  9265   002B86  EFB9  F015         	goto	i2l9089
  9266   002B8A                     i2l11161:
  9267                           
  9268                           ; Switch size 1, requested type "simple"
  9269                           ; Number of cases is 2, Range of values is 0 to 1
  9270                           ; switch strategies available:
  9271                           ; Name         Instructions Cycles
  9272                           ; simple_byte            7     4 (average)
  9273                           ;	Chosen strategy is simple_byte
  9274   002B8A  5004               	movf	??i2_gpio_pin_logic_write^0,w,c
  9275   002B8C  0A00               	xorlw	0	; case 0
  9276   002B8E  B4D8               	btfsc	status,2,c
  9277   002B90  EF62  F015         	goto	i2l9085
  9278   002B94  0A01               	xorlw	1	; case 1
  9279   002B96  B4D8               	btfsc	status,2,c
  9280   002B98  EF8F  F015         	goto	i2l9087
  9281   002B9C  EFB9  F015         	goto	i2l9089
  9282   002BA0                     i2l9093:
  9283                           
  9284                           ;MCAL/GPIO/gpio.c: 100:         pin->logic=pin_logic;
  9285   002BA0  C001  FFD9         	movff	i2gpio_pin_logic_write@pin,fsr2l
  9286   002BA4  C002  FFDA         	movff	i2gpio_pin_logic_write@pin+1,fsr2h
  9287   002BA8  B003               	btfsc	i2gpio_pin_logic_write@pin_logic^0,0,c
  9288   002BAA  D002               	bra	i2u863_45
  9289   002BAC  9EDF               	bcf	indf2,7,c
  9290   002BAE  D001               	bra	i2u863_46
  9291   002BB0                     i2u863_45:
  9292   002BB0  8EDF               	bsf	indf2,7,c
  9293   002BB2                     i2u863_46:
  9294   002BB2                     i2l674:
  9295   002BB2  0012               	return		;funcret
  9296   002BB4                     __end_ofi2_gpio_pin_logic_write:
  9297                           	callstack 0
  9298                           
  9299 ;; *************** function ___awmod *****************
  9300 ;; Defined at:
  9301 ;;		line 7 in file "C:\Program Files\Microchip\xc8\v2.45\pic\sources\c99\common\awmod.c"
  9302 ;; Parameters:    Size  Location     Type
  9303 ;;  dividend        2    0[COMRAM] int 
  9304 ;;  divisor         2    2[COMRAM] int 
  9305 ;; Auto vars:     Size  Location     Type
  9306 ;;  sign            1    5[COMRAM] unsigned char 
  9307 ;;  counter         1    4[COMRAM] unsigned char 
  9308 ;; Return value:  Size  Location     Type
  9309 ;;                  2    0[COMRAM] int 
  9310 ;; Registers used:
  9311 ;;		wreg, status,2, status,0
  9312 ;; Tracked objects:
  9313 ;;		On entry : 0/0
  9314 ;;		On exit  : 0/0
  9315 ;;		Unchanged: 0/0
  9316 ;; Data sizes:     COMRAM   BANK0   BANK1   BANK2   BANK3   BANK4   BANK5   BANK6   BANK7   BANK8   BANK9  BANK10  BANK1
      +1  BANK12  BANK13  BANK14  BANK15
  9317 ;;      Params:         4       0       0       0       0       0       0       0       0       0       0       0       
      +0       0       0       0       0
  9318 ;;      Locals:         2       0       0       0       0       0       0       0       0       0       0       0       
      +0       0       0       0       0
  9319 ;;      Temps:          0       0       0       0       0       0       0       0       0       0       0       0       
      +0       0       0       0       0
  9320 ;;      Totals:         6       0       0       0       0       0       0       0       0       0       0       0       
      +0       0       0       0       0
  9321 ;;Total ram usage:        6 bytes
  9322 ;; Hardware stack levels used: 1
  9323 ;; This function calls:
  9324 ;;		Nothing
  9325 ;; This function is called by:
  9326 ;;		_print_num_7seg
  9327 ;; This function uses a non-reentrant model
  9328 ;;
  9329                           
  9330                           	psect	text62
  9331   0030D8                     __ptext62:
  9332                           	callstack 0
  9333   0030D8                     ___awmod:
  9334                           	callstack 21
  9335   0030D8  0E00               	movlw	0
  9336   0030DA  6E06               	movwf	___awmod@sign^0,c
  9337   0030DC  BE02               	btfsc	(___awmod@dividend+1)^0,7,c
  9338   0030DE  EF75  F018         	goto	i2u481_40
  9339   0030E2  EF73  F018         	goto	i2u481_41
  9340   0030E6                     i2u481_41:
  9341   0030E6  EF7B  F018         	goto	i2l6187
  9342   0030EA                     i2u481_40:
  9343   0030EA  6C01               	negf	___awmod@dividend^0,c
  9344   0030EC  1E02               	comf	(___awmod@dividend+1)^0,f,c
  9345   0030EE  B0D8               	btfsc	status,0,c
  9346   0030F0  2A02               	incf	(___awmod@dividend+1)^0,f,c
  9347   0030F2  0E01               	movlw	1
  9348   0030F4  6E06               	movwf	___awmod@sign^0,c
  9349   0030F6                     i2l6187:
  9350   0030F6  BE04               	btfsc	(___awmod@divisor+1)^0,7,c
  9351   0030F8  EF82  F018         	goto	i2u482_40
  9352   0030FC  EF80  F018         	goto	i2u482_41
  9353   003100                     i2u482_41:
  9354   003100  EF86  F018         	goto	i2l6191
  9355   003104                     i2u482_40:
  9356   003104  6C03               	negf	___awmod@divisor^0,c
  9357   003106  1E04               	comf	(___awmod@divisor+1)^0,f,c
  9358   003108  B0D8               	btfsc	status,0,c
  9359   00310A  2A04               	incf	(___awmod@divisor+1)^0,f,c
  9360   00310C                     i2l6191:
  9361   00310C  5003               	movf	___awmod@divisor^0,w,c
  9362   00310E  1004               	iorwf	(___awmod@divisor+1)^0,w,c
  9363   003110  B4D8               	btfsc	status,2,c
  9364   003112  EF8D  F018         	goto	i2u483_41
  9365   003116  EF8F  F018         	goto	i2u483_40
  9366   00311A                     i2u483_41:
  9367   00311A  EFB3  F018         	goto	i2l6207
  9368   00311E                     i2u483_40:
  9369   00311E  0E01               	movlw	1
  9370   003120  6E05               	movwf	___awmod@counter^0,c
  9371   003122  EF97  F018         	goto	i2l6197
  9372   003126                     i2l6195:
  9373   003126  90D8               	bcf	status,0,c
  9374   003128  3603               	rlcf	___awmod@divisor^0,f,c
  9375   00312A  3604               	rlcf	(___awmod@divisor+1)^0,f,c
  9376   00312C  2A05               	incf	___awmod@counter^0,f,c
  9377   00312E                     i2l6197:
  9378   00312E  AE04               	btfss	(___awmod@divisor+1)^0,7,c
  9379   003130  EF9C  F018         	goto	i2u484_41
  9380   003134  EF9E  F018         	goto	i2u484_40
  9381   003138                     i2u484_41:
  9382   003138  EF93  F018         	goto	i2l6195
  9383   00313C                     i2u484_40:
  9384   00313C                     i2l6199:
  9385   00313C  5003               	movf	___awmod@divisor^0,w,c
  9386   00313E  5C01               	subwf	___awmod@dividend^0,w,c
  9387   003140  5004               	movf	(___awmod@divisor+1)^0,w,c
  9388   003142  5802               	subwfb	(___awmod@dividend+1)^0,w,c
  9389   003144  A0D8               	btfss	status,0,c
  9390   003146  EFA7  F018         	goto	i2u485_41
  9391   00314A  EFA9  F018         	goto	i2u485_40
  9392   00314E                     i2u485_41:
  9393   00314E  EFAD  F018         	goto	i2l6203
  9394   003152                     i2u485_40:
  9395   003152  5003               	movf	___awmod@divisor^0,w,c
  9396   003154  5E01               	subwf	___awmod@dividend^0,f,c
  9397   003156  5004               	movf	(___awmod@divisor+1)^0,w,c
  9398   003158  5A02               	subwfb	(___awmod@dividend+1)^0,f,c
  9399   00315A                     i2l6203:
  9400   00315A  90D8               	bcf	status,0,c
  9401   00315C  3204               	rrcf	(___awmod@divisor+1)^0,f,c
  9402   00315E  3203               	rrcf	___awmod@divisor^0,f,c
  9403   003160  2E05               	decfsz	___awmod@counter^0,f,c
  9404   003162  EF9E  F018         	goto	i2l6199
  9405   003166                     i2l6207:
  9406   003166  5006               	movf	___awmod@sign^0,w,c
  9407   003168  B4D8               	btfsc	status,2,c
  9408   00316A  EFB9  F018         	goto	i2u486_41
  9409   00316E  EFBB  F018         	goto	i2u486_40
  9410   003172                     i2u486_41:
  9411   003172  EFBF  F018         	goto	i2l6211
  9412   003176                     i2u486_40:
  9413   003176  6C01               	negf	___awmod@dividend^0,c
  9414   003178  1E02               	comf	(___awmod@dividend+1)^0,f,c
  9415   00317A  B0D8               	btfsc	status,0,c
  9416   00317C  2A02               	incf	(___awmod@dividend+1)^0,f,c
  9417   00317E                     i2l6211:
  9418   00317E  C001  F001         	movff	___awmod@dividend,?___awmod
  9419   003182  C002  F002         	movff	___awmod@dividend+1,?___awmod+1
  9420   003186  0012               	return		;funcret
  9421   003188                     __end_of___awmod:
  9422                           	callstack 0
  9423                           
  9424 ;; *************** function ___awdiv *****************
  9425 ;; Defined at:
  9426 ;;		line 7 in file "C:\Program Files\Microchip\xc8\v2.45\pic\sources\c99\common\awdiv.c"
  9427 ;; Parameters:    Size  Location     Type
  9428 ;;  dividend        2    0[COMRAM] int 
  9429 ;;  divisor         2    2[COMRAM] int 
  9430 ;; Auto vars:     Size  Location     Type
  9431 ;;  quotient        2    6[COMRAM] int 
  9432 ;;  sign            1    5[COMRAM] unsigned char 
  9433 ;;  counter         1    4[COMRAM] unsigned char 
  9434 ;; Return value:  Size  Location     Type
  9435 ;;                  2    0[COMRAM] int 
  9436 ;; Registers used:
  9437 ;;		wreg, status,2, status,0
  9438 ;; Tracked objects:
  9439 ;;		On entry : 0/0
  9440 ;;		On exit  : 0/0
  9441 ;;		Unchanged: 0/0
  9442 ;; Data sizes:     COMRAM   BANK0   BANK1   BANK2   BANK3   BANK4   BANK5   BANK6   BANK7   BANK8   BANK9  BANK10  BANK1
      +1  BANK12  BANK13  BANK14  BANK15
  9443 ;;      Params:         4       0       0       0       0       0       0       0       0       0       0       0       
      +0       0       0       0       0
  9444 ;;      Locals:         4       0       0       0       0       0       0       0       0       0       0       0       
      +0       0       0       0       0
  9445 ;;      Temps:          0       0       0       0       0       0       0       0       0       0       0       0       
      +0       0       0       0       0
  9446 ;;      Totals:         8       0       0       0       0       0       0       0       0       0       0       0       
      +0       0       0       0       0
  9447 ;;Total ram usage:        8 bytes
  9448 ;; Hardware stack levels used: 1
  9449 ;; This function calls:
  9450 ;;		Nothing
  9451 ;; This function is called by:
  9452 ;;		_print_num_7seg
  9453 ;; This function uses a non-reentrant model
  9454 ;;
  9455                           
  9456                           	psect	text63
  9457   003014                     __ptext63:
  9458                           	callstack 0
  9459   003014                     ___awdiv:
  9460                           	callstack 21
  9461   003014  0E00               	movlw	0
  9462   003016  6E06               	movwf	___awdiv@sign^0,c
  9463   003018  BE04               	btfsc	(___awdiv@divisor+1)^0,7,c
  9464   00301A  EF13  F018         	goto	i2u475_40
  9465   00301E  EF11  F018         	goto	i2u475_41
  9466   003022                     i2u475_41:
  9467   003022  EF19  F018         	goto	i2l6143
  9468   003026                     i2u475_40:
  9469   003026  6C03               	negf	___awdiv@divisor^0,c
  9470   003028  1E04               	comf	(___awdiv@divisor+1)^0,f,c
  9471   00302A  B0D8               	btfsc	status,0,c
  9472   00302C  2A04               	incf	(___awdiv@divisor+1)^0,f,c
  9473   00302E  0E01               	movlw	1
  9474   003030  6E06               	movwf	___awdiv@sign^0,c
  9475   003032                     i2l6143:
  9476   003032  BE02               	btfsc	(___awdiv@dividend+1)^0,7,c
  9477   003034  EF20  F018         	goto	i2u476_40
  9478   003038  EF1E  F018         	goto	i2u476_41
  9479   00303C                     i2u476_41:
  9480   00303C  EF26  F018         	goto	i2l6149
  9481   003040                     i2u476_40:
  9482   003040  6C01               	negf	___awdiv@dividend^0,c
  9483   003042  1E02               	comf	(___awdiv@dividend+1)^0,f,c
  9484   003044  B0D8               	btfsc	status,0,c
  9485   003046  2A02               	incf	(___awdiv@dividend+1)^0,f,c
  9486   003048  0E01               	movlw	1
  9487   00304A  1A06               	xorwf	___awdiv@sign^0,f,c
  9488   00304C                     i2l6149:
  9489   00304C  0E00               	movlw	0
  9490   00304E  6E08               	movwf	(___awdiv@quotient+1)^0,c
  9491   003050  0E00               	movlw	0
  9492   003052  6E07               	movwf	___awdiv@quotient^0,c
  9493   003054  5003               	movf	___awdiv@divisor^0,w,c
  9494   003056  1004               	iorwf	(___awdiv@divisor+1)^0,w,c
  9495   003058  B4D8               	btfsc	status,2,c
  9496   00305A  EF31  F018         	goto	i2u477_41
  9497   00305E  EF33  F018         	goto	i2u477_40
  9498   003062                     i2u477_41:
  9499   003062  EF5B  F018         	goto	i2l6171
  9500   003066                     i2u477_40:
  9501   003066  0E01               	movlw	1
  9502   003068  6E05               	movwf	___awdiv@counter^0,c
  9503   00306A  EF3B  F018         	goto	i2l6157
  9504   00306E                     i2l6155:
  9505   00306E  90D8               	bcf	status,0,c
  9506   003070  3603               	rlcf	___awdiv@divisor^0,f,c
  9507   003072  3604               	rlcf	(___awdiv@divisor+1)^0,f,c
  9508   003074  2A05               	incf	___awdiv@counter^0,f,c
  9509   003076                     i2l6157:
  9510   003076  AE04               	btfss	(___awdiv@divisor+1)^0,7,c
  9511   003078  EF40  F018         	goto	i2u478_41
  9512   00307C  EF42  F018         	goto	i2u478_40
  9513   003080                     i2u478_41:
  9514   003080  EF37  F018         	goto	i2l6155
  9515   003084                     i2u478_40:
  9516   003084                     i2l6159:
  9517   003084  90D8               	bcf	status,0,c
  9518   003086  3607               	rlcf	___awdiv@quotient^0,f,c
  9519   003088  3608               	rlcf	(___awdiv@quotient+1)^0,f,c
  9520   00308A  5003               	movf	___awdiv@divisor^0,w,c
  9521   00308C  5C01               	subwf	___awdiv@dividend^0,w,c
  9522   00308E  5004               	movf	(___awdiv@divisor+1)^0,w,c
  9523   003090  5802               	subwfb	(___awdiv@dividend+1)^0,w,c
  9524   003092  A0D8               	btfss	status,0,c
  9525   003094  EF4E  F018         	goto	i2u479_41
  9526   003098  EF50  F018         	goto	i2u479_40
  9527   00309C                     i2u479_41:
  9528   00309C  EF55  F018         	goto	i2l6167
  9529   0030A0                     i2u479_40:
  9530   0030A0  5003               	movf	___awdiv@divisor^0,w,c
  9531   0030A2  5E01               	subwf	___awdiv@dividend^0,f,c
  9532   0030A4  5004               	movf	(___awdiv@divisor+1)^0,w,c
  9533   0030A6  5A02               	subwfb	(___awdiv@dividend+1)^0,f,c
  9534   0030A8  8007               	bsf	___awdiv@quotient^0,0,c
  9535   0030AA                     i2l6167:
  9536   0030AA  90D8               	bcf	status,0,c
  9537   0030AC  3204               	rrcf	(___awdiv@divisor+1)^0,f,c
  9538   0030AE  3203               	rrcf	___awdiv@divisor^0,f,c
  9539   0030B0  2E05               	decfsz	___awdiv@counter^0,f,c
  9540   0030B2  EF42  F018         	goto	i2l6159
  9541   0030B6                     i2l6171:
  9542   0030B6  5006               	movf	___awdiv@sign^0,w,c
  9543   0030B8  B4D8               	btfsc	status,2,c
  9544   0030BA  EF61  F018         	goto	i2u480_41
  9545   0030BE  EF63  F018         	goto	i2u480_40
  9546   0030C2                     i2u480_41:
  9547   0030C2  EF67  F018         	goto	i2l6175
  9548   0030C6                     i2u480_40:
  9549   0030C6  6C07               	negf	___awdiv@quotient^0,c
  9550   0030C8  1E08               	comf	(___awdiv@quotient+1)^0,f,c
  9551   0030CA  B0D8               	btfsc	status,0,c
  9552   0030CC  2A08               	incf	(___awdiv@quotient+1)^0,f,c
  9553   0030CE                     i2l6175:
  9554   0030CE  C007  F001         	movff	___awdiv@quotient,?___awdiv
  9555   0030D2  C008  F002         	movff	___awdiv@quotient+1,?___awdiv+1
  9556   0030D6  0012               	return		;funcret
  9557   0030D8                     __end_of___awdiv:
  9558                           	callstack 0
  9559                           
  9560 ;; *************** function _I2C_SlaveIsTxBufEmpty *****************
  9561 ;; Defined at:
  9562 ;;		line 381 in file "mcc_generated_files/i2c_slave.c"
  9563 ;; Parameters:    Size  Location     Type
  9564 ;;		None
  9565 ;; Auto vars:     Size  Location     Type
  9566 ;;		None
  9567 ;; Return value:  Size  Location     Type
  9568 ;;                  1    wreg      _Bool 
  9569 ;; Registers used:
  9570 ;;		wreg
  9571 ;; Tracked objects:
  9572 ;;		On entry : 0/0
  9573 ;;		On exit  : 0/0
  9574 ;;		Unchanged: 0/0
  9575 ;; Data sizes:     COMRAM   BANK0   BANK1   BANK2   BANK3   BANK4   BANK5   BANK6   BANK7   BANK8   BANK9  BANK10  BANK1
      +1  BANK12  BANK13  BANK14  BANK15
  9576 ;;      Params:         0       0       0       0       0       0       0       0       0       0       0       0       
      +0       0       0       0       0
  9577 ;;      Locals:         0       0       0       0       0       0       0       0       0       0       0       0       
      +0       0       0       0       0
  9578 ;;      Temps:          0       0       0       0       0       0       0       0       0       0       0       0       
      +0       0       0       0       0
  9579 ;;      Totals:         0       0       0       0       0       0       0       0       0       0       0       0       
      +0       0       0       0       0
  9580 ;;Total ram usage:        0 bytes
  9581 ;; Hardware stack levels used: 1
  9582 ;; This function calls:
  9583 ;;		Nothing
  9584 ;; This function is called by:
  9585 ;;		_I2C_Isr
  9586 ;; This function uses a non-reentrant model
  9587 ;;
  9588                           
  9589                           	psect	text64
  9590   003942                     __ptext64:
  9591                           	callstack 0
  9592   003942                     _I2C_SlaveIsTxBufEmpty:
  9593                           	callstack 24
  9594   003942                     
  9595                           ;mcc_generated_files/i2c_slave.c: 383:     return !SSPSTATbits.BF;
  9596   003942  A0C7               	btfss	199,0,c	;volatile
  9597   003944  EFA6  F01C         	goto	i2u637_41
  9598   003948  EFA9  F01C         	goto	i2u637_40
  9599   00394C                     i2u637_41:
  9600   00394C  0E01               	movlw	1
  9601   00394E  EFAA  F01C         	goto	i2u638_40
  9602   003952                     i2u637_40:
  9603   003952  0E00               	movlw	0
  9604   003954                     i2u638_40:
  9605   003954  0012               	return		;funcret
  9606   003956                     __end_of_I2C_SlaveIsTxBufEmpty:
  9607                           	callstack 0
  9608                           
  9609 ;; *************** function _I2C_SlaveIsRxBufFull *****************
  9610 ;; Defined at:
  9611 ;;		line 386 in file "mcc_generated_files/i2c_slave.c"
  9612 ;; Parameters:    Size  Location     Type
  9613 ;;		None
  9614 ;; Auto vars:     Size  Location     Type
  9615 ;;		None
  9616 ;; Return value:  Size  Location     Type
  9617 ;;                  1    wreg      _Bool 
  9618 ;; Registers used:
  9619 ;;		wreg
  9620 ;; Tracked objects:
  9621 ;;		On entry : 0/0
  9622 ;;		On exit  : 0/0
  9623 ;;		Unchanged: 0/0
  9624 ;; Data sizes:     COMRAM   BANK0   BANK1   BANK2   BANK3   BANK4   BANK5   BANK6   BANK7   BANK8   BANK9  BANK10  BANK1
      +1  BANK12  BANK13  BANK14  BANK15
  9625 ;;      Params:         0       0       0       0       0       0       0       0       0       0       0       0       
      +0       0       0       0       0
  9626 ;;      Locals:         0       0       0       0       0       0       0       0       0       0       0       0       
      +0       0       0       0       0
  9627 ;;      Temps:          0       0       0       0       0       0       0       0       0       0       0       0       
      +0       0       0       0       0
  9628 ;;      Totals:         0       0       0       0       0       0       0       0       0       0       0       0       
      +0       0       0       0       0
  9629 ;;Total ram usage:        0 bytes
  9630 ;; Hardware stack levels used: 1
  9631 ;; This function calls:
  9632 ;;		Nothing
  9633 ;; This function is called by:
  9634 ;;		_I2C_Isr
  9635 ;; This function uses a non-reentrant model
  9636 ;;
  9637                           
  9638                           	psect	text65
  9639   003956                     __ptext65:
  9640                           	callstack 0
  9641   003956                     _I2C_SlaveIsRxBufFull:
  9642                           	callstack 24
  9643   003956                     
  9644                           ;mcc_generated_files/i2c_slave.c: 388:     return SSPSTATbits.BF;
  9645   003956  B0C7               	btfsc	199,0,c	;volatile
  9646   003958  EFB0  F01C         	goto	i2u641_41
  9647   00395C  EFB3  F01C         	goto	i2u641_40
  9648   003960                     i2u641_41:
  9649   003960  0E01               	movlw	1
  9650   003962  EFB4  F01C         	goto	i2u641_46
  9651   003966                     i2u641_40:
  9652   003966  0E00               	movlw	0
  9653   003968                     i2u641_46:
  9654   003968  0012               	return		;funcret
  9655   00396A                     __end_of_I2C_SlaveIsRxBufFull:
  9656                           	callstack 0
  9657                           
  9658 ;; *************** function _I2C_SlaveIsRead *****************
  9659 ;; Defined at:
  9660 ;;		line 351 in file "mcc_generated_files/i2c_slave.c"
  9661 ;; Parameters:    Size  Location     Type
  9662 ;;		None
  9663 ;; Auto vars:     Size  Location     Type
  9664 ;;		None
  9665 ;; Return value:  Size  Location     Type
  9666 ;;                  1    wreg      _Bool 
  9667 ;; Registers used:
  9668 ;;		wreg
  9669 ;; Tracked objects:
  9670 ;;		On entry : 0/0
  9671 ;;		On exit  : 0/0
  9672 ;;		Unchanged: 0/0
  9673 ;; Data sizes:     COMRAM   BANK0   BANK1   BANK2   BANK3   BANK4   BANK5   BANK6   BANK7   BANK8   BANK9  BANK10  BANK1
      +1  BANK12  BANK13  BANK14  BANK15
  9674 ;;      Params:         0       0       0       0       0       0       0       0       0       0       0       0       
      +0       0       0       0       0
  9675 ;;      Locals:         0       0       0       0       0       0       0       0       0       0       0       0       
      +0       0       0       0       0
  9676 ;;      Temps:          0       0       0       0       0       0       0       0       0       0       0       0       
      +0       0       0       0       0
  9677 ;;      Totals:         0       0       0       0       0       0       0       0       0       0       0       0       
      +0       0       0       0       0
  9678 ;;Total ram usage:        0 bytes
  9679 ;; Hardware stack levels used: 1
  9680 ;; This function calls:
  9681 ;;		Nothing
  9682 ;; This function is called by:
  9683 ;;		_I2C_Isr
  9684 ;;		_I2C_IsRead
  9685 ;; This function uses a non-reentrant model
  9686 ;;
  9687                           
  9688                           	psect	text66
  9689   00396A                     __ptext66:
  9690                           	callstack 0
  9691   00396A                     _I2C_SlaveIsRead:
  9692                           	callstack 24
  9693   00396A                     
  9694                           ;mcc_generated_files/i2c_slave.c: 353:     return (SSPSTATbits.R_nW);
  9695   00396A  B4C7               	btfsc	199,2,c	;volatile
  9696   00396C  EFBA  F01C         	goto	i2u632_41
  9697   003970  EFBD  F01C         	goto	i2u632_40
  9698   003974                     i2u632_41:
  9699   003974  0E01               	movlw	1
  9700   003976  EFBE  F01C         	goto	i2u632_46
  9701   00397A                     i2u632_40:
  9702   00397A  0E00               	movlw	0
  9703   00397C                     i2u632_46:
  9704   00397C  0012               	return		;funcret
  9705   00397E                     __end_of_I2C_SlaveIsRead:
  9706                           	callstack 0
  9707                           
  9708 ;; *************** function _I2C_SlaveIsAddr *****************
  9709 ;; Defined at:
  9710 ;;		line 346 in file "mcc_generated_files/i2c_slave.c"
  9711 ;; Parameters:    Size  Location     Type
  9712 ;;		None
  9713 ;; Auto vars:     Size  Location     Type
  9714 ;;		None
  9715 ;; Return value:  Size  Location     Type
  9716 ;;                  1    wreg      _Bool 
  9717 ;; Registers used:
  9718 ;;		wreg
  9719 ;; Tracked objects:
  9720 ;;		On entry : 0/0
  9721 ;;		On exit  : 0/0
  9722 ;;		Unchanged: 0/0
  9723 ;; Data sizes:     COMRAM   BANK0   BANK1   BANK2   BANK3   BANK4   BANK5   BANK6   BANK7   BANK8   BANK9  BANK10  BANK1
      +1  BANK12  BANK13  BANK14  BANK15
  9724 ;;      Params:         0       0       0       0       0       0       0       0       0       0       0       0       
      +0       0       0       0       0
  9725 ;;      Locals:         0       0       0       0       0       0       0       0       0       0       0       0       
      +0       0       0       0       0
  9726 ;;      Temps:          0       0       0       0       0       0       0       0       0       0       0       0       
      +0       0       0       0       0
  9727 ;;      Totals:         0       0       0       0       0       0       0       0       0       0       0       0       
      +0       0       0       0       0
  9728 ;;Total ram usage:        0 bytes
  9729 ;; Hardware stack levels used: 1
  9730 ;; This function calls:
  9731 ;;		Nothing
  9732 ;; This function is called by:
  9733 ;;		_I2C_Isr
  9734 ;; This function uses a non-reentrant model
  9735 ;;
  9736                           
  9737                           	psect	text67
  9738   00397E                     __ptext67:
  9739                           	callstack 0
  9740   00397E                     _I2C_SlaveIsAddr:
  9741                           	callstack 24
  9742   00397E                     
  9743                           ;mcc_generated_files/i2c_slave.c: 348:     return !(SSPSTATbits.D_nA);
  9744   00397E  AAC7               	btfss	199,5,c	;volatile
  9745   003980  EFC4  F01C         	goto	i2u633_41
  9746   003984  EFC7  F01C         	goto	i2u633_40
  9747   003988                     i2u633_41:
  9748   003988  0E01               	movlw	1
  9749   00398A  EFC8  F01C         	goto	i2u634_40
  9750   00398E                     i2u633_40:
  9751   00398E  0E00               	movlw	0
  9752   003990                     i2u634_40:
  9753   003990  0012               	return		;funcret
  9754   003992                     __end_of_I2C_SlaveIsAddr:
  9755                           	callstack 0
  9756                           
  9757 ;; *************** function _I2C_SlaveClearIrq *****************
  9758 ;; Defined at:
  9759 ;;		line 356 in file "mcc_generated_files/i2c_slave.c"
  9760 ;; Parameters:    Size  Location     Type
  9761 ;;		None
  9762 ;; Auto vars:     Size  Location     Type
  9763 ;;		None
  9764 ;; Return value:  Size  Location     Type
  9765 ;;                  1    wreg      void 
  9766 ;; Registers used:
  9767 ;;		None
  9768 ;; Tracked objects:
  9769 ;;		On entry : 0/0
  9770 ;;		On exit  : 0/0
  9771 ;;		Unchanged: 0/0
  9772 ;; Data sizes:     COMRAM   BANK0   BANK1   BANK2   BANK3   BANK4   BANK5   BANK6   BANK7   BANK8   BANK9  BANK10  BANK1
      +1  BANK12  BANK13  BANK14  BANK15
  9773 ;;      Params:         0       0       0       0       0       0       0       0       0       0       0       0       
      +0       0       0       0       0
  9774 ;;      Locals:         0       0       0       0       0       0       0       0       0       0       0       0       
      +0       0       0       0       0
  9775 ;;      Temps:          0       0       0       0       0       0       0       0       0       0       0       0       
      +0       0       0       0       0
  9776 ;;      Totals:         0       0       0       0       0       0       0       0       0       0       0       0       
      +0       0       0       0       0
  9777 ;;Total ram usage:        0 bytes
  9778 ;; Hardware stack levels used: 1
  9779 ;; This function calls:
  9780 ;;		Nothing
  9781 ;; This function is called by:
  9782 ;;		_I2C_Isr
  9783 ;; This function uses a non-reentrant model
  9784 ;;
  9785                           
  9786                           	psect	text68
  9787   003A52                     __ptext68:
  9788                           	callstack 0
  9789   003A52                     _I2C_SlaveClearIrq:
  9790                           	callstack 24
  9791   003A52                     
  9792                           ;mcc_generated_files/i2c_slave.c: 358:     PIR1bits.SSPIF = 0;
  9793   003A52  969E               	bcf	158,3,c	;volatile
  9794   003A54  0012               	return		;funcret
  9795   003A56                     __end_of_I2C_SlaveClearIrq:
  9796                           	callstack 0
  9797                           
  9798 ;; *************** function _I2C_SlaveAddrCallBack *****************
  9799 ;; Defined at:
  9800 ;;		line 267 in file "mcc_generated_files/i2c_slave.c"
  9801 ;; Parameters:    Size  Location     Type
  9802 ;;		None
  9803 ;; Auto vars:     Size  Location     Type
  9804 ;;		None
  9805 ;; Return value:  Size  Location     Type
  9806 ;;                  1    wreg      void 
  9807 ;; Registers used:
  9808 ;;		wreg, status,2, status,0, pcl, pclath, pclatu, tosl, cstack
  9809 ;; Tracked objects:
  9810 ;;		On entry : 0/0
  9811 ;;		On exit  : 0/0
  9812 ;;		Unchanged: 0/0
  9813 ;; Data sizes:     COMRAM   BANK0   BANK1   BANK2   BANK3   BANK4   BANK5   BANK6   BANK7   BANK8   BANK9  BANK10  BANK1
      +1  BANK12  BANK13  BANK14  BANK15
  9814 ;;      Params:         0       0       0       0       0       0       0       0       0       0       0       0       
      +0       0       0       0       0
  9815 ;;      Locals:         0       0       0       0       0       0       0       0       0       0       0       0       
      +0       0       0       0       0
  9816 ;;      Temps:          0       0       0       0       0       0       0       0       0       0       0       0       
      +0       0       0       0       0
  9817 ;;      Totals:         0       0       0       0       0       0       0       0       0       0       0       0       
      +0       0       0       0       0
  9818 ;;Total ram usage:        0 bytes
  9819 ;; Hardware stack levels used: 1
  9820 ;; Hardware stack levels required when called: 2
  9821 ;; This function calls:
  9822 ;;		NULL
  9823 ;;		_I2C_SlaveDefAddrInterruptHandler
  9824 ;; This function is called by:
  9825 ;;		_I2C_Isr
  9826 ;; This function uses a non-reentrant model
  9827 ;;
  9828                           
  9829                           	psect	text69
  9830   003820                     __ptext69:
  9831                           	callstack 0
  9832   003820                     _I2C_SlaveAddrCallBack:
  9833                           	callstack 22
  9834   003820                     
  9835                           ;mcc_generated_files/i2c_slave.c: 269:     if (I2C_SlaveAddrInterruptHandler) {
  9836   003820  0100               	movlb	0	; () banked
  9837   003822  5184               	movf	_I2C_SlaveAddrInterruptHandler& (0+255),w,b
  9838   003824  1185               	iorwf	(_I2C_SlaveAddrInterruptHandler+1)& (0+255),w,b
  9839   003826  B4D8               	btfsc	status,2,c
  9840   003828  EF18  F01C         	goto	i2u635_41
  9841   00382C  EF1A  F01C         	goto	i2u635_40
  9842   003830                     i2u635_41:
  9843   003830  EF26  F01C         	goto	i2l1690
  9844   003834                     i2u635_40:
  9845   003834                     
  9846                           ; BSR set to: 0
  9847                           ;mcc_generated_files/i2c_slave.c: 270:         I2C_SlaveAddrInterruptHandler();
  9848   003834  D802               	call	i2u636_48
  9849   003836  EF26  F01C         	goto	i2u636_49
  9850   00383A                     i2u636_48:
  9851   00383A  0005               	push	
  9852   00383C  6EFA               	movwf	pclath,c
  9853   00383E  5184               	movf	_I2C_SlaveAddrInterruptHandler& (0+255),w,b
  9854   003840  6EFD               	movwf	tosl,c
  9855   003842  5185               	movf	(_I2C_SlaveAddrInterruptHandler+1)& (0+255),w,b
  9856   003844  6EFE               	movwf	tosh,c
  9857   003846  6AFF               	clrf	tosu,c
  9858   003848  50FA               	movf	pclath,w,c
  9859   00384A  0012               	return		;indir
  9860   00384C                     i2u636_49:
  9861   00384C                     i2l1690:
  9862   00384C  0012               	return		;funcret
  9863   00384E                     __end_of_I2C_SlaveAddrCallBack:
  9864                           	callstack 0
  9865                           
  9866 ;; *************** function _I2C_SlaveDefAddrInterruptHandler *****************
  9867 ;; Defined at:
  9868 ;;		line 274 in file "mcc_generated_files/i2c_slave.c"
  9869 ;; Parameters:    Size  Location     Type
  9870 ;;		None
  9871 ;; Auto vars:     Size  Location     Type
  9872 ;;		None
  9873 ;; Return value:  Size  Location     Type
  9874 ;;                  1    wreg      void 
  9875 ;; Registers used:
  9876 ;;		wreg, status,2, cstack
  9877 ;; Tracked objects:
  9878 ;;		On entry : 0/0
  9879 ;;		On exit  : 0/0
  9880 ;;		Unchanged: 0/0
  9881 ;; Data sizes:     COMRAM   BANK0   BANK1   BANK2   BANK3   BANK4   BANK5   BANK6   BANK7   BANK8   BANK9  BANK10  BANK1
      +1  BANK12  BANK13  BANK14  BANK15
  9882 ;;      Params:         0       0       0       0       0       0       0       0       0       0       0       0       
      +0       0       0       0       0
  9883 ;;      Locals:         0       0       0       0       0       0       0       0       0       0       0       0       
      +0       0       0       0       0
  9884 ;;      Temps:          0       0       0       0       0       0       0       0       0       0       0       0       
      +0       0       0       0       0
  9885 ;;      Totals:         0       0       0       0       0       0       0       0       0       0       0       0       
      +0       0       0       0       0
  9886 ;;Total ram usage:        0 bytes
  9887 ;; Hardware stack levels used: 1
  9888 ;; Hardware stack levels required when called: 1
  9889 ;; This function calls:
  9890 ;;		_I2C_SlaveGetRxData
  9891 ;; This function is called by:
  9892 ;;		_I2C_Open
  9893 ;;		_I2C_SlaveAddrCallBack
  9894 ;; This function uses a non-reentrant model
  9895 ;;
  9896                           
  9897                           	psect	text70
  9898   003A10                     __ptext70:
  9899                           	callstack 0
  9900   003A10                     _I2C_SlaveDefAddrInterruptHandler:
  9901                           	callstack 22
  9902   003A10                     
  9903                           ;mcc_generated_files/i2c_slave.c: 275:     i2cSlaveAddr = I2C_SlaveGetRxData();
  9904   003A10  EC2B  F01D         	call	_I2C_SlaveGetRxData	;wreg free
  9905   003A14  0100               	movlb	0	; () banked
  9906   003A16  6FC0               	movwf	_i2cSlaveAddr& (0+255),b	;volatile
  9907   003A18                     
  9908                           ; BSR set to: 0
  9909   003A18  0012               	return		;funcret
  9910   003A1A                     __end_of_I2C_SlaveDefAddrInterruptHandler:
  9911                           	callstack 0
  9912                           
  9913 ;; *************** function _I2C_SlaveGetRxData *****************
  9914 ;; Defined at:
  9915 ;;		line 396 in file "mcc_generated_files/i2c_slave.c"
  9916 ;; Parameters:    Size  Location     Type
  9917 ;;		None
  9918 ;; Auto vars:     Size  Location     Type
  9919 ;;		None
  9920 ;; Return value:  Size  Location     Type
  9921 ;;                  1    wreg      unsigned char 
  9922 ;; Registers used:
  9923 ;;		wreg, status,2
  9924 ;; Tracked objects:
  9925 ;;		On entry : 0/0
  9926 ;;		On exit  : 0/0
  9927 ;;		Unchanged: 0/0
  9928 ;; Data sizes:     COMRAM   BANK0   BANK1   BANK2   BANK3   BANK4   BANK5   BANK6   BANK7   BANK8   BANK9  BANK10  BANK1
      +1  BANK12  BANK13  BANK14  BANK15
  9929 ;;      Params:         0       0       0       0       0       0       0       0       0       0       0       0       
      +0       0       0       0       0
  9930 ;;      Locals:         0       0       0       0       0       0       0       0       0       0       0       0       
      +0       0       0       0       0
  9931 ;;      Temps:          0       0       0       0       0       0       0       0       0       0       0       0       
      +0       0       0       0       0
  9932 ;;      Totals:         0       0       0       0       0       0       0       0       0       0       0       0       
      +0       0       0       0       0
  9933 ;;Total ram usage:        0 bytes
  9934 ;; Hardware stack levels used: 1
  9935 ;; This function calls:
  9936 ;;		Nothing
  9937 ;; This function is called by:
  9938 ;;		_I2C_SlaveDefRdInterruptHandler
  9939 ;;		_I2C_SlaveDefAddrInterruptHandler
  9940 ;;		_I2C_Read
  9941 ;; This function uses a non-reentrant model
  9942 ;;
  9943                           
  9944                           	psect	text71
  9945   003A56                     __ptext71:
  9946                           	callstack 0
  9947   003A56                     _I2C_SlaveGetRxData:
  9948                           	callstack 22
  9949   003A56                     
  9950                           ;mcc_generated_files/i2c_slave.c: 398:     return SSPBUF;
  9951   003A56  50C9               	movf	201,w,c	;volatile
  9952   003A58  0012               	return		;funcret
  9953   003A5A                     __end_of_I2C_SlaveGetRxData:
  9954                           	callstack 0
  9955                           
  9956 ;; *************** function _ADC_ISR *****************
  9957 ;; Defined at:
  9958 ;;		line 322 in file "MCAL/ADC/adc.c"
  9959 ;; Parameters:    Size  Location     Type
  9960 ;;		None
  9961 ;; Auto vars:     Size  Location     Type
  9962 ;;		None
  9963 ;; Return value:  Size  Location     Type
  9964 ;;                  1    wreg      void 
  9965 ;; Registers used:
  9966 ;;		None
  9967 ;; Tracked objects:
  9968 ;;		On entry : 0/0
  9969 ;;		On exit  : 0/0
  9970 ;;		Unchanged: 0/0
  9971 ;; Data sizes:     COMRAM   BANK0   BANK1   BANK2   BANK3   BANK4   BANK5   BANK6   BANK7   BANK8   BANK9  BANK10  BANK1
      +1  BANK12  BANK13  BANK14  BANK15
  9972 ;;      Params:         0       0       0       0       0       0       0       0       0       0       0       0       
      +0       0       0       0       0
  9973 ;;      Locals:         0       0       0       0       0       0       0       0       0       0       0       0       
      +0       0       0       0       0
  9974 ;;      Temps:          0       0       0       0       0       0       0       0       0       0       0       0       
      +0       0       0       0       0
  9975 ;;      Totals:         0       0       0       0       0       0       0       0       0       0       0       0       
      +0       0       0       0       0
  9976 ;;Total ram usage:        0 bytes
  9977 ;; Hardware stack levels used: 1
  9978 ;; This function calls:
  9979 ;;		Nothing
  9980 ;; This function is called by:
  9981 ;;		_INTERRUPT_InterruptManager
  9982 ;; This function uses a non-reentrant model
  9983 ;;
  9984                           
  9985                           	psect	text72
  9986   003A5A                     __ptext72:
  9987                           	callstack 0
  9988   003A5A                     _ADC_ISR:
  9989                           	callstack 25
  9990   003A5A                     
  9991                           ;MCAL/ADC/adc.c: 324:     (PIR1bits.ADIF=0);;
  9992   003A5A  9C9E               	bcf	158,6,c	;volatile
  9993   003A5C  0012               	return		;funcret
  9994   003A5E                     __end_of_ADC_ISR:
  9995                           	callstack 0
  9996                           
  9997                           	psect	text73
  9998   000000                     __ptext73:
  9999                           	callstack 0
 10000   000000                     
 10001                           	psect	rparam
 10002   000000                     
 10003                           	psect	temp
 10004   000067                     btemp:
 10005                           	callstack 0
 10006   000067                     	ds	1
 10007   000000                     int$flags	set	btemp
 10008   000000                     wtemp8	set	btemp+1
 10009   000000                     ttemp5	set	btemp+1
 10010   000000                     ttemp6	set	btemp+4
 10011   000000                     ttemp7	set	btemp+8
 10012                           
 10013                           	psect	config
 10014                           
 10015                           ; Padding undefined space
 10016   300000                     	org	3145728
 10017   300000  FF                 	db	255
 10018                           
 10019                           ;Config register CONFIG1H @ 0x300001
 10020                           ;	Oscillator Selection bits
 10021                           ;	OSC = HS, HS oscillator
 10022                           ;	Fail-Safe Clock Monitor Enable bit
 10023                           ;	FCMEN = OFF, Fail-Safe Clock Monitor disabled
 10024                           ;	Internal/External Oscillator Switchover bit
 10025                           ;	IESO = OFF, Oscillator Switchover mode disabled
 10026   300001                     	org	3145729
 10027   300001  02                 	db	2
 10028                           
 10029                           ;Config register CONFIG2L @ 0x300002
 10030                           ;	Power-up Timer Enable bit
 10031                           ;	PWRT = OFF, PWRT disabled
 10032                           ;	Brown-out Reset Enable bits
 10033                           ;	BOREN = OFF, Brown-out Reset disabled in hardware and software
 10034                           ;	Brown Out Reset Voltage bits
 10035                           ;	BORV = 1, 
 10036   300002                     	org	3145730
 10037   300002  09                 	db	9
 10038                           
 10039                           ;Config register CONFIG2H @ 0x300003
 10040                           ;	Watchdog Timer Enable bit
 10041                           ;	WDT = OFF, WDT disabled (control is placed on the SWDTEN bit)
 10042                           ;	Watchdog Timer Postscale Select bits
 10043                           ;	WDTPS = 32768, 1:32768
 10044   300003                     	org	3145731
 10045   300003  1E                 	db	30
 10046                           
 10047                           ; Padding undefined space
 10048   300004                     	org	3145732
 10049   300004  FF                 	db	255
 10050                           
 10051                           ;Config register CONFIG3H @ 0x300005
 10052                           ;	CCP2 MUX bit
 10053                           ;	CCP2MX = PORTC, CCP2 input/output is multiplexed with RC1
 10054                           ;	PORTB A/D Enable bit
 10055                           ;	PBADEN = OFF, PORTB<4:0> pins are configured as digital I/O on Reset
 10056                           ;	Low-Power Timer1 Oscillator Enable bit
 10057                           ;	LPT1OSC = OFF, Timer1 configured for higher power operation
 10058                           ;	MCLR Pin Enable bit
 10059                           ;	MCLRE = ON, MCLR pin enabled; RE3 input pin disabled
 10060   300005                     	org	3145733
 10061   300005  81                 	db	129
 10062                           
 10063                           ;Config register CONFIG4L @ 0x300006
 10064                           ;	Stack Full/Underflow Reset Enable bit
 10065                           ;	STVREN = ON, Stack full/underflow will cause Reset
 10066                           ;	Single-Supply ICSP Enable bit
 10067                           ;	LVP = OFF, Single-Supply ICSP disabled
 10068                           ;	Extended Instruction Set Enable bit
 10069                           ;	XINST = OFF, Instruction set extension and Indexed Addressing mode disabled (Legacy mo
      +                          de)
 10070                           ;	Background Debugger Enable bit
 10071                           ;	DEBUG = 0x1, unprogrammed default
 10072   300006                     	org	3145734
 10073   300006  81                 	db	129
 10074                           
 10075                           ; Padding undefined space
 10076   300007                     	org	3145735
 10077   300007  FF                 	db	255
 10078                           
 10079                           ;Config register CONFIG5L @ 0x300008
 10080                           ;	Code Protection bit
 10081                           ;	CP0 = OFF, Block 0 (000800-003FFFh) not code-protected
 10082                           ;	Code Protection bit
 10083                           ;	CP1 = OFF, Block 1 (004000-007FFFh) not code-protected
 10084                           ;	Code Protection bit
 10085                           ;	CP2 = OFF, Block 2 (008000-00BFFFh) not code-protected
 10086                           ;	Code Protection bit
 10087                           ;	CP3 = OFF, Block 3 (00C000-00FFFFh) not code-protected
 10088   300008                     	org	3145736
 10089   300008  0F                 	db	15
 10090                           
 10091                           ;Config register CONFIG5H @ 0x300009
 10092                           ;	Boot Block Code Protection bit
 10093                           ;	CPB = OFF, Boot block (000000-0007FFh) not code-protected
 10094                           ;	Data EEPROM Code Protection bit
 10095                           ;	CPD = OFF, Data EEPROM not code-protected
 10096   300009                     	org	3145737
 10097   300009  C0                 	db	192
 10098                           
 10099                           ;Config register CONFIG6L @ 0x30000A
 10100                           ;	Write Protection bit
 10101                           ;	WRT0 = OFF, Block 0 (000800-003FFFh) not write-protected
 10102                           ;	Write Protection bit
 10103                           ;	WRT1 = OFF, Block 1 (004000-007FFFh) not write-protected
 10104                           ;	Write Protection bit
 10105                           ;	WRT2 = OFF, Block 2 (008000-00BFFFh) not write-protected
 10106                           ;	Write Protection bit
 10107                           ;	WRT3 = OFF, Block 3 (00C000-00FFFFh) not write-protected
 10108   30000A                     	org	3145738
 10109   30000A  0F                 	db	15
 10110                           
 10111                           ;Config register CONFIG6H @ 0x30000B
 10112                           ;	Configuration Register Write Protection bit
 10113                           ;	WRTC = OFF, Configuration registers (300000-3000FFh) not write-protected
 10114                           ;	Boot Block Write Protection bit
 10115                           ;	WRTB = OFF, Boot Block (000000-0007FFh) not write-protected
 10116                           ;	Data EEPROM Write Protection bit
 10117                           ;	WRTD = OFF, Data EEPROM not write-protected
 10118   30000B                     	org	3145739
 10119   30000B  E0                 	db	224
 10120                           
 10121                           ;Config register CONFIG7L @ 0x30000C
 10122                           ;	Table Read Protection bit
 10123                           ;	EBTR0 = OFF, Block 0 (000800-003FFFh) not protected from table reads executed in other
      +                           blocks
 10124                           ;	Table Read Protection bit
 10125                           ;	EBTR1 = OFF, Block 1 (004000-007FFFh) not protected from table reads executed in other
      +                           blocks
 10126                           ;	Table Read Protection bit
 10127                           ;	EBTR2 = OFF, Block 2 (008000-00BFFFh) not protected from table reads executed in other
      +                           blocks
 10128                           ;	Table Read Protection bit
 10129                           ;	EBTR3 = OFF, Block 3 (00C000-00FFFFh) not protected from table reads executed in other
      +                           blocks
 10130   30000C                     	org	3145740
 10131   30000C  0F                 	db	15
 10132                           
 10133                           ;Config register CONFIG7H @ 0x30000D
 10134                           ;	Boot Block Table Read Protection bit
 10135                           ;	EBTRB = OFF, Boot Block (000000-0007FFh) not protected from table reads executed in ot
      +                          her blocks
 10136   30000D                     	org	3145741
 10137   30000D  40                 	db	64
 10138                           tosu	equ	0xFFF
 10139                           tosh	equ	0xFFE
 10140                           tosl	equ	0xFFD
 10141                           stkptr	equ	0xFFC
 10142                           pclatu	equ	0xFFB
 10143                           pclath	equ	0xFFA
 10144                           pcl	equ	0xFF9
 10145                           tblptru	equ	0xFF8
 10146                           tblptrh	equ	0xFF7
 10147                           tblptrl	equ	0xFF6
 10148                           tablat	equ	0xFF5
 10149                           prodh	equ	0xFF4
 10150                           prodl	equ	0xFF3
 10151                           indf0	equ	0xFEF
 10152                           postinc0	equ	0xFEE
 10153                           postdec0	equ	0xFED
 10154                           preinc0	equ	0xFEC
 10155                           plusw0	equ	0xFEB
 10156                           fsr0h	equ	0xFEA
 10157                           fsr0l	equ	0xFE9
 10158                           wreg	equ	0xFE8
 10159                           indf1	equ	0xFE7
 10160                           postinc1	equ	0xFE6
 10161                           postdec1	equ	0xFE5
 10162                           preinc1	equ	0xFE4
 10163                           plusw1	equ	0xFE3
 10164                           fsr1h	equ	0xFE2
 10165                           fsr1l	equ	0xFE1
 10166                           bsr	equ	0xFE0
 10167                           indf2	equ	0xFDF
 10168                           postinc2	equ	0xFDE
 10169                           postdec2	equ	0xFDD
 10170                           preinc2	equ	0xFDC
 10171                           plusw2	equ	0xFDB
 10172                           fsr2h	equ	0xFDA
 10173                           fsr2l	equ	0xFD9
 10174                           status	equ	0xFD8

Data Sizes:
    Strings     3
    Constant    0
    Data        93
    BSS         92
    Persistent  0
    Stack       0

Auto Spaces:
    Space          Size  Autos    Used
    COMRAM          126     79     102
    BANK0           128     25     128
    BANK1           256     26      85
    BANK2           256      0       0
    BANK3           256      0       0
    BANK4           256      0       0
    BANK5           256      0       0
    BANK6           256      0       0
    BANK7           256      0       0
    BANK8           256      0       0
    BANK9           256      0       0
    BANK10          256      0       0
    BANK11          256      0       0
    BANK12          256      0       0
    BANK13          256      0       0
    BANK14          256      0       0
    BANK15          128      0       0

Pointer List with Targets:

    ADC_GetConversionResult@_adc$ADC_InterruptHandler	PTR FTN()void  size(2) Largest target is 0

    ADC_Init@_adc$ADC_InterruptHandler	PTR FTN()void  size(2) Largest target is 0

    ADC_InterruptHandler	PTR FTN()void  size(2) Largest target is 1
		 -> NULL(), 

    ccp1$CCP1_InterruptHandler	PTR FTN()void  size(2) Largest target is 1
		 -> NULL(), 

    ccp1$CCP2_InterruptHandler	PTR FTN()void  size(2) Largest target is 0

    CCP1_InterruptHandler	PTR FTN()void  size(2) Largest target is 1
		 -> NULL(), 

    CCP2_InterruptHandler	PTR FTN()void  size(2) Largest target is 2
		 -> ccp1$CCP2_InterruptHandler(BANK1[2]), NULL(), 

    CCP_Capture_Mode_Config@_ccp_obj	PTR const struct . size(2) Largest target is 15
		 -> ccp1(BANK1[15]), 

    CCP_Capture_Mode_Config@_ccp_obj$CCP1_InterruptHandler	PTR FTN()void  size(2) Largest target is 1
		 -> NULL(), 

    CCP_Capture_Mode_Config@_ccp_obj$CCP2_InterruptHandler	PTR FTN()void  size(2) Largest target is 0

    CCP_Compare_Mode_Config@_ccp_obj	PTR const struct . size(2) Largest target is 15
		 -> ccp1(BANK1[15]), 

    CCP_Compare_Mode_Config@_ccp_obj$CCP1_InterruptHandler	PTR FTN()void  size(2) Largest target is 1
		 -> NULL(), 

    CCP_Compare_Mode_Config@_ccp_obj$CCP2_InterruptHandler	PTR FTN()void  size(2) Largest target is 0

    CCP_DeInit@_ccp_obj$CCP1_InterruptHandler	PTR FTN()void  size(2) Largest target is 1
		 -> NULL(), 

    CCP_DeInit@_ccp_obj$CCP2_InterruptHandler	PTR FTN()void  size(2) Largest target is 0

    CCP_Init@_ccp_obj	PTR const struct . size(2) Largest target is 15
		 -> ccp1(BANK1[15]), 

    CCP_Init@_ccp_obj$CCP1_InterruptHandler	PTR FTN()void  size(2) Largest target is 1
		 -> NULL(), 

    CCP_Init@_ccp_obj$CCP2_InterruptHandler	PTR FTN()void  size(2) Largest target is 0

    CCP_Interrupt_Config@_ccp_obj	PTR const struct . size(2) Largest target is 15
		 -> ccp1(BANK1[15]), 

    CCP_Interrupt_Config@_ccp_obj$CCP1_InterruptHandler	PTR FTN()void  size(2) Largest target is 1
		 -> NULL(), 

    CCP_Interrupt_Config@_ccp_obj$CCP2_InterruptHandler	PTR FTN()void  size(2) Largest target is 0

    CCP_Mode_Timer_Select@_ccp_obj	PTR const struct . size(2) Largest target is 15
		 -> ccp1(BANK1[15]), 

    CCP_Mode_Timer_Select@_ccp_obj$CCP1_InterruptHandler	PTR FTN()void  size(2) Largest target is 1
		 -> NULL(), 

    CCP_Mode_Timer_Select@_ccp_obj$CCP2_InterruptHandler	PTR FTN()void  size(2) Largest target is 0

    CCP_PWM_Mode_Config@_ccp_obj	PTR const struct . size(2) Largest target is 15
		 -> ccp1(BANK1[15]), 

    CCP_PWM_Mode_Config@_ccp_obj$CCP1_InterruptHandler	PTR FTN()void  size(2) Largest target is 1
		 -> NULL(), 

    CCP_PWM_Mode_Config@_ccp_obj$CCP2_InterruptHandler	PTR FTN()void  size(2) Largest target is 0

    CCP_PWM_Set_Duty@_ccp_obj	PTR const struct . size(2) Largest target is 15
		 -> ccp1(BANK1[15]), 

    CCP_PWM_Set_Duty@_ccp_obj$CCP1_InterruptHandler	PTR FTN()void  size(2) Largest target is 1
		 -> NULL(), 

    CCP_PWM_Set_Duty@_ccp_obj$CCP2_InterruptHandler	PTR FTN()void  size(2) Largest target is 0

    CCP_PWM_Start@_ccp_obj	PTR const struct . size(2) Largest target is 15
		 -> ccp1(BANK1[15]), 

    CCP_PWM_Start@_ccp_obj$CCP1_InterruptHandler	PTR FTN()void  size(2) Largest target is 1
		 -> NULL(), 

    CCP_PWM_Start@_ccp_obj$CCP2_InterruptHandler	PTR FTN()void  size(2) Largest target is 0

    CCP_PWM_Stop@_ccp_obj$CCP1_InterruptHandler	PTR FTN()void  size(2) Largest target is 1
		 -> NULL(), 

    CCP_PWM_Stop@_ccp_obj$CCP2_InterruptHandler	PTR FTN()void  size(2) Largest target is 0

    dc_motor_init@dc_motor	PTR struct . size(1) Largest target is 3
		 -> motor1(BANK0[3]), motor2(BANK0[3]), 

    dc_motor_move_right@dc_motor	PTR struct . size(1) Largest target is 3
		 -> motor1(BANK0[3]), motor2(BANK0[3]), 

    dc_motor_stop@dc_motor	PTR struct . size(1) Largest target is 3
		 -> motor1(BANK0[3]), motor2(BANK0[3]), 

    EUSART_ASYNC_RX_Init@_eusart$EUSART_FramingErrorHandler	PTR FTN()void  size(2) Largest target is 0

    EUSART_ASYNC_RX_Init@_eusart$EUSART_OverrunErrorHandler	PTR FTN()void  size(2) Largest target is 0

    EUSART_ASYNC_RX_Init@_eusart$EUSART_RxDefaultInterruptHandler	PTR FTN()void  size(2) Largest target is 0

    EUSART_ASYNC_RX_Init@_eusart$EUSART_TxDefaultInterruptHandler	PTR FTN()void  size(2) Largest target is 0

    EUSART_ASYNC_TX_Init@_eusart$EUSART_FramingErrorHandler	PTR FTN()void  size(2) Largest target is 0

    EUSART_ASYNC_TX_Init@_eusart$EUSART_OverrunErrorHandler	PTR FTN()void  size(2) Largest target is 0

    EUSART_ASYNC_TX_Init@_eusart$EUSART_RxDefaultInterruptHandler	PTR FTN()void  size(2) Largest target is 0

    EUSART_ASYNC_TX_Init@_eusart$EUSART_TxDefaultInterruptHandler	PTR FTN()void  size(2) Largest target is 0

    EUSART_Baud_Rate_Calculation@_eusart$EUSART_FramingErrorHandler	PTR FTN()void  size(2) Largest target is 0

    EUSART_Baud_Rate_Calculation@_eusart$EUSART_OverrunErrorHandler	PTR FTN()void  size(2) Largest target is 0

    EUSART_Baud_Rate_Calculation@_eusart$EUSART_RxDefaultInterruptHandler	PTR FTN()void  size(2) Largest target is 0

    EUSART_Baud_Rate_Calculation@_eusart$EUSART_TxDefaultInterruptHandler	PTR FTN()void  size(2) Largest target is 0

    EUSART_FramingErrorHandler	PTR FTN()void  size(2) Largest target is 1
		 -> NULL(), 

    EUSART_OverrunErrorHandler	PTR FTN()void  size(2) Largest target is 1
		 -> NULL(), 

    EUSART_RxInterruptHandler	PTR FTN()void  size(2) Largest target is 1
		 -> NULL(), 

    EUSART_TxInterruptHandler	PTR FTN()void  size(2) Largest target is 1
		 -> NULL(), 

    f$.$buffer	PTR unsigned char  size(2) Largest target is 0

    f$.$source	PTR const unsigned char  size(2) Largest target is 0

    gpio_pin_direction_init@pin	PTR struct . size(2) Largest target is 15
		 -> ccp1(BANK1[15]), ccp1$ccp_pin(BANK1[1]), led_blue(BANK0[2]), led_red(BANK0[2]), 
		 -> motor1(BANK0[3]), motor2(BANK0[3]), seg_1(BANK0[5]), seg_1$seven_segment_pins(BANK0[4]), 
		 -> seg_2(BANK1[5]), seg_2$seven_segment_pins(BANK1[4]), SPI_Master_Mode_GPIO_PIN_Configurations@SCK_pin(COMRAM[1]), SPI_Master_Mode_GPIO_PIN_Configurations@SDI_pin(COMRAM[1]), 
		 -> SPI_Master_Mode_GPIO_PIN_Configurations@SDO_pin(COMRAM[1]), SPI_Slave_Mode_GPIO_PIN_Configurations@SCK_pin(COMRAM[1]), SPI_Slave_Mode_GPIO_PIN_Configurations@SDI_pin(COMRAM[1]), SPI_Slave_Mode_GPIO_PIN_Configurations@SDO_pin(COMRAM[1]), 
		 -> SPI_Slave_Mode_GPIO_PIN_Configurations@SS_pin(COMRAM[1]), 

    gpio_pin_logic_write@pin	PTR struct . size(2) Largest target is 15
		 -> ccp1(BANK1[15]), ccp1$ccp_pin(BANK1[1]), led_blue(BANK0[2]), led_red(BANK0[2]), 
		 -> motor1(BANK0[3]), motor2(BANK0[3]), seg_1(BANK0[5]), seg_1$seven_segment_pins(BANK0[4]), 
		 -> seg_2(BANK1[5]), seg_2$seven_segment_pins(BANK1[4]), 

    gpio_pin_output_low_init@pin	PTR struct . size(2) Largest target is 15
		 -> ccp1(BANK1[15]), ccp1$ccp_pin(BANK1[1]), led_blue(BANK0[2]), led_red(BANK0[2]), 
		 -> motor1(BANK0[3]), motor2(BANK0[3]), seg_1(BANK0[5]), seg_1$seven_segment_pins(BANK0[4]), 
		 -> seg_2(BANK1[5]), seg_2$seven_segment_pins(BANK1[4]), 

    I2C_SlaveAddrInterruptHandler	PTR FTN()void  size(2) Largest target is 1
		 -> I2C_SlaveDefAddrInterruptHandler(), NULL(), 

    I2C_SlaveBusColInterruptHandler	PTR FTN()void  size(2) Largest target is 1
		 -> I2C_SlaveDefBusColInterruptHandler(), NULL(), 

    I2C_SlaveRdInterruptHandler	PTR FTN()void  size(2) Largest target is 1
		 -> I2C_SlaveDefRdInterruptHandler(), MY_I2C_slave_ISR(), NULL(), 

    I2C_SlaveSetAddrIntHandler@handler	PTR FTN()void  size(2) Largest target is 1
		 -> I2C_SlaveDefAddrInterruptHandler(), 

    I2C_SlaveSetBusColIntHandler@handler	PTR FTN()void  size(2) Largest target is 1
		 -> I2C_SlaveDefBusColInterruptHandler(), 

    I2C_SlaveSetIsrHandler@handler	PTR FTN()void  size(2) Largest target is 1
		 -> I2C_Isr(), 

    I2C_SlaveSetReadIntHandler@handler	PTR FTN()void  size(2) Largest target is 1
		 -> I2C_SlaveDefRdInterruptHandler(), MY_I2C_slave_ISR(), 

    I2C_SlaveSetWrColIntHandler@handler	PTR FTN()void  size(2) Largest target is 1
		 -> I2C_SlaveDefWrColInterruptHandler(), 

    I2C_SlaveSetWriteIntHandler@handler	PTR FTN()void  size(2) Largest target is 1
		 -> I2C_SlaveDefWrInterruptHandler(), 

    I2C_SlaveWrColInterruptHandler	PTR FTN()void  size(2) Largest target is 1
		 -> I2C_SlaveDefWrColInterruptHandler(), NULL(), 

    I2C_SlaveWrInterruptHandler	PTR FTN()void  size(2) Largest target is 1
		 -> I2C_SlaveDefWrInterruptHandler(), NULL(), 

    INT0_InterruptHandler	PTR FTN()void  size(2) Largest target is 1
		 -> NULL(), 

    INT1_InterruptHandler	PTR FTN()void  size(2) Largest target is 1
		 -> NULL(), 

    INT2_InterruptHandler	PTR FTN()void  size(2) Largest target is 1
		 -> NULL(), 

    interrupt_INTx_clear_flag@_interrupt$EXT_InterruptHandler	PTR FTN()void  size(2) Largest target is 0

    interrupt_INTx_disable@_interrupt$EXT_InterruptHandler	PTR FTN()void  size(2) Largest target is 0

    interrupt_INTx_edge_init@_interrupt$EXT_InterruptHandler	PTR FTN()void  size(2) Largest target is 0

    interrupt_INTx_enable@_interrupt$EXT_InterruptHandler	PTR FTN()void  size(2) Largest target is 0

    interrupt_INTx_pin_init@_interrupt$EXT_InterruptHandler	PTR FTN()void  size(2) Largest target is 0

    interrupt_RBx_init@_interrupt$EXT_InterruptHandler_HIGH	PTR FTN()void  size(2) Largest target is 0

    interrupt_RBx_init@_interrupt$EXT_InterruptHandler_LOW	PTR FTN()void  size(2) Largest target is 0

    interrupt_RBx_pin_init@_interrupt$EXT_InterruptHandler_HIGH	PTR FTN()void  size(2) Largest target is 0

    interrupt_RBx_pin_init@_interrupt$EXT_InterruptHandler_LOW	PTR FTN()void  size(2) Largest target is 0

    INTx_select_InterruptHandler@_interrupt$EXT_InterruptHandler	PTR FTN()void  size(2) Largest target is 0

    latx	PTR volatile unsigned char [5] size(2) Largest target is 1
		 -> LATA(BITBIGSFRlllll[1]), LATB(BITBIGSFRllllh[1]), LATC(BITBIGSFRllllh[1]), LATD(BITBIGSFRllllh[1]), 
		 -> LATE(BITBIGSFRllllh[1]), 

    led_init@led	PTR struct . size(1) Largest target is 2
		 -> led_blue(BANK0[2]), led_red(BANK0[2]), 

    led_off@led	PTR struct . size(1) Largest target is 2
		 -> led_blue(BANK0[2]), led_red(BANK0[2]), 

    led_on@led	PTR struct . size(1) Largest target is 2
		 -> led_blue(BANK0[2]), led_red(BANK0[2]), 

    MSSP_InterruptHandler	PTR FTN()void  size(2) Largest target is 1
		 -> I2C_Isr(), NULL(), 

    portx	PTR volatile unsigned char [5] size(2) Largest target is 1
		 -> PORTA(BITBIGSFRlllll[1]), PORTB(BITBIGSFRlllll[1]), PORTC(BITBIGSFRlllll[1]), PORTD(BITBIGSFRlllll[1]), 
		 -> PORTE(BITBIGSFRlllll[1]), 

    RB4_InterruptHandler_high	PTR FTN()void  size(2) Largest target is 1
		 -> NULL(), 

    RB4_InterruptHandler_low	PTR FTN()void  size(2) Largest target is 1
		 -> NULL(), 

    RB5_InterruptHandler_high	PTR FTN()void  size(2) Largest target is 1
		 -> NULL(), 

    RB5_InterruptHandler_low	PTR FTN()void  size(2) Largest target is 1
		 -> NULL(), 

    RB6_InterruptHandler_high	PTR FTN()void  size(2) Largest target is 1
		 -> NULL(), 

    RB6_InterruptHandler_low	PTR FTN()void  size(2) Largest target is 1
		 -> NULL(), 

    RB7_InterruptHandler_high	PTR FTN()void  size(2) Largest target is 1
		 -> NULL(), 

    RB7_InterruptHandler_low	PTR FTN()void  size(2) Largest target is 1
		 -> NULL(), 

    RBx_select_InterruptHandler@_interrupt$EXT_InterruptHandler_HIGH	PTR FTN()void  size(2) Largest target is 0

    RBx_select_InterruptHandler@_interrupt$EXT_InterruptHandler_LOW	PTR FTN()void  size(2) Largest target is 0

    S1012$CCP1_InterruptHandler	PTR FTN()void  size(2) Largest target is 1
		 -> NULL(), 

    S1012$CCP2_InterruptHandler	PTR FTN()void  size(2) Largest target is 0

    S1757$EXT_InterruptHandler	PTR FTN()void  size(2) Largest target is 0

    S1928$EXT_InterruptHandler_HIGH	PTR FTN()void  size(2) Largest target is 0

    S1928$EXT_InterruptHandler_LOW	PTR FTN()void  size(2) Largest target is 0

    S2149$SPI_InterruptHandler	PTR FTN()void  size(2) Largest target is 0

    S2552$TMR0_InterruptHandler	PTR FTN()void  size(2) Largest target is 0

    S2722$TMR1_InterruptHandler	PTR FTN()void  size(2) Largest target is 0

    S2969$TMR2_InterruptHandler	PTR FTN()void  size(2) Largest target is 1
		 -> NULL(), 

    S3105$TMR3_InterruptHandler	PTR FTN()void  size(2) Largest target is 0

    S3316$EUSART_FramingErrorHandler	PTR FTN()void  size(2) Largest target is 0

    S3316$EUSART_OverrunErrorHandler	PTR FTN()void  size(2) Largest target is 0

    S3316$EUSART_RxDefaultInterruptHandler	PTR FTN()void  size(2) Largest target is 0

    S3316$EUSART_TxDefaultInterruptHandler	PTR FTN()void  size(2) Largest target is 0

    S5327$buffer	PTR unsigned char  size(2) Largest target is 0

    S5327$source	PTR const unsigned char  size(2) Largest target is 0

    S616$ADC_InterruptHandler	PTR FTN()void  size(2) Largest target is 0

    seven_segment_init@seg	PTR struct . size(2) Largest target is 5
		 -> seg_1(BANK0[5]), seg_2(BANK1[5]), 

    seven_segment_write@seg	PTR struct . size(2) Largest target is 5
		 -> seg_1(BANK0[5]), seg_2(BANK1[5]), 

    sp__memset	PTR void  size(1) Largest target is 1
		 -> lcd_send_number@number(COMRAM[1]), lcd_send_number_pos@number(COMRAM[1]), 

    SPI_Init@_spi$SPI_InterruptHandler	PTR FTN()void  size(2) Largest target is 0

    SPI_Interrupt_Init@_spi$SPI_InterruptHandler	PTR FTN()void  size(2) Largest target is 0

    SPI_InterruptHandler	PTR FTN()void  size(2) Largest target is 1
		 -> NULL(), 

    SPI_Slave_Mode_GPIO_PIN_Configurations@_spi$SPI_InterruptHandler	PTR FTN()void  size(2) Largest target is 0

    Timer0_Init@_timer$TMR0_InterruptHandler	PTR FTN()void  size(2) Largest target is 0

    Timer0_Mode_Select@_timer$TMR0_InterruptHandler	PTR FTN()void  size(2) Largest target is 0

    Timer0_Prescaler_Config@_timer$TMR0_InterruptHandler	PTR FTN()void  size(2) Largest target is 0

    Timer0_Register_Size_Config@_timer$TMR0_InterruptHandler	PTR FTN()void  size(2) Largest target is 0

    Timer1_Init@_timer$TMR1_InterruptHandler	PTR FTN()void  size(2) Largest target is 0

    Timer1_Mode_Select@_timer$TMR1_InterruptHandler	PTR FTN()void  size(2) Largest target is 0

    TIMER1_OSC_HW_select@_timer$TMR1_InterruptHandler	PTR FTN()void  size(2) Largest target is 0

    timer1_reg_wr_mode_Select@_timer$TMR1_InterruptHandler	PTR FTN()void  size(2) Largest target is 0

    timer2$TMR2_InterruptHandler	PTR FTN()void  size(2) Largest target is 1
		 -> NULL(), 

    Timer2_Init@_timer	PTR const struct . size(2) Largest target is 7
		 -> timer2(BANK1[7]), 

    Timer2_Init@_timer$TMR2_InterruptHandler	PTR FTN()void  size(2) Largest target is 1
		 -> NULL(), 

    Timer3_Init@_timer$TMR3_InterruptHandler	PTR FTN()void  size(2) Largest target is 0

    Timer3_Mode_Select@_timer$TMR3_InterruptHandler	PTR FTN()void  size(2) Largest target is 0

    timer3_reg_wr_mode_Select@_timer$TMR3_InterruptHandler	PTR FTN()void  size(2) Largest target is 0

    TMR0_InterruptHandler	PTR FTN()void  size(2) Largest target is 1
		 -> NULL(), 

    TMR1_InterruptHandler	PTR FTN()void  size(2) Largest target is 1
		 -> NULL(), 

    TMR2_InterruptHandler	PTR FTN()void  size(2) Largest target is 1
		 -> NULL(), 

    TMR3_InterruptHandler	PTR FTN()void  size(2) Largest target is 1
		 -> NULL(), 

    trisx	PTR volatile unsigned char [5] size(2) Largest target is 1
		 -> TRISA(BITBIGSFRlllll[1]), TRISB(ABS[1]), TRISC(ABS[1]), TRISD(ABS[1]), 
		 -> TRISE(ABS[1]), 

    vfprintf$0	PTR struct _IO_FILE size(1) Largest target is 12
		 -> sprintf@f(COMRAM[12]), 

    vfprintf$1	PTR const unsigned char  size(1) Largest target is 3
		 -> STR_1(CODE[3]), STR_2(CODE[3]), STR_3(CODE[3]), 

    vfprintf$2	PTR PTR void  size(1) Largest target is 1
		 -> sprintf@ap(COMRAM[1]), 


Critical Paths under _main in COMRAM

    _led_on->_gpio_pin_logic_write
    _led_off->_gpio_pin_logic_write
    _dc_motor_stop->_gpio_pin_logic_write
    _dc_motor_move_right->_gpio_pin_logic_write
    _seven_segment_init->_gpio_pin_output_low_init
    _led_init->_gpio_pin_output_low_init
    _dc_motor_init->_gpio_pin_output_low_init
    _gpio_pin_output_low_init->_gpio_pin_direction_init
    _gpio_pin_output_low_init->_gpio_pin_logic_write
    _CCP_PWM_Mode_Config->___fladd
    _CCP_Compare_Mode_Config->_CCP_Mode_Timer_Select
    _CCP_Capture_Mode_Config->_CCP_Mode_Timer_Select
    _I2C_Open->_I2C_SlaveSetAddrIntHandler
    _I2C_Open->_I2C_SlaveSetBusColIntHandler
    _I2C_Open->_I2C_SlaveSetIsrHandler
    _I2C_Open->_I2C_SlaveSetReadIntHandler
    _I2C_Open->_I2C_SlaveSetWrColIntHandler
    _I2C_Open->_I2C_SlaveSetWriteIntHandler
    _CCP_PWM_Set_Duty->___fladd
    ___fltol->___fladd
    ___flmul->___xxtofl
    ___fldiv->___flmul
    ___fladd->___fldiv

Critical Paths under _INTERRUPT_InterruptManager in COMRAM

    _INTERRUPT_InterruptManager->_I2C_Isr
    _I2C_SlaveDefWrInterruptHandler->_I2C_SlaveSendTxData
    _I2C_SlaveRdCallBack->_MY_I2C_slave_ISR
    _MY_I2C_slave_ISR->_print_num_7seg
    _print_num_7seg->_seven_segment_write
    _seven_segment_write->___awdiv
    _seven_segment_write->i2_gpio_pin_logic_write

Critical Paths under _main in BANK0

    _CCP_PWM_Mode_Config->___fladd
    _CCP_PWM_Set_Duty->___fladd
    ___fltol->___fladd
    ___fladd->___fldiv

Critical Paths under _INTERRUPT_InterruptManager in BANK0

    None.

Critical Paths under _main in BANK1

    _Initialize->_CCP_Init
    _CCP_Init->_CCP_PWM_Mode_Config
    _CCP_PWM_Mode_Config->___fltol
    _CCP_PWM_Set_Duty->___fltol

Critical Paths under _INTERRUPT_InterruptManager in BANK1

    None.

Critical Paths under _main in BANK2

    None.

Critical Paths under _INTERRUPT_InterruptManager in BANK2

    None.

Critical Paths under _main in BANK3

    None.

Critical Paths under _INTERRUPT_InterruptManager in BANK3

    None.

Critical Paths under _main in BANK4

    None.

Critical Paths under _INTERRUPT_InterruptManager in BANK4

    None.

Critical Paths under _main in BANK5

    None.

Critical Paths under _INTERRUPT_InterruptManager in BANK5

    None.

Critical Paths under _main in BANK6

    None.

Critical Paths under _INTERRUPT_InterruptManager in BANK6

    None.

Critical Paths under _main in BANK7

    None.

Critical Paths under _INTERRUPT_InterruptManager in BANK7

    None.

Critical Paths under _main in BANK8

    None.

Critical Paths under _INTERRUPT_InterruptManager in BANK8

    None.

Critical Paths under _main in BANK9

    None.

Critical Paths under _INTERRUPT_InterruptManager in BANK9

    None.

Critical Paths under _main in BANK10

    None.

Critical Paths under _INTERRUPT_InterruptManager in BANK10

    None.

Critical Paths under _main in BANK11

    None.

Critical Paths under _INTERRUPT_InterruptManager in BANK11

    None.

Critical Paths under _main in BANK12

    None.

Critical Paths under _INTERRUPT_InterruptManager in BANK12

    None.

Critical Paths under _main in BANK13

    None.

Critical Paths under _INTERRUPT_InterruptManager in BANK13

    None.

Critical Paths under _main in BANK14

    None.

Critical Paths under _INTERRUPT_InterruptManager in BANK14

    None.

Critical Paths under _main in BANK15

    None.

Critical Paths under _INTERRUPT_InterruptManager in BANK15

    None.

Call Graph Tables:

 ---------------------------------------------------------------------------------
 (Depth) Function   	        Calls       Base Space   Used Autos Params    Refs
 ---------------------------------------------------------------------------------
 (0) _main                                                 1     1      0   84743
                                             25 BANK1      1     1      0
                   _CCP_PWM_Set_Duty
                      _CCP_PWM_Start
                           _I2C_Open
         _I2C_SlaveSetReadIntHandler
                         _Initialize
                            ___flmul
                            ___fltol
                           ___xxtofl
                _dc_motor_move_right
                      _dc_motor_stop
                            _led_off
                             _led_on
 ---------------------------------------------------------------------------------
 (1) _led_on                                               3     2      1    4209
                                             33 COMRAM     2     1      1
               _gpio_pin_logic_write
 ---------------------------------------------------------------------------------
 (1) _led_off                                              3     2      1    4209
                                             33 COMRAM     2     1      1
               _gpio_pin_logic_write
 ---------------------------------------------------------------------------------
 (1) _dc_motor_stop                                        4     3      1    4392
                                             33 COMRAM     3     2      1
               _gpio_pin_logic_write
 ---------------------------------------------------------------------------------
 (1) _dc_motor_move_right                                  4     3      1    4212
                                             33 COMRAM     3     2      1
               _gpio_pin_logic_write
 ---------------------------------------------------------------------------------
 (1) _Initialize                                           0     0      0   46149
                           _CCP_Init
                     _I2C_Initialize
               _INTERRUPT_Initialize
             _PIN_MANAGER_Initialize
                        _Timer2_Init
                      _dc_motor_init
                           _led_init
                 _seven_segment_init
 ---------------------------------------------------------------------------------
 (2) _seven_segment_init                                   4     2      2    7373
                                             38 COMRAM     3     1      2
           _gpio_pin_output_low_init
 ---------------------------------------------------------------------------------
 (2) _led_init                                             3     2      1    7435
                                             38 COMRAM     2     1      1
           _gpio_pin_output_low_init
 ---------------------------------------------------------------------------------
 (2) _dc_motor_init                                        4     3      1    7438
                                             38 COMRAM     3     2      1
           _gpio_pin_output_low_init
 ---------------------------------------------------------------------------------
 (2) _Timer2_Init                                          4     2      2     292
                                             24 COMRAM     3     1      2
 ---------------------------------------------------------------------------------
 (2) _PIN_MANAGER_Initialize                               0     0      0       0
 ---------------------------------------------------------------------------------
 (2) _INTERRUPT_Initialize                                 0     0      0       0
 ---------------------------------------------------------------------------------
 (2) _I2C_Initialize                                       0     0      0       0
 ---------------------------------------------------------------------------------
 (2) _CCP_Init                                             4     2      2   23611
                                             22 BANK1      3     1      2
            _CCP_Capture_Mode_Config
            _CCP_Compare_Mode_Config
               _CCP_Interrupt_Config
                _CCP_PWM_Mode_Config
           _gpio_pin_output_low_init
 ---------------------------------------------------------------------------------
 (3) _gpio_pin_output_low_init                             5     3      2    7109
                                             33 COMRAM     5     3      2
            _gpio_pin_direction_init
               _gpio_pin_logic_write
 ---------------------------------------------------------------------------------
 (2) _gpio_pin_logic_write                                 9     6      3    3883
                                             24 COMRAM     9     6      3
 ---------------------------------------------------------------------------------
 (4) _gpio_pin_direction_init                              9     6      3    2153
                                             24 COMRAM     9     6      3
 ---------------------------------------------------------------------------------
 (3) _CCP_PWM_Mode_Config                                 12    10      2   14716
                                             10 BANK1     12    10      2
                            ___fladd
                            ___fldiv
                            ___flmul
                            ___fltol
                           ___xxtofl
 ---------------------------------------------------------------------------------
 (3) _CCP_Interrupt_Config                                 2     0      2     152
                                             24 COMRAM     2     0      2
 ---------------------------------------------------------------------------------
 (3) _CCP_Compare_Mode_Config                              5     3      2     558
                                             27 COMRAM     5     3      2
              _CCP_Mode_Timer_Select
 ---------------------------------------------------------------------------------
 (3) _CCP_Capture_Mode_Config                              5     3      2     558
                                             27 COMRAM     5     3      2
              _CCP_Mode_Timer_Select
 ---------------------------------------------------------------------------------
 (4) _CCP_Mode_Timer_Select                                3     1      2     273
                                             24 COMRAM     3     1      2
 ---------------------------------------------------------------------------------
 (1) _I2C_Open                                             0     0      0     847
                 _I2C_SlaveEnableIrq
                      _I2C_SlaveOpen
         _I2C_SlaveSetAddrIntHandler
       _I2C_SlaveSetBusColIntHandler
             _I2C_SlaveSetIsrHandler
         _I2C_SlaveSetReadIntHandler
              _I2C_SlaveSetSlaveAddr
              _I2C_SlaveSetSlaveMask
        _I2C_SlaveSetWrColIntHandler
        _I2C_SlaveSetWriteIntHandler
 ---------------------------------------------------------------------------------
 (2) _I2C_SlaveSetWriteIntHandler                          2     0      2     121
                                             24 COMRAM     2     0      2
 ---------------------------------------------------------------------------------
 (2) _I2C_SlaveSetWrColIntHandler                          2     0      2     121
                                             24 COMRAM     2     0      2
 ---------------------------------------------------------------------------------
 (2) _I2C_SlaveSetSlaveMask                                1     1      0       0
 ---------------------------------------------------------------------------------
 (2) _I2C_SlaveSetSlaveAddr                                1     1      0      31
                                             24 COMRAM     1     1      0
 ---------------------------------------------------------------------------------
 (1) _I2C_SlaveSetReadIntHandler                           2     0      2     211
                                             24 COMRAM     2     0      2
 ---------------------------------------------------------------------------------
 (2) _I2C_SlaveSetIsrHandler                               2     0      2     121
                                             24 COMRAM     2     0      2
 ---------------------------------------------------------------------------------
 (2) _I2C_SlaveSetBusColIntHandler                         2     0      2     121
                                             24 COMRAM     2     0      2
 ---------------------------------------------------------------------------------
 (2) _I2C_SlaveSetAddrIntHandler                           2     0      2     121
                                             24 COMRAM     2     0      2
 ---------------------------------------------------------------------------------
 (2) _I2C_SlaveOpen                                        0     0      0       0
 ---------------------------------------------------------------------------------
 (2) _I2C_SlaveEnableIrq                                   0     0      0       0
 ---------------------------------------------------------------------------------
 (1) _CCP_PWM_Start                                        4     2      2     199
                                             24 COMRAM     3     1      2
 ---------------------------------------------------------------------------------
 (1) _CCP_PWM_Set_Duty                                    12     9      3   14825
                                             10 BANK1     11     8      3
                            ___fladd
                            ___fldiv
                            ___flmul
                            ___fltol
                           ___xxtofl
 ---------------------------------------------------------------------------------
 (1) ___xxtofl                                            14    10      4    1466
                                             24 COMRAM    14    10      4
 ---------------------------------------------------------------------------------
 (1) ___fltol                                             10     6      4     757
                                              0 BANK1     10     6      4
                            ___fladd (ARG)
                            ___fldiv (ARG)
                            ___flmul (ARG)
                           ___xxtofl (ARG)
 ---------------------------------------------------------------------------------
 (1) ___flmul                                             25    17      8    3233
                                             38 COMRAM    25    17      8
                           ___xxtofl (ARG)
 ---------------------------------------------------------------------------------
 (4) ___fldiv                                             25    17      8    4283
                                             63 COMRAM    12     4      8
                                              0 BANK0     13    13      0
                            ___flmul (ARG)
                           ___xxtofl (ARG)
 ---------------------------------------------------------------------------------
 (4) ___fladd                                             16     8      8    4602
                                             75 COMRAM     4     4      0
                                             13 BANK0     12     4      8
                            ___fldiv (ARG)
                            ___flmul (ARG)
                           ___xxtofl (ARG)
 ---------------------------------------------------------------------------------
 Estimated maximum stack depth 4
 ---------------------------------------------------------------------------------
 (Depth) Function   	        Calls       Base Space   Used Autos Params    Refs
 ---------------------------------------------------------------------------------
 (5) _INTERRUPT_InterruptManager                           6     6      0    2096
                                             18 COMRAM     6     6      0
                                NULL *
                            _ADC_ISR
                            _I2C_Isr *
                           _INT0_ISR
                           _INT1_ISR
                           _INT2_ISR
                            _RB4_ISR
                            _RB5_ISR
                            _RB6_ISR
                            _RB7_ISR
                           _TMR0_ISR
                           _TMR1_ISR
                           _TMR2_ISR
 ---------------------------------------------------------------------------------
 (6) _TMR2_ISR                                             0     0      0       0
 ---------------------------------------------------------------------------------
 (6) _TMR1_ISR                                             0     0      0       0
 ---------------------------------------------------------------------------------
 (6) _TMR0_ISR                                             0     0      0       0
 ---------------------------------------------------------------------------------
 (6) _RB7_ISR                                              1     1      0      44
                                              0 COMRAM     1     1      0
 ---------------------------------------------------------------------------------
 (6) _RB6_ISR                                              1     1      0      44
                                              0 COMRAM     1     1      0
 ---------------------------------------------------------------------------------
 (6) _RB5_ISR                                              1     1      0      44
                                              0 COMRAM     1     1      0
 ---------------------------------------------------------------------------------
 (6) _RB4_ISR                                              1     1      0      44
                                              0 COMRAM     1     1      0
 ---------------------------------------------------------------------------------
 (6) _INT2_ISR                                             0     0      0       0
 ---------------------------------------------------------------------------------
 (6) _INT1_ISR                                             0     0      0       0
 ---------------------------------------------------------------------------------
 (6) _INT0_ISR                                             0     0      0       0
 ---------------------------------------------------------------------------------
 (6) _I2C_Isr                                              2     2      0    1920
                                             16 COMRAM     2     2      0
              _I2C_SlaveAddrCallBack
                  _I2C_SlaveClearIrq
                    _I2C_SlaveIsAddr
                    _I2C_SlaveIsRead
               _I2C_SlaveIsRxBufFull
              _I2C_SlaveIsTxBufEmpty
                _I2C_SlaveRdCallBack
              _I2C_SlaveReleaseClock
                _I2C_SlaveWrCallBack
 ---------------------------------------------------------------------------------
 (7) _I2C_SlaveWrCallBack                                  0     0      0      22
                                NULL *
     _I2C_SlaveDefWrInterruptHandler *
 ---------------------------------------------------------------------------------
 (8) _I2C_SlaveDefWrInterruptHandler                       0     0      0      22
                _I2C_SlaveSendTxData
 ---------------------------------------------------------------------------------
 (9) _I2C_SlaveSendTxData                                  1     1      0      22
                                              0 COMRAM     1     1      0
 ---------------------------------------------------------------------------------
 (7) _I2C_SlaveReleaseClock                                0     0      0       0
 ---------------------------------------------------------------------------------
 (7) _I2C_SlaveRdCallBack                                  0     0      0    1898
                                NULL *
     _I2C_SlaveDefRdInterruptHandler *
                   _MY_I2C_slave_ISR *
 ---------------------------------------------------------------------------------
 (8) _MY_I2C_slave_ISR                                     1     1      0    1898
                                             15 COMRAM     1     1      0
                     _print_num_7seg
 ---------------------------------------------------------------------------------
 (9) _print_num_7seg                                       1     1      0    1864
                                             14 COMRAM     1     1      0
                            ___awdiv
                            ___awmod
                _seven_segment_write
 ---------------------------------------------------------------------------------
 (10) _seven_segment_write                                 7     4      3     902
                                              8 COMRAM     6     3      3
                            ___awdiv (ARG)
                            ___awmod (ARG)
             i2_gpio_pin_logic_write
 ---------------------------------------------------------------------------------
 (11) i2_gpio_pin_logic_write                              9     6      3     399
                                              0 COMRAM     8     5      3
 ---------------------------------------------------------------------------------
 (10) ___awmod                                             6     2      4     448
                                              0 COMRAM     6     2      4
 ---------------------------------------------------------------------------------
 (10) ___awdiv                                             8     4      4     452
                                              0 COMRAM     8     4      4
 ---------------------------------------------------------------------------------
 (8) _I2C_SlaveDefRdInterruptHandler                       0     0      0       0
                 _I2C_SlaveGetRxData
 ---------------------------------------------------------------------------------
 (7) _I2C_SlaveIsTxBufEmpty                                0     0      0       0
 ---------------------------------------------------------------------------------
 (7) _I2C_SlaveIsRxBufFull                                 0     0      0       0
 ---------------------------------------------------------------------------------
 (7) _I2C_SlaveIsRead                                      0     0      0       0
 ---------------------------------------------------------------------------------
 (7) _I2C_SlaveIsAddr                                      0     0      0       0
 ---------------------------------------------------------------------------------
 (7) _I2C_SlaveClearIrq                                    0     0      0       0
 ---------------------------------------------------------------------------------
 (7) _I2C_SlaveAddrCallBack                                0     0      0       0
                                NULL *
   _I2C_SlaveDefAddrInterruptHandler *
 ---------------------------------------------------------------------------------
 (8) _I2C_SlaveDefAddrInterruptHandler                     0     0      0       0
                 _I2C_SlaveGetRxData
 ---------------------------------------------------------------------------------
 (9) _I2C_SlaveGetRxData                                   0     0      0       0
 ---------------------------------------------------------------------------------
 (8) NULL(Fake)                                            0     0      0       0
 ---------------------------------------------------------------------------------
 (6) _ADC_ISR                                              0     0      0       0
 ---------------------------------------------------------------------------------
 Estimated maximum stack depth 11
 ---------------------------------------------------------------------------------

 Call Graph Graphs:

 _main (ROOT)
   _CCP_PWM_Set_Duty
     ___fladd
       ___fldiv (ARG)
         ___flmul (ARG)
           ___xxtofl (ARG)
         ___xxtofl (ARG)
       ___flmul (ARG)
       ___xxtofl (ARG)
     ___fldiv
     ___flmul
     ___fltol
       ___fladd (ARG)
       ___fldiv (ARG)
       ___flmul (ARG)
       ___xxtofl (ARG)
     ___xxtofl
   _CCP_PWM_Start
   _I2C_Open
     _I2C_SlaveEnableIrq
     _I2C_SlaveOpen
     _I2C_SlaveSetAddrIntHandler
     _I2C_SlaveSetBusColIntHandler
     _I2C_SlaveSetIsrHandler
     _I2C_SlaveSetReadIntHandler
     _I2C_SlaveSetSlaveAddr
     _I2C_SlaveSetSlaveMask
     _I2C_SlaveSetWrColIntHandler
     _I2C_SlaveSetWriteIntHandler
   _I2C_SlaveSetReadIntHandler
   _Initialize
     _CCP_Init
       _CCP_Capture_Mode_Config
         _CCP_Mode_Timer_Select
       _CCP_Compare_Mode_Config
         _CCP_Mode_Timer_Select
       _CCP_Interrupt_Config
       _CCP_PWM_Mode_Config
         ___fladd
         ___fldiv
         ___flmul
         ___fltol
         ___xxtofl
       _gpio_pin_output_low_init
         _gpio_pin_direction_init
         _gpio_pin_logic_write
     _I2C_Initialize
     _INTERRUPT_Initialize
     _PIN_MANAGER_Initialize
     _Timer2_Init
     _dc_motor_init
       _gpio_pin_output_low_init
     _led_init
       _gpio_pin_output_low_init
     _seven_segment_init
       _gpio_pin_output_low_init
   ___flmul
   ___fltol
   ___xxtofl
   _dc_motor_move_right
     _gpio_pin_logic_write
   _dc_motor_stop
     _gpio_pin_logic_write
   _led_off
     _gpio_pin_logic_write
   _led_on
     _gpio_pin_logic_write

 _INTERRUPT_InterruptManager (ROOT)
   NULL(Fake) *
   _ADC_ISR *
   _I2C_Isr *
     _I2C_SlaveAddrCallBack
       NULL(Fake) *
       _I2C_SlaveDefAddrInterruptHandler *
         _I2C_SlaveGetRxData
     _I2C_SlaveClearIrq
     _I2C_SlaveIsAddr
     _I2C_SlaveIsRead
     _I2C_SlaveIsRxBufFull
     _I2C_SlaveIsTxBufEmpty
     _I2C_SlaveRdCallBack
       NULL(Fake) *
       _I2C_SlaveDefRdInterruptHandler *
         _I2C_SlaveGetRxData
       _MY_I2C_slave_ISR *
         _print_num_7seg
           ___awdiv
           ___awmod
           _seven_segment_write
             ___awdiv (ARG)
             ___awmod (ARG)
             i2_gpio_pin_logic_write (ARG)
     _I2C_SlaveReleaseClock
     _I2C_SlaveWrCallBack
       NULL(Fake) *
       _I2C_SlaveDefWrInterruptHandler *
         _I2C_SlaveSendTxData
   _INT0_ISR *
   _INT1_ISR *
   _INT2_ISR *
   _RB4_ISR *
   _RB5_ISR *
   _RB6_ISR *
   _RB7_ISR *
   _TMR0_ISR *
   _TMR1_ISR *
   _TMR2_ISR *

 Address spaces:
Name               Size   Autos  Total    Cost      Usage
BIGRAM             F7F      0       0      49        0.0%
EEDATA             400      0       0       0        0.0%
BITBANK14          100      0       0      33        0.0%
BANK14             100      0       0      34        0.0%
BITBANK13          100      0       0      31        0.0%
BANK13             100      0       0      32        0.0%
BITBANK12          100      0       0      29        0.0%
BANK12             100      0       0      30        0.0%
BITBANK11          100      0       0      27        0.0%
BANK11             100      0       0      28        0.0%
BITBANK10          100      0       0      25        0.0%
BANK10             100      0       0      26        0.0%
BITBANK9           100      0       0      23        0.0%
BANK9              100      0       0      24        0.0%
BITBANK8           100      0       0      21        0.0%
BANK8              100      0       0      22        0.0%
BITBANK7           100      0       0      19        0.0%
BANK7              100      0       0      20        0.0%
BITBANK6           100      0       0      17        0.0%
BANK6              100      0       0      18        0.0%
BITBANK5           100      0       0      15        0.0%
BANK5              100      0       0      16        0.0%
BITBANK4           100      0       0      13        0.0%
BANK4              100      0       0      14        0.0%
BITBANK3           100      0       0      10        0.0%
BANK3              100      0       0      11        0.0%
BITBANK2           100      0       0       8        0.0%
BANK2              100      0       0       9        0.0%
BITBANK1           100      0       0       6        0.0%
BANK1              100     1A      55       7       33.2%
BITBANK15           80      0       0      35        0.0%
BANK15              80      0       0      36        0.0%
BITBANK0            80      0       0       4        0.0%
BANK0               80     19      80       5      100.0%
BITCOMRAM           7E      0       0       0        0.0%
COMRAM              7E     4F      66       1       81.0%
BITBIGSFRhlhlhh     18      0       0      38        0.0%
BITBIGSFRhh          D      0       0      37        0.0%
BITBIGSFRlllhh       6      0       0      46        0.0%
BITBIGSFRllhllh      4      0       0      43        0.0%
BITBIGSFRhlhllh      4      0       0      39        0.0%
BITBIGSFRllllh       4      0       0      47        0.0%
BITBIGSFRllhllh      4      0       0      44        0.0%
BITBIGSFRlllll       4      0       0      48        0.0%
BITBIGSFRllhllh      1      0       0      42        0.0%
BITBIGSFRllhlh       1      0       0      41        0.0%
BITBIGSFRllhh        1      0       0      40        0.0%
BITBIGSFRllhlll      1      0       0      45        0.0%
BIGSFR               0      0       0     200        0.0%
BITSFR               0      0       0     200        0.0%
SFR                  0      0       0     200        0.0%
STACK                0      0       0       2        0.0%
NULL                 0      0       0       0        0.0%
ABS                  0      0     13B      12        0.0%
DATA                 0      0     13B       3        0.0%
CODE                 0      0       0       0        0.0%


Microchip Technology PIC18 Macro Assembler V2.45 build 20230818022343 
Symbol Table                                                                                   Tue Mar 05 21:32:26 2024

                             ?_print_num_7seg 0001                                  ___fldiv@aexp 00F3  
                                ___fldiv@bexp 00F2                                             _n 005B  
                                ___fldiv@sign 00EB                   gpio_pin_output_low_init@pin 0022  
                 gpio_pin_output_low_init@ret 0026                                   _SSPSTATbits 0FC7  
                                          l13 375A                                            l61 355E  
                                          l71 35AC                                            l56 36D2  
                                ___awdiv@sign 0006                                           l252 368C  
                                         l262 3644                                           l257 35F8  
                                         l526 2208                                           l462 2C8E  
                                         l535 338A                                           l529 3794  
                                         l538 338A                                           l469 2CE8  
                                         l582 26B6                                           l487 254E  
                                         l559 2A7A                                           l655 293A  
                                         l496 350E                                           l674 27F8  
                                         l695 33F6          __end_of_I2C_SlaveSetBusColIntHandler 39FC  
                _I2C_SlaveSetBusColIntHandler 39F2                                           _PR2 0FCB  
                       ??_I2C_SlaveRdCallBack 0011                        ??_gpio_pin_logic_write 001C  
                         _I2C_SlaveSendTxData 3A32                               __end_of_ADC_ISR 3A5E  
               I2C_SlaveSetSlaveMask@maskAddr 0001                               __end_of_I2C_Isr 3014  
                                ___awmod@sign 0006                    seven_segment_init@gpio_ret 0029  
                                         tosl 0FFD                                           wreg 0FE8  
                         _I2C_SlaveWrCallBack 37C4                                  ___flmul@aexp 0034  
                                ___flmul@bexp 0039                     _RB5_InterruptHandler_high 00AE  
                                ___flmul@sign 0033                                  ___flmul@temp 003E  
                                ___flmul@prod 003A                               __end_of_RB4_ISR 3942  
                             __end_of_RB5_ISR 3928                               __end_of_RB6_ISR 390E  
                             __end_of_RB7_ISR 38F4                                  ___fltol@exp1 0137  
                                        l1216 322C                                          l1218 32A2  
                                        l2226 2F16                                          l1620 34B2  
                                        l2511 202A                                          l2513 1E8A  
                                        l1617 39A0                                          l1801 3896  
                                        l2522 1ED0                                          l1706 39FA  
                                        l1723 3A20                                          l2524 1F48  
                                        l2516 1E4E                                          l2525 1F36  
                                        l1717 38D8                                          l2550 1782  
                                        l1726 3A5E                                          l2543 158C  
                                        l1663 39F0                                          l2560 18B2  
                                        l2552 17FA                                          l1488 3A3C  
                                        l2457 11F6                                          l2553 17E8  
                                        l1729 3A40                                          l2474 1310  
                                        l2466 14C6                                          l2458 11E4  
                                        l1666 39E6                                          l2483 13E0  
                                        l2459 11AA                                          l2547 18F0  
                                        l1851 3454                                          l2484 13CE  
                                        l1676 39D2                                          l1917 2E08  
                                        l1686 3A04                                          l2591 22F8  
                                        l2584 2260                                          l1696 39DC  
                                        l2587 23BC                                          l2598 2354  
                                        l9201 1006                                          l9211 1044  
                                        l9203 1014                                          l9131 26CA  
                                        l9301 1204                                          l9221 1074  
                                        l9213 1054                                          l9205 1022  
                                        l9141 27B2                                          l9133 26EC  
                                        l9311 1246                                          l9303 1214  
                                        l9231 109E                                          l9223 1086  
                                        l9215 1056                                          l9207 1024  
                                        l9143 27B6                                          l9135 26FC  
                                        l9127 26B8                                          l9321 1274  
                                        l9313 1254                                          l9233 10AE  
                                        l9241 10D8                                          l9225 1088  
                                        l9209 1034                                          l9217 105E  
                                        l9161 3340                                          l9145 27E0  
                                        l9137 2704                                          l9129 26B8  
                                        l9331 12E0                                          l9323 127E  
                                        l9315 1260                                          l9307 1228  
                                        l9251 1110                                          l9243 10E8  
                                        l9235 10BE                                          l9227 108E  
                                        l9219 106E                                          l9411 1CBE  
                                        l9403 1C90                                          l9163 335C  
                                        l9171 27FA                                          l9147 27F2  
                                        l9139 275E                                          l9333 12F0  
                                        l9317 1264                                          l9309 1238  
                                        l9325 1284                                          l9261 1124  
                                        l9253 1114                                          l9245 10FA  
                                        l9237 10CE                                          l9229 109C  
                                        l9501 1EF2                                          l9421 1CF8  
                                        l9413 1CCE                                          l9405 1C9E  
                                        l9165 3364                                          l9157 331C  
                                        l9181 28A0                                          l9173 280C  
                                        l9149 27F6                                          l9351 1372  
                                        l9343 134A                                          l9327 12AA  
                                        l9335 1300                                          l9319 1272  
                                        l9271 1138                                          l9263 1128  
                                        l9255 1118                                          l9247 1108  
                                        l9239 10D0                                          l9511 1F64  
                                        l9503 1F00                                          l9431 1D24  
                                        l9423 1CFE                                          l9415 1CDE  
                                        l9407 1CAC                                          l9167 3382  
                                        l9159 3338                                          l9183 28F4  
                                        l9191 2938                                          l9175 282E  
                                        l9353 137A                                          l9345 1354  
                                        l9337 1326                                          l9329 12DE  
                                        l9361 139E                                          l9281 114C  
                                        l9273 113C                                          l9265 112C  
                                        l9257 111C                                          l9249 110C  
                                        l9521 1FD0                                          l9513 1F72  
                                        l9505 1F2E                                          l9441 1D5E  
                                        l9433 1D34                                          l9425 1D04  
                                        l9417 1CE0                                          l9409 1CAE  
                                        l9601 1652                                          l9185 28F8  
                                        l9177 283E                                          l9169 27FA  
                                        l9371 13F0                                          l9363 13A2  
                                        l9355 137E                                          l9347 1362  
                                        l9339 1336                                          l9291 11C4  
                                        l9283 1176                                          l9275 1140  
                                        l9267 1130                                          l9259 1120  
                                        l9531 201E                                          l9523 1FEA  
                                        l9515 1F9C                                          l9443 1D74  
                                        l9435 1D44                                          l9427 1D12  
                                        l9419 1CE8                                          l9611 16B4  
                                        l9603 165E                                          l9187 2922  
                                        l9179 2846                                          l9381 1456  
                                        l9373 13FC                                          l9365 13B0  
                                        l9357 138E                                          l9349 1364  
                                        l9293 11C8                                          l9285 1192  
                                        l9277 1144                                          l9269 1134  
                                        l9533 2020                                          l9525 2006  
                                        l9509 1F58                                          l9517 1FA0  
                                        l9461 1DC8                                          l9445 1D84  
                                        l9453 1DA4                                          l9437 1D46  
                                        l9429 1D14                                          l9621 174A  
                                        l9613 16C0                                          l9605 166E  
                                        l9541 14C8                                          l9189 2934  
                                        l9391 149E                                          l9383 1466  
                                        l9375 140A                                          l9367 13C6  
                                        l9359 1390                                          l9295 11D6  
                                        l9287 11A2                                          l9279 1148  
                                        l9527 200A                                          l9519 1FBA  
                                        l9471 1E1A                                          l9463 1DE2  
                                        l9455 1DB4                                          l9447 1D8C  
                                        l9439 1D4E                                          l9631 17A0  
                                        l9623 1768                                          l9615 16DC  
                                        l9607 1688                                          l9551 1504  
                                        l9543 14D4                                          l9711 2F06  
                                        l9703 2ECA                                          l9393 14A0  
                                        l9385 1486                                          l9377 1444  
                                        l9297 11D8                                          l9289 11B8  
                                        l9529 2018                                          l9481 1E76  
                                        l9473 1E2A                                          l9465 1DF2  
                                        l9457 1DB4                                          l9449 1D90  
                                        l9641 180A                                          l9633 17A4  
                                        l9625 1772                                          l9617 1706  
                                        l9609 1698                                          l9561 1536  
                                        l9553 1514                                          l9545 14E2  
                                        l9705 2ED6                                          l9721 2270  
                                        l9801 2974                                          l9395 14A6  
                                        l9387 148A                                          l9379 1446  
                                        l9299 11E2                                          l9491 1EB6  
                                        l9483 1E78                                          l9475 1E3E  
                                        l9467 1E02                                          l9651 186C  
                                        l9643 1816                                          l9635 17B2  
                                        l9627 1780                                          l9619 173C  
                                        l9571 1576                                          l9563 1544  
                                        l9555 151A                                          l9547 14E4  
                                        l9707 2EE6                                          l9731 22AE  
                                        l9723 2286                                          l9715 220C  
                                        l9803 2980                                          l9397 14B4  
                                        l9389 1498                                          l9493 1EC0  
                                        l9485 1E88                                          l9477 1E4C  
                                        l9469 1E12                                          l9661 18D4  
                                        l9653 1880                                          l9645 1824  
                                        l9637 17E0                                          l9629 1792  
                                        l9581 15C0                                          l9573 157C  
                                        l9565 1546                                          l9557 152A  
                                        l9549 14F4                                          l9709 2EF6  
                                        l9741 2336                                          l9733 22E0  
                                        l9717 221C                                          l9813 29F6  
                                        l9805 298C                                          l9901 21E2  
                                        l9399 14B6                                          l9495 1ECE  
                                        l9487 1E9A                                          l9479 1E58  
                                        l9663 18D6                                          l9655 189A  
                                        l9647 184E                                          l9591 1610  
                                        l9583 15CC                                          l9575 159C  
                                        l9567 1556                                          l9559 1530  
                                        l9671 2E10                                          l9751 238C  
                                        l9743 2344                                          l9735 22E2  
                                        l9727 229A                                          l9719 222A  
                                        l9815 2A02                                          l9823 2A26  
                                        l9807 2994                                          l9911 3776  
                                        l9903 2200                                          l9489 1EB0  
                                        l9497 1EE0                                          l9657 18B6  
                                        l9665 18DC                                          l9649 1852  
                                        l9593 161C                                          l9585 15D6  
                                        l9577 15AC                                          l9569 1566  
                                        l9681 2E68                                          l9673 2E28  
                                        l9753 239C                                          l9745 2362  
                                        l9737 22EE                                          l9729 22A2  
                                        l9817 2A0E                                          l9825 2A6C  
                                        l9809 29DA                                          l9841 2554  
                                        l9913 3778                                          l9905 375C  
                                        l9761 338C                                          l9499 1EEE  
                                        l9667 18E0                                          l9659 18C6  
                                        l9595 1628                                          l9587 15EC  
                                        l9683 2E78                                          l9755 23AA  
                                        l9747 2364                                          l9739 232A  
                                        l9827 2A78                                          l9819 2A1A  
                                        l9851 2594                                          l9915 377A  
                                        l9907 3760                                          l9771 33F0  
                                        l9763 3390                                          l9931 371E  
                                        l9597 1636                                          l9589 15F8  
                                        l9693 2EA2                                          l9685 2E7C  
                                        l9677 2E3C                                          l9757 23AC  
                                        l9749 2368                                          l9853 25A0  
                                        l9845 2570                                          l9917 3790  
                                        l9909 3774                                          l9773 33F4  
                                        l9765 33A2                                          l9941 3738  
                                        l9933 3730                                          l9599 1642  
                                        l9695 2EAC                                          l9687 2E8A  
                                        l9679 2E66                                          l9791 293C  
                                        l9871 264E                                          l9863 261E  
                                        l9855 25AC                                          l9847 257C  
                                        l9839 2550                                          l9919 3792  
                                        l9767 33C4                                          l9951 368E  
                                        l9943 3748                                          l9935 3734  
                                        STR_1 1001                                          l9697 2EB6  
                                        l9793 2940                                          l9865 262A  
                                        l9849 2588                                          l9857 25B4  
                                        l9769 33CC                                          l9953 36A2  
                                        l9945 374A                                          l9929 371A  
                                        l9867 2636                                          l9875 265A  
                                        l9859 2602                                          l9891 202C  
                                        l9955 36A6                                          l9947 375A  
                                        l9797 295C                                          l9869 2642  
                                        l9877 26A8                                          l9893 2188  
                                        l9957 36C6                                          l9799 2968  
                                        l9879 26B4                                          l9895 21A0  
                                        l9959 36D2                                          l9897 21BE  
                                        l9899 21CA                                          _LATA 0F89  
                                        _LATB 0F8A                                          _LATC 0F8B  
                                        _LATD 0F8C                                          _LATE 0F8D  
                                        i2l24 331A                                          u9000 1246  
                                        u9001 1242                                          u9010 1254  
                                        u9011 1250                                          u9100 139E  
                                        u9020 1272                                          u9101 139A  
                                        u9021 126E                                          u9110 13B0  
                                        u9030 12AA                                          u9111 13AC  
                                        u9031 12A6                                          u9200 1498  
                                        u9120 13C6                                          u9040 12F0  
                                        u9201 1494                                          u9121 13C2  
                                        u9041 12EC                                          u9210 14B4  
                                        u9130 13DC                                          u9050 1326  
                                        u9211 14B0                                          u9131 13D8  
                                        u9051 1322                                          u9140 13F0  
                                        u9060 1336                                          u9300 1E2A  
                                        u9220 1CAC                                          u9141 13EC  
                                        u9061 1332                                          u9301 1E26  
                                        u9221 1CA8                                          u9150 140A  
                                        u9070 1362                                          u9310 1E4C  
                                        u9230 1CBE                                          u9151 1406  
                                        u9071 135E                                          u9311 1E48  
                                        u9231 1CBA                                          u9160 1444  
                                        u9080 1372                                          u9400 1F58  
                                        u9320 1E76                                          u9240 1CCE  
                                        u9161 1440                                          u9081 136E  
                                        u9401 1F54                                          u9321 1E72  
                                        u9241 1CCA                                          u9170 1456  
                                        u9090 138E                                          u9410 1F72  
                                        u9330 1E9A                                          u9250 1D12  
                                        u9171 1452                                          u9091 138A  
                                        u9411 1F6E                                          u9331 1E96  
                                        u9251 1D0E                                          u9180 1466  
                                        u9420 1FBA                                          u9340 1EB0  
                                        u9260 1D24                                          u9500 1566  
                                        u8700 26FC                                          u9181 1462  
                                        u9421 1FB6                                          u9341 1EAC  
                                        u9261 1D20                                          u9501 1562  
                                        u8701 26F8                                          u9190 1486  
                                        u9430 1FEA                                          u9350 1ECE  
                                        u9270 1D34                                          u9510 159C  
                                        u9191 1482                                          u9431 1FE6  
                                        u9351 1ECA                                          u9271 1D30  
                                        u9511 1598                                          u9440 2018  
                                        u9360 1EEE                                          u9280 1D74  
                                        u9600 1824                                          u9520 15AC  
                                        u9441 2014                                          u9361 1EEA  
                                        u9281 1D70                                          u9601 1820  
                                        u9521 15A8                                          u9370 1F00  
                                        u9290 1DB4                                          u9610 186C  
                                        u9530 1726                                          u9450 14E2  
                                        u8714 2724                                          u9371 1EFC  
                                        u9291 1DB0                                          u9611 1868  
                                        u9451 14DE                                          u8715 2720  
                                        u8900 10FA                                          u9380 1F2E  
                                        u9620 189A                                          u9540 1780  
                                        u9460 14F4                                          u9700 2EF6  
                                        u8740 3338                                          u8804 2866  
                                        u8724 277E                                          u8901 10F6  
                                        u9381 1F2A                                          u9621 1896  
                                        u9541 177C                                          u9461 14F0  
                                        u9701 2EF2                                          u8741 3334  
                                        u8805 2862                                          u8725 277A  
                                        u8910 1108                                          u8830 1022  
                                        u9390 1F44                                          u9630 18D4  
                                        u9550 17A0                                          u9470 1504  
                                        u9710 221C                                          u8750 335C  
                                        u8814 28C0                                          u8911 1104  
                                        u8831 101E                                          u9391 1F40  
                                        u9631 18D0                                          u9551 179C  
                                        u9535 171C                                          u9471 1500  
                                        u9711 2218                                          u8751 3358  
                                        u8815 28BC                                          u8735 27F0  
                                        u8920 1176                                          u8840 1034  
                                        u9560 17B2                                          u9480 1544  
                                        u9640 2E28                                          u9800 23AA  
                                        u9720 222A                                          u8760 3382  
                                        u8736 27F2                                          u8680 26CA  
                                        u8921 1172                                          u8841 1030  
                                        u9561 17AE                                          u9481 1540  
                                        u9641 2E24                                          u9801 23A6  
                                        u9721 2226                                          u8761 337E  
                                        u8825 2932                                          u8681 26C6  
                                        u8930 118E                                          u8850 1044  
                                        u9570 17E0                                          u9490 1556  
                                        u9650 2E5C                                          u9730 2286  
                                        u8826 2934                                          u8770 280C  
                                        u8690 26EC                                          u9810 33A2  
                                        u8931 1188                                          u8851 1040  
                                        u9571 17DC                                          u9491 1552  
                                        u9731 2282                                          u8771 2808  
                                        u8691 26E8                                          u9811 339E  
                                        u8940 1190                                          u8860 1086  
                                        u9580 17F6                                          u9660 2E8A  
                                        u9740 22DC                                          u9900 21E2  
                                        u8780 282E                                          u9820 33C4  
                                        u8861 1082                                          u9581 17F2  
                                        u9661 2E86                                          u9741 22D8  
                                        u9901 21DE                                          u8781 282A  
                                        u9821 33C0                                          u8950 11B8  
                                        u8870 109C                                          u9590 180A  
                                        u9670 2E9E                                          u9750 2326  
                                        u9910 2200                                          u8790 283E  
                                        u8951 11B4                                          u8871 1098  
                                        u9591 1806                                          u9671 2E9A  
                                        u9655 2E52                                          u9751 2322  
                                        u9911 21FC                                          u8791 283A  
                                        u8960 11D6                                          u8880 10AE  
                                        u9680 2EC6                                          u9760 2344  
                                        u9840 2958                                          u8961 11D2  
                                        u8881 10AA                                          u9681 2EC2  
                                        u9761 2340                                          u9841 2954  
                                        u8970 11F6                                          u8890 10BE  
                                        u9690 2EE6                                          u9770 2354  
                                        u9850 29F2                                          u9930 3730  
                                        u8971 11F2                                          u8891 10BA  
                                        u9691 2EE2                                          u9771 2350  
                                        u9851 29EE                                          u9931 372C  
                                        u8980 1204                                          u9780 2362  
                                        u9860 256C                                          u9940 375A  
                                        u8981 1200                                          u9781 235E  
                                        u9861 2568                                          u9941 3756  
                                        u8990 1214                                          u9790 239C  
                                        u9870 261A                                          u9950 36A2  
                                        u8991 1210                                          u9791 2398  
                                        u9871 2616                                          u9951 369E  
                                        u9880 21A0                                          u9881 219C  
                                        u9890 21BE                                          _TMR2 0FCC  
                                        u9891 21BA                         ??_CCP_PWM_Mode_Config 013A  
                     __end_of_I2C_SlaveIsAddr 3992                                          _ccp1 011A  
                     __end_of_I2C_SlaveIsRead 397E                     ??_CCP_Capture_Mode_Config 001E  
                                        _main 2CEA                                          _latx 00C4  
           I2C_SlaveSetAddrIntHandler@handler 0019                                          fsr1h 0FE2  
                                        fsr2h 0FDA                                          indf1 0FE7  
                                        indf2 0FDF                                          fsr1l 0FE1  
                                        fsr2l 0FD9                              __end_of_I2C_Open 34B4  
                    ?_gpio_pin_direction_init 0019                                          btemp 0067  
                    _RB4_InterruptHandler_low 00B0                      _RB7_InterruptHandler_low 00A4  
                        ?_I2C_SlaveSendTxData 0001                                          prodh 0FF4  
                                        prodl 0FF3                                          start 000E  
             __end_of_CCP_Compare_Mode_Config 26B8                                   led_init@led 0027  
                             ___fldiv@new_exp 00EC                          ?_I2C_SlaveWrCallBack 0001  
                       __end_of_CCP_PWM_Start 3510                         _CCP_PWM_Set_Duty$5874 013D  
                            __end_of_CCP_Init 2CEA                                  ___param_bank 0000  
           I2C_SlaveSetReadIntHandler@handler 0019                 __end_of_I2C_SlaveAddrCallBack 384E  
                   ?_gpio_pin_output_low_init 0022                              __end_of_INT0_ISR 3A4E  
                            __end_of_INT1_ISR 3A4A                              __end_of_INT2_ISR 3A46  
         fp__I2C_SlaveDefAddrInterruptHandler 0000      __end_of_I2C_SlaveDefAddrInterruptHandler 3A1A  
          ??_I2C_SlaveDefAddrInterruptHandler 0001             ?_I2C_SlaveDefAddrInterruptHandler 0001  
            _I2C_SlaveDefAddrInterruptHandler 3A10                                         l10011 3668  
                                       l10101 38D6                                         l10021 2BC8  
                                       l10013 368C                                         l10005 3646  
                                       l10111 39CA                                         l10031 2C08  
                                       l10023 2BCC                                         l10007 365A  
                                       l10113 39DE                                         l10105 3A1C  
                                       l10041 2C7E                                         l10033 2C24  
                                       l10025 2BE4                                         l10017 2BB4  
                                       l10009 365E                                         l10115 39FC  
                                       l10107 39E8                                         l10051 2CCC  
                                       l10043 2C8E                                         l10035 2C34  
                                       l10027 2BEC                                         l10019 2BB4  
                                       l10131 3890                                         l10109 39F2  
                                       l10117 39D4                                         l10053 2CE4  
                                       l10045 2CA0                                         l10037 2C50  
                                       l10029 2C04                                         l10133 3892  
                                       l10125 3874                                         l10061 3216  
                                       l10119 3A3E                                         l10055 2CE8  
                                       l10047 2CAC                                         l10039 2C60  
                                       l10135 3894                                         l10127 388C  
                                       l10071 328C                                         l10063 3228  
                                       l10231 35C6                                         l10049 2CC4  
                                       l10129 388E                                         l10073 328E  
                                       l10065 322E                                         l10161 355E  
                                       l10153 3510                                         l10241 360E  
                                       l10233 35D4                                         l10251 23BE  
                                       l10091 399E                                         l10083 3A3A  
                                       l10075 3290                                         l10067 3288  
                                       l10059 3216                                         l10155 3524  
                                       l10171 35A0                                         l10243 3612  
                                       l10235 35F8                                         l10227 35AE  
                                       l10261 24D6                                         l10253 23C8  
                                       l10093 38BC                                         l10085 3992  
                                       l10077 32A0                                         l10069 328A  
                                       l10341 33FC                                         l10157 3528  
                                       l10173 35AC                                         l10165 3560  
                                       l10245 3620                                         l10229 35C2  
                                       l10263 2508                                         l10255 23DA  
                                       l10271 34B4                                         l10095 38CA  
                                       l11151 25D4                                         l10087 3996  
                                       l10079 32A2                                         l10351 341C  
                                       l10343 3400                                         l10159 3550  
                                       l10167 3574                                         l10247 3644  
                                       l10239 35FA                                         l10265 2520  
                                       l10257 23DE                                         l10281 34EE  
                                       l10273 34B4                                         l10097 38CE  
                                       l11153 267A                                         l10089 399A  
                                       l10353 3424                                         l10345 3404  
                                       l10169 3578                                         l10267 254E  
                                       l10259 24BE                                         l10283 3506  
                                       l10275 34C6                                         l10099 38D2  
                                       l10291 345A                                         l11155 29B4  
                                       l11147 27CA                                         l10355 342E  
                                       l10347 340C                                         l10339 33F8  
                                       l10285 350E                                         l10277 34CA  
                                       l10293 3460                                         l11157 2A46  
                                       l11149 290C                                         l10357 343A  
                                       l10349 3414                                         l10279 34E2  
                                       l10295 34AE                                         l10359 3448  
                                       l10289 3456                                         l10951 2CEA  
                                       l10961 2D12                                         l10953 2CEE  
                                       l10963 2D22                                         l10971 2D98  
                                       l10955 2CF2                                         l10973 2DA8  
                                       l10981 2DDC                                         l10965 2D2A  
                                       l10957 2CF6                                         l10983 2DEC  
                                       l10975 2DB8                                         l10967 2D78  
                                       l10959 2D02                                         l10985 2DFC  
                                       l10977 2DC8                                         l10969 2D88  
                                       l10979 2DD0                                 ___fltol@sign1 0136  
                             __end_of___fladd 14C8                                         ?_main 0001  
                             __end_of___fldiv 202C                               __end_of___awdiv 30D8  
                                       _EEADR 0FA9                               __end_of___awmod 3188  
                             __end_of___flmul 18F2                               __end_of___fltol 2F18  
                                       u10010 365A                                         u10011 3656  
                                       u10100 2CE4                                         u10020 3688  
                                       u10101 2CE0                                         u10021 3682  
                                       u10030 2BC8                                         u10110 3228  
                                       u10031 2BC4                                         u10111 3224  
                                       u10120 38CA                                         u10040 2BE4  
                                       u10121 38C6                                         u10041 2BE0  
                                       u10050 2C04                                         u10026 368A  
                                       u10051 2C00                                         u10060 2C24  
                                       u10300 3640                                         u10061 2C20  
                                       u10301 363A                                         u10310 23DA  
                                       u10070 2C50                                         u10311 23D6  
                                       u10071 2C4C                                         u10320 24D6  
                                       u10080 2C7E                                         u10321 24D2  
                                       u10081 2C7A                                         u10330 2520  
                                       u10090 2CC4                                         u10170 3524  
                                       u10306 3642                                         u10331 251C  
                                       u10091 2CC0                                         u10171 3520  
                                       u10340 34C6                                         u10180 3574  
                                       u10341 34C2                                         u10181 3570  
                                       u10350 34E2                                         u10270 35C2  
                                       u10351 34DE                                         u10271 35BE  
                                       u10360 3506                                         u10280 35F4  
                                       u11400 2DB8                                         u10361 3502  
                                       u10281 35EE                                         u11401 2DB4  
                                       u10290 360E                                         u11410 2DEC  
                                       u10291 360A                                         u11411 2DE8  
                             ___awdiv@divisor 0003                                         u10286 35F6  
                                       u11380 2D12                                         u11381 2D0E  
                                       u11390 2DA8                                         u11391 2DA4  
                                       i2l414 3A5C                                         i2l803 3A4C  
                                       i2l811 3A44                                         i2l807 3A48  
                                       i2l913 3940                                         i2l921 3926  
                                       i2l674 2BB2                                         i2l929 390C  
                                       i2l937 38F2                               ___awdiv@counter 0005  
                                       _RCREG 0FAE                         _I2C_SlaveReleaseClock 3A4E  
                                       _TMR0H 0FD7                                         _TMR1H 0FCF  
                                       _TMR0L 0FD6                                         _TMR1L 0FCE  
                                       _TMR3H 0FB3                                         _TMR3L 0FB2  
                                       _SPBRG 0FAF                                         _PORTA 0F80  
                                       _PORTB 0F81                                         _PORTC 0F82  
                                       _PORTD 0F83                                         _PORTE 0F84  
                                       _TRISA 0F92                                         _TRISB 0F93  
                                       _TRISC 0F94                                         _TRISD 0F95  
                                       _TRISE 0F96                                         _TXREG 0FAD  
               ?_I2C_SlaveSetBusColIntHandler 0019                              __end_of_TMR0_ISR 39BE  
                            __end_of_TMR1_ISR 39B0                              __end_of_TMR2_ISR 3A2A  
                             __end_of_led_off 3646                              _MY_I2C_slave_ISR 384E  
                      ??_I2C_SlaveIsRxBufFull 0001                                         _seg_1 00D8  
                                       _seg_2 0129                                         _portx 0110  
                                       _trisx 00CE                                         pclath 0FFA  
                                       pclatu 0FFB                                         tablat 0FF5  
             CCP_Capture_Mode_Config@_ccp_obj 001C                                         ttemp5 0068  
                                       ttemp6 006B                                         ttemp7 006F  
                                       status 0FD8                                         wtemp8 0068  
                       ??_I2C_SlaveSendTxData 0001                         ??_I2C_SlaveWrCallBack 0002  
                       _I2C_SlaveSetSlaveAddr 3A1A                               __initialization 3188  
                       _I2C_SlaveSetSlaveMask 3A5E                                  __end_of_main 2E10  
                       CCP_PWM_Start@_ccp_obj 0019                                    _Initialize 33F8  
                                   ??_ADC_ISR 0001                   ?_INTERRUPT_InterruptManager 0001  
                                   ??_I2C_Isr 0011                         _CCP_Mode_Timer_Select 331C  
                                      ??_main 0050                                 __activetblptr 0003  
                       _TMR3_InterruptHandler 0096                                     ??_RB4_ISR 0001  
                                   ??_RB5_ISR 0001                                     ??_RB6_ISR 0001  
                                   ??_RB7_ISR 0001                   _I2C_SlaveRdInterruptHandler 0088  
                 _I2C_SlaveWrInterruptHandler 0086                    __end_of_I2C_SlaveEnableIrq 3A42  
                  __end_of_I2C_SlaveGetRxData 3A5A                    _EUSART_OverrunErrorHandler 008C  
                                      _ADRESH 0FC4                                        _EEADRH 0FAA  
                                      _ADRESL 0FC3                                        _EEDATA 0FA8  
                                      _CCPR1L 0FBE                                        _CCPR2L 0FBB  
                                      _EECON2 0FA7                              ___awdiv@dividend 0001  
                                      i2l1130 39BC                                        i2l1501 19D4  
                                      i2l1239 3A28                                        i2l2160 30D6  
                                      i2l1514 1C74                    seven_segment_write@counter 0063  
                                      i2l2173 3186                                        i2l1199 39AE  
                                      i2l1732 3990                                        i2l1660 3012  
                                      i2l1741 3A50                                        i2l1910 3872  
                                      i2l1670 381E                                        i2l1735 397C  
                                      i2l1680 37F0                                        i2l1753 3954  
                                      i2l1673 3A0E                                        i2l1497 19B4  
                      lcd_send_number@counter 0060                                        i2l1762 3A58  
                                      i2l1690 384C                                        i2l1738 3A54  
                                      i2l1683 3A30                                        i2l1756 3968  
                                      i2l1908 3868                                        i2l1693 3A18  
                                      i2l1926 3718                                        i2l1759 3A38  
                                      i2l6201 3152                                        i2l6211 317E  
                                      i2l6203 315A                                        i2l6141 302E  
                                      i2l6205 3160                                        i2l6151 3054  
                                      i2l6143 3032                                        i2l6135 3014  
                                      i2l6207 3166                                        i2l7015 3A06  
                                      i2l6161 308A                                        i2l6153 3066  
                                      i2l6145 3040                                        i2l6137 3018  
                                      i2l6209 3176                                        i2l7017 3A2A  
                                      i2l7019 3A10                                        i2l6163 30A0  
                                      i2l6155 306E                                        i2l6171 30B6  
                                      i2l6147 3048                                        i2l6139 3026  
                                      i2l7221 396A                                        i2l6173 30C6  
                                      i2l6165 30A8                                        i2l6157 3076  
                                      i2l6149 304C                                        i2l6181 30DC  
                                      i2l7231 3820                                        i2l6175 30CE  
                                      i2l6167 30AA                                        i2l6159 3084  
                                      i2l6191 310C                                        i2l6183 30EA  
                                      i2l7233 3834                                        i2l7225 3A52  
                                      i2l6169 30B0                                        i2l6193 311E  
                                      i2l6185 30F2                                        i2l7241 37D8  
                                      i2l7227 397E                                        i2l7243 3956  
                                      i2l7235 3942                                        i2l6195 3126  
                                      i2l6187 30F6                                        i2l6179 30D8  
                                      i2l7251 3A4E                                        i2l6291 3A34  
                                      i2l6197 312E                                        i2l6189 3104  
                                      i2l7501 39AA                                        i2l6287 3A56  
                                      i2l6199 313C                                        i2l9111 32CE  
                                      i2l9103 32A4                                        i2l7239 37C4  
                                      i2l9113 32D2                                        i2l9105 32A8  
                                      i2l7441 3A46                                        i2l7505 3A22  
                                      i2l9123 331A                                        i2l9107 32BA  
                                      i2l7451 392C                                        i2l9117 32E6  
                                      i2l9109 32CA                                        i2l7437 3A4A  
                                      i2l7445 3A42                                        i2l7461 3912  
                                      i2l9119 3314                                        i2l7455 3940  
                                      i2l7471 38F8                                        i2l9081 2AB0  
                                      i2l7449 392A                                        i2l7465 3926  
                                      i2l7481 38DE                                        i2l7395 3A5A  
                                      i2l9091 2B76                                        i2l9083 2AC0  
                                      i2l9075 2A7C                                        i2l7459 3910  
                                      i2l7475 390C                                        i2l7491 39B2  
                                      i2l9093 2BA0                                        i2l9085 2AC4  
                                      i2l9077 2A7C                                        i2l7469 38F6  
                                      i2l7485 38F2                                        i2l7493 39B8  
                                      i2l9095 2BB2                                        i2l9087 2B1E  
                                      i2l9079 2A8E                                        i2l7479 38DC  
                                      i2l9089 2B72                                        i2l7489 39B0  
                                      i2l7497 39A2                                        i2l7499 39A4  
                                      i2l9199 36D6                                        i2l9921 384E  
                                      i2l9923 3852                                        i2l9927 386C  
                            ?_I2C_SlaveIsAddr 0001                                        _SPBRGH 0FB0  
                                      _SSPADD 0FC8                              ?_I2C_SlaveIsRead 0001  
                                      _SSPBUF 0FC9                              __end_of___xxtofl 23BE  
                               ??_Timer2_Init 001B                      ??i2_gpio_pin_logic_write 0004  
                 __end_of_dc_motor_move_right 3560                              __end_of_led_init 368E  
                                   ??___fladd 004C                                     ??___fldiv 0048  
                                   ??___awdiv 0005                                     ??___awmod 0005  
                                   ??___flmul 002F                                     ??___fltol 0132  
                      _I2C_SlaveSetIsrHandler 39E8                                        _led_on 35AE  
                                      clear_0 31EE                                        clear_1 31FA  
                                      clear_2 3206                              ___awdiv@quotient 0007  
                             ___awmod@divisor 0003                                        _motor1 00E0  
                                      _motor2 00DD                                        _timer2 014E  
                                      isa$std 0001                               ___awmod@counter 0005  
                   seven_segment_init@counter 0064                        ?_I2C_SlaveReleaseClock 0001  
                                   ??_led_off 0023                       ??_I2C_SlaveIsTxBufEmpty 0001  
                                __pdataCOMRAM 0050                         seven_segment_init@seg 0027  
                                   ?_I2C_Open 0001           I2C_SlaveSetBusColIntHandler@handler 0019  
                           Timer2_Init@_timer 0019                                  __mediumconst 0000  
                                      tblptrh 0FF7                                        tblptrl 0FF6  
                                      tblptru 0FF8                                 _I2C_SlaveOpen 38BC  
                                   ?_CCP_Init 0144                   CCP_PWM_Mode_Config@_ccp_obj 0138  
                                ___xxtofl@arg 0023                                  ___xxtofl@exp 0022  
                                ___xxtofl@val 0019                                    __accesstop 0080  
                     __end_of__initialization 320C                                     ?_INT0_ISR 0001  
                                   ?_INT1_ISR 0001                              _CCP_PWM_Set_Duty 23BE  
                                   ?_INT2_ISR 0001            I2C_SlaveSetWrColIntHandler@handler 0019  
                ??_I2C_SlaveSetAddrIntHandler 001B                              ??_print_num_7seg 000F  
                          _seven_segment_init 371A                                 ___rparam_used 0001  
                                  ___fltol@f1 012E                        ?_I2C_SlaveSetSlaveAddr 0001  
                      ?_I2C_SlaveSetSlaveMask 0001                  CCP_Interrupt_Config@_ccp_obj 0019  
                           RB5_ISR@RB5_Source 0001                                __pcstackCOMRAM 0001  
                         ?_seven_segment_init 0027                                  __pidataBANK0 3898  
                                __pidataBANK1 3796                     i2gpio_pin_logic_write@pin 0001  
                                   ?_TMR0_ISR 0001                                     ?_TMR1_ISR 0001  
                                   ?_TMR2_ISR 0001                        ?_CCP_Mode_Timer_Select 0019  
                                 ?_Initialize 0001                           __end_of_Timer2_Init 32A4  
              I2C_SlaveSetSlaveAddr@slaveAddr 0019                  ??_I2C_SlaveSetReadIntHandler 001B  
                                  ??_I2C_Open 001B                                ?_I2C_SlaveOpen 0001  
                        ??_seven_segment_init 0029                                    ??_CCP_Init 0146  
                       CCP_PWM_Set_Duty@_duty 013A                                    __pbssBANK0 0080  
                                  __pbssBANK1 0148                           fp__MY_I2C_slave_ISR 0000  
                       _INT0_InterruptHandler 00B8                                    ??_INT0_ISR 0001  
                                  ??_INT1_ISR 0001                                    ??_INT2_ISR 0001  
         __end_of_I2C_SlaveSetWrColIntHandler 39DE                   _I2C_SlaveSetWrColIntHandler 39D4  
                    __end_of_MY_I2C_slave_ISR 3874                                    ??_TMR0_ISR 0001  
                                  ??_TMR1_ISR 0001                   CCP_PWM_Set_Duty@l_duty_temp 0141  
                                  ??_TMR2_ISR 0001                   __end_of_I2C_SlaveRdCallBack 3820  
               ??_I2C_SlaveSetWrColIntHandler 001B                                       ?_led_on 0022  
                                     _ADC_ISR 3A5A                                       _I2C_Isr 2F18  
                           RB7_ISR@RB7_Source 0001                             print_num_7seg@num 000F  
                                     i2l10121 37F2                                       i2l10123 3806  
                                     i2l10301 2F30                                       i2l10311 2F70  
                                     i2l10303 2F44                                       i2l10321 2FA0  
                                     i2l10313 2F78                                       i2l10305 2F4C  
                                     i2l10315 2F7C                                       i2l10331 2FD4  
                                     i2l10307 2F54                                       i2l10325 2FB8  
                                     i2l10317 2F90                                       i2l10333 300E  
                                     i2l10309 2F68                                       i2l10327 2FCC  
                                     i2l10319 2F98                                       i2l11161 2B8A  
                                     i2l11159 2FE8                                       i2l10297 2F18  
                                     i2l10801 190C                                       i2l10299 2F1C  
                                     i2l10811 1948                                       i2l10803 191A  
                                     i2l10901 1B6C                                       i2l10821 197A  
                                     i2l10813 194C                                       i2l10805 1928  
                                     i2l10911 1BAA                                       i2l10903 1B7A  
                                     i2l10831 19E2                                       i2l10823 1988  
                                     i2l10815 195A                                       i2l10807 192C  
                                     i2l10921 1BEA                                       i2l10905 1B88  
                                     i2l10913 1BB0                                       i2l10833 19F0  
                                     i2l10841 1A18                                       i2l10825 1996  
                                     i2l10817 1968                                       i2l10809 193A  
                                     i2l10931 1C14                                       i2l10923 1BEE  
                                     i2l10915 1BBE                                       i2l10907 1B96  
                                     i2l10851 1A56                                       i2l10843 1A26  
                                     i2l10835 19FE                                       i2l10827 19C2  
                                     i2l10819 196C                                       i2l10941 1C50  
                                     i2l10933 1C22                                       i2l10917 1BCC  
                                     i2l10925 1BF4                                       i2l10909 1BA6  
                                     i2l10861 1A96                                       i2l10845 1A34  
                                     i2l10853 1A5C                                       i2l10837 1A0E  
                                     i2l10943 1C54                                       i2l10935 1C30  
                                     i2l10927 1C02                                       i2l10919 1BDA  
                                     i2l10871 1ACA                                       i2l10863 1A9A  
                                     i2l10855 1A6A                                       i2l10847 1A42  
                                     i2l10839 1A12                                       i2l10945 1C62  
                                     i2l10937 1C34                                       i2l10929 1C10  
                                     i2l10881 1B00                                       i2l10873 1ADA  
                                     i2l10857 1A78                                       i2l10865 1AA0  
                                     i2l10849 1A52                                       i2l10947 1C70  
                                     i2l10939 1C42                                       i2l10891 1B36  
                                     i2l10883 1B0E                                       i2l10875 1ADE  
                                     i2l10867 1AAE                                       i2l10859 1A86  
                                     _RB4_ISR 3928                                       i2l10893 1B44  
                                     i2l10885 1B1E                                       i2l10869 1ABC  
                                     i2l10877 1AE4                                       i2l10895 1B52  
                                     i2l10887 1B22                                       i2l10879 1AF2  
                                     i2l10897 1B62                                       i2l10889 1B28  
                                     i2l10899 1B66                                       _RB5_ISR 390E  
                                     _RB6_ISR 38F4                                       _RB7_ISR 38DA  
                                   ?___xxtofl 0019                   seven_segment_write@gpio_ret 000E  
                            lcd_send_number@i 0061                   __end_of_CCP_PWM_Mode_Config 220A  
                   _RB6_InterruptHandler_high 00AA                                       _SSPCON1 0FC6  
                                     _SSPCON2 0FC5                                       _SSPSTAT 0FC7  
                                   ?_led_init 0027                      _RB6_InterruptHandler_low 00A8  
                        _ADC_InterruptHandler 00BE                                       __Hparam 0000  
                                 _Timer2_Init 3216                                       __Lparam 0000  
                __end_of_CCP_Interrupt_Config 3796                          _SPI_InterruptHandler 00A2  
                                     ___fladd 1006                                       ___fldiv 1C90  
                                     ___awdiv 3014                       I2C_SlaveSendTxData@data 0001  
                                     ___awmod 30D8                                       ___flmul 14C8  
             CCP_Compare_Mode_Config@_ccp_obj 001C                                       ___fltol 2E10  
                                __psmallconst 1000                      _CCP_PWM_Mode_Config$5875 013C  
                    _CCP_PWM_Mode_Config$5876 0140                         _I2C_SlaveAddrCallBack 3820  
                                     __pcinit 3188                                _I2C_Initialize 3992  
               gpio_pin_logic_write@pin_logic 001B               i2gpio_pin_logic_write@pin_logic 0003  
                                     __ramtop 1000                                       __ptext0 2CEA  
                                     __ptext1 35AE                                       __ptext2 35FA  
                                     __ptext3 3560                                       __ptext4 3510  
                                     __ptext5 33F8                                       __ptext6 371A  
                                     __ptext7 3646                                       __ptext8 368E  
                                     __ptext9 3216                                     _T0CONbits 0FD5  
                                     _led_off 35FA                                       _led_red 00E5  
                                  fp__I2C_Isr 0000                                     _T1CONbits 0FCD  
                             ??_I2C_SlaveOpen 0019                                     _T2CONbits 0FCA  
                                  ??___xxtofl 001D                                     _T3CONbits 0FB1  
                            ___awmod@dividend 0001                       _CCP_Compare_Mode_Config 2550  
                    ??_PIN_MANAGER_Initialize 0019                        i2_gpio_pin_logic_write 2A7C  
               I2C_SlaveSetIsrHandler@handler 0019                      ?_CCP_Capture_Mode_Config 001C  
                 __end_of_I2C_SlaveSendTxData 3A3A                                __pintcode_body 18F2  
                                  ??_led_init 0028                          end_of_initialization 320C  
                 __end_of_I2C_SlaveWrCallBack 37F2                                led_on@gpio_ret 0023  
          __end_of_I2C_SlaveSetAddrIntHandler 3A06                    _I2C_SlaveSetAddrIntHandler 39FC  
                                     int_func 18F2                                     i2u1100_40 19FE  
                                   i2u1100_41 19FA                                     i2u1013_40 3806  
                                   i2u1101_40 1A0E                                     i2u1013_41 3802  
                                   i2u1101_41 1A0A                                     i2u1110_40 1AAE  
                                   i2u1102_40 1A26                                     i2u1110_41 1AAA  
                                   i2u1102_41 1A22                                     i2u1014_48 380C  
                                   i2u1111_40 1ABC                                     i2u1103_40 1A34  
                                   i2u1014_49 381E                                     i2u1111_41 1AB8  
                                   i2u1103_41 1A30                                     i2u1040_40 2F90  
                                   i2u1120_40 1B52                                     i2u1112_40 1ACA  
                                   i2u1104_40 1A42                                     i2u1040_41 2F8C  
                                   i2u1120_41 1B4E                                     i2u1112_41 1AC6  
                                   i2u1104_41 1A3E                                     i2u1041_40 2FB4  
                                   i2u1121_40 1B62                                     i2u1113_40 1ADA  
                                   i2u1105_40 1A52                                     i2u1041_41 2FB0  
                                   i2u1121_41 1B5E                                     i2u1113_41 1AD6  
                                   i2u1105_41 1A4E                                     i2u1042_40 2FCC  
                                   i2u1130_40 1C02                                     i2u1122_40 1B7A  
                                   i2u1114_40 1AF2                                     i2u1106_40 1A6A  
                                   i2u1042_41 2FC8                                     i2u1130_41 1BFE  
                                   i2u1122_41 1B76                                     i2u1114_41 1AEE  
                                   i2u1106_41 1A66                                     i2u1131_40 1C10  
                                   i2u1123_40 1B88                                     i2u1115_40 1B00  
                                   i2u1107_40 1A78                                     i2u1131_41 1C0C  
                                   i2u1123_41 1B84                                     i2u1115_41 1AFC  
                                   i2u1107_41 1A74                                     i2u1132_40 1C22  
                                   i2u1124_40 1B96                                     i2u1116_40 1B0E  
                                   i2u1108_40 1A86                                     i2u1132_41 1C1E  
                                   i2u1124_41 1B92                                     i2u1116_41 1B0A  
                                   i2u1108_41 1A82                                     i2u1037_40 2F30  
                                   i2u1133_40 1C30                                     i2u1125_40 1BA6  
                                   i2u1117_40 1B1E                                     i2u1109_40 1A96  
                                   i2u1037_41 2F2C                                     i2u1133_41 1C2C  
                                   i2u1125_41 1BA2                                     i2u1117_41 1B1A  
                                   i2u1109_41 1A92                                     i2u1038_40 2F44  
                                   i2u1134_40 1C42                                     i2u1126_40 1BBE  
                                   i2u1118_40 1B36                                     i2u1038_41 2F40  
                                   i2u1134_41 1C3E                                     i2u1126_41 1BBA  
                                   i2u1118_41 1B32                                     i2u1039_40 2F68  
                                   i2u1135_40 1C50                                     i2u1127_40 1BCC  
                                   i2u1119_40 1B44                                     i2u1039_41 2F64  
                                   i2u1135_41 1C4C                                     i2u1127_41 1BC8  
                                   i2u1119_41 1B40                                     i2u1136_40 1C62  
                                   i2u1128_40 1BDA                                     i2u1136_41 1C5E  
                                   i2u1128_41 1BD6                                     i2u1137_40 1C70  
                                   i2u1129_40 1BEA                                     i2u1137_41 1C6C  
                                   i2u1129_41 1BE6                                     i2u1090_40 195A  
                                   i2u1090_41 1956                                     i2u1091_40 1968  
                                   i2u1091_41 1964                                     i2u1092_40 197A  
                                   i2u1092_41 1976                                     i2u1093_40 1988  
                                   i2u1093_41 1984                                     i2u1094_40 1996  
                                   i2u1086_40 191A                                     i2u1094_41 1992  
                                   i2u1086_41 1916                                     i2u1087_40 1928  
                                   i2u1087_41 1924                                     i2u1096_40 19C2  
                                   i2u1095_48 199C                                     i2u1088_40 193A  
                                   i2u1096_41 19BE                                     i2u1095_49 19B0  
                                   i2u1088_41 1936                                     i2u1097_40 19D0  
                                   i2u1089_40 1948                                     i2u1097_41 19CC  
                                   i2u1089_41 1944                                     i2u1098_40 19E2  
                                   i2u1098_41 19DE                                     i2u1099_40 19F0  
                                   i2u1099_41 19EC                            _I2C_SlaveEnableIrq 3A3E  
                          _I2C_SlaveGetRxData 3A56                       ?_I2C_SlaveSetIsrHandler 0019  
                               _dc_motor_init 368E                                  _i2cSlaveAddr 00C0  
                               _dc_motor_stop 3560                      _gpio_pin_output_low_init 338C  
                    CCP_PWM_Set_Duty@_ccp_obj 0138                                     _RCSTAbits 0FAB  
                                     postdec1 0FE5                                       postdec2 0FDD  
                                     postinc0 0FEE                                       postinc2 0FDE  
                      __end_of_I2C_Initialize 39A2                       ??_I2C_SlaveReleaseClock 0001  
                         ?_I2C_SlaveEnableIrq 0001                           ?_I2C_SlaveGetRxData 0001  
          __end_of_I2C_SlaveSetReadIntHandler 39E8                    _I2C_SlaveSetReadIntHandler 39DE  
                ?_I2C_SlaveSetWriteIntHandler 0019                   dc_motor_move_right@dc_motor 0022  
                       _INT1_InterruptHandler 00B6                                     _PORTBbits 0F81  
                    __end_of_CCP_PWM_Set_Duty 2550                                   ___fladd@grs 00FF  
                               ___xxtofl@sign 0021                 __end_of_I2C_SlaveIsTxBufEmpty 3956  
                                   _TRISCbits 0F94                                   ___fldiv@grs 00EE  
                                 ___fldiv@rem 00E7                   dc_motor_move_right@gpio_ret 0024  
                        ??_I2C_SlaveEnableIrq 0019                          ??_I2C_SlaveGetRxData 0001  
                         _seven_segment_write 32A4                       ??_I2C_SlaveSetSlaveAddr 0019  
            gpio_pin_output_low_init@gpio_ret 0025                                   ___flmul@grs 0035  
                     ??_I2C_SlaveSetSlaveMask 0019                                   _CCP1CONbits 0FBD  
                            CCP_Init@_ccp_obj 0144                                   _CCP2CONbits 0FBA  
                                   _TXSTAbits 0FAC                __end_of_I2C_SlaveSetIsrHandler 39F2  
                      seven_segment_write@seg 0009                        seven_segment_write@num 000B  
                              ?_dc_motor_init 0027                                    led_off@led 0022  
                              ?_dc_motor_stop 0022                       ??_CCP_Mode_Timer_Select 001B  
                  CCP_Capture_Mode_Config@ret 0020                                 _CCP_PWM_Start 34B4  
                      ?_I2C_SlaveAddrCallBack 0001                  __end_of_INTERRUPT_Initialize 3A3E  
                  CCP_Compare_Mode_Config@ret 0020                 convert_uint16_to_string@F3180 0148  
                             ?_I2C_Initialize 0001                       _gpio_pin_direction_init 27FA  
                                ??_Initialize 0050                          ?_seven_segment_write 0009  
                                 _BAUDCONbits 0FB8                                 __pidataCOMRAM 39BE  
                              _timer0_preload 009E                                __end_of_led_on 35FA  
                                   _i2cRdData 00C1                     ??_CCP_Compare_Mode_Config 001E  
                              _timer1_preload 009A                                     _i2cWrData 005E  
                              _timer2_preload 005F               __end_of_CCP_Capture_Mode_Config 2A7C  
                         start_initialization 3188                                _timer3_preload 0094  
SPI_Master_Mode_GPIO_PIN_Configurations@F3114 005A   SPI_Slave_Mode_GPIO_PIN_Configurations@F3122 0057  
SPI_Master_Mode_GPIO_PIN_Configurations@F3116 0059   SPI_Slave_Mode_GPIO_PIN_Configurations@F3124 0056  
SPI_Master_Mode_GPIO_PIN_Configurations@F3118 0058   SPI_Slave_Mode_GPIO_PIN_Configurations@F3126 0055  
 SPI_Slave_Mode_GPIO_PIN_Configurations@F3128 0054                          _CCP_Interrupt_Config 375C  
                   _EUSART_RxInterruptHandler 0090                            __end_of_Initialize 3456  
                       lcd_send_number@number 0066                                ?_CCP_PWM_Start 0019  
                  _EUSART_FramingErrorHandler 008E                             ?_MY_I2C_slave_ISR 0001  
                                    ??_led_on 0023                                   __pdataBANK0 00C4  
                                 __pdataBANK1 0100                         ??_seven_segment_write 000C  
                                    ?_ADC_ISR 0001                                      ?_I2C_Isr 0001  
                          ??_MY_I2C_slave_ISR 0010                     lcd_send_number_pos@number 0065  
                                   ___fladd@a 00F8                                     ___fladd@b 00F4  
                                   ___fldiv@a 0044                                     ___fldiv@b 0040  
                                    ?_RB4_ISR 0001                                      ?_RB5_ISR 0001  
                                    ?_RB6_ISR 0001                                      ?_RB7_ISR 0001  
                                   ___flmul@a 002B                                     ___flmul@b 0027  
                                 __pbssCOMRAM 005C                                 __pcstackBANK0 00E7  
                               __pcstackBANK1 012E                         ?_CCP_Interrupt_Config 0019  
                 lcd_send_custom_char@counter 0062                         _INT2_InterruptHandler 00B4  
                             ??_dc_motor_init 0028                ??_I2C_SlaveSetBusColIntHandler 001B  
                             ??_dc_motor_stop 0023                         _TMR0_InterruptHandler 00A0  
                __end_of_gpio_pin_logic_write 27FA                                  ?_Timer2_Init 0019  
                                   _main$5878 0147                        _PIN_MANAGER_Initialize 3874  
                   ??_gpio_pin_direction_init 001C                                     __pintcode 0008  
                                    ?___fladd 00F4                                      ?___fldiv 0040  
                                    ?___awdiv 0001                                      ?___awmod 0001  
                                    ?___flmul 0027                                      ?___fltol 012E  
                ??_INTERRUPT_InterruptManager 0013                       ?i2_gpio_pin_logic_write 0001  
                           ??_I2C_SlaveIsAddr 0001                                      ?_led_off 0022  
                           ??_I2C_SlaveIsRead 0001             fp__I2C_SlaveDefRdInterruptHandler 0000  
            ??_I2C_SlaveDefRdInterruptHandler 0001               ?_I2C_SlaveDefRdInterruptHandler 0001  
           fp__I2C_SlaveDefWrInterruptHandler 0000              ??_I2C_SlaveDefWrInterruptHandler 0002  
             ?_I2C_SlaveDefWrInterruptHandler 0001                                   __smallconst 1000  
                                    _I2C_Open 3456                     _RB4_InterruptHandler_high 00B2  
               CCP_Mode_Timer_Select@_ccp_obj 0019                     _RB7_InterruptHandler_high 00A6  
                                    _CCP_Init 2BB4                          _INTERRUPT_Initialize 3A3A  
                  ??_gpio_pin_output_low_init 0024                   ?_I2C_SlaveSetAddrIntHandler 0019  
                                    _INT0_ISR 3A4A                                      _INT1_ISR 3A46  
                                    _INT2_ISR 3A42                                      _RB4_Flag 0053  
                                    _RB5_Flag 0052                                      _RB6_Flag 0051  
                             ??_CCP_PWM_Start 001B                                      _RB7_Flag 0050  
                    _RB5_InterruptHandler_low 00AC                             RB4_ISR@RB4_Source 0001  
                                    _PIE1bits 0F9D                                      _PIE2bits 0FA0  
                           _I2C_SlaveClearIrq 3A52                                      _PIR1bits 0F9E  
                                    _PIR2bits 0FA1                                      i2u632_40 397A  
                                    i2u480_40 30C6                                      i2u632_41 3974  
                                    i2u480_41 30C2                                      i2u632_46 397C  
                                    i2u633_40 398E                                      i2u641_40 3966  
                                    i2u481_40 30EA                                      i2u640_48 37DE  
                                    i2u633_41 3988                                      i2u641_41 3960  
                                    i2u481_41 30E6                                      i2u640_49 37F0  
                                    i2u641_46 3968                                      i2u634_40 3990  
                                    i2u482_40 3104                                      i2u482_41 3100  
                                    i2u635_40 3834                                      i2u475_40 3026  
                                    i2u483_40 311E                                      i2u635_41 3830  
                                    i2u475_41 3022                                      i2u483_41 311A  
                                    i2u476_40 3040                                      i2u484_40 313C  
                                    i2u476_41 303C                                      i2u484_41 3138  
                                    i2u636_48 383A                                      i2u637_40 3952  
                                    i2u477_40 3066                                      i2u485_40 3152  
                                    i2u636_49 384C                                      i2u637_41 394C  
                                    i2u477_41 3062                                      i2u485_41 314E  
                                    i2u638_40 3954                                      i2u478_40 3084  
                                    i2u486_40 3176                                      i2u670_40 38EE  
                                    i2u478_41 3080                                      i2u486_41 3172  
                                    i2u670_41 38EA                                      i2u479_40 30A0  
                                    i2u639_40 37D8                                      i2u479_41 309C  
                                    i2u639_41 37D4                                      i2u667_40 393C  
                                    i2u667_41 3938                                      i2u860_40 2AC0  
                                    i2u668_40 3922                                      i2u860_41 2ABC  
                                    i2u668_41 391E                                      i2u669_40 3908  
                                    i2u669_41 3904                                      i2u861_44 2AE4  
                                    i2u861_45 2AE0                                      i2u862_44 2B3E  
                                    i2u862_45 2B3A                                      i2u863_45 2BB0  
                                    i2u863_46 2BB2                                      i2u864_40 32BA  
                                    i2u864_41 32B6                            ?_I2C_SlaveClearIrq 0001  
                                    i2u865_40 32CA                                      i2u865_41 32C6  
                                    i2u858_40 2A8E                                      i2u866_40 32E2  
                                    i2u858_41 2A8A                                      i2u866_41 32DE  
                                    i2u859_40 2AB0                                      i2u859_41 2AAC  
                                    i2u867_44 3304                                      i2u867_45 3300  
                                    _RCONbits 0FD0                                      i2u992_40 3864  
                                    i2u992_41 3860                      MY_I2C_slave_ISR@temp_var 0010  
                                   _var_slave 005C                                      _TMR0_ISR 39B0  
                __end_of_I2C_SlaveIsRxBufFull 396A                                      _TMR1_ISR 39A2  
                                    _TMR2_ISR 3A22                __end_ofi2_gpio_pin_logic_write 2BB4  
                 ?_I2C_SlaveSetReadIntHandler 0019                 __end_of_I2C_SlaveReleaseClock 3A52  
                         ??_I2C_SlaveClearIrq 0001                                    _ADCON0bits 0FC2  
                                  _ADCON1bits 0FC1                                    _ADCON2bits 0FC0  
                           ?_CCP_PWM_Set_Duty 0138                                     led_on@led 0022  
                       __end_of_I2C_SlaveOpen 38DA                            ??_CCP_PWM_Set_Duty 013B  
                      ??_CCP_Interrupt_Config 001B               __end_of_gpio_pin_direction_init 293C  
                                 _INTCON2bits 0FF1                                   _INTCON3bits 0FF0  
                                   copy_data0 319C                                     copy_data1 31BC  
                                   copy_data2 31DC                         ?_INTERRUPT_Initialize 0001  
           _I2C_SlaveDefWrColInterruptHandler 0000                           _dc_motor_move_right 3510  
                   __end_of_I2C_SlaveClearIrq 3A56                 __end_of_I2C_SlaveSetSlaveAddr 3A22  
                                  _EECON1bits 0FA6                 __end_of_I2C_SlaveSetSlaveMask 3A60  
                            ??_I2C_Initialize 0019                       ??_I2C_SlaveAddrCallBack 0001  
                                    __Hrparam 0000          gpio_pin_direction_init@pin_direction 001B  
                                    __Lrparam 0000                         dc_motor_stop@dc_motor 0022  
               __end_of_CCP_Mode_Timer_Select 338C                             RB6_ISR@RB6_Source 0001  
               _I2C_SlaveAddrInterruptHandler 0084                         _CCP1_InterruptHandler 00BC  
                  lcd_send_number_pos@counter 00C2                          lcd_send_number_pos@i 00C3  
                        ?_dc_motor_move_right 0022            _I2C_SlaveDefBusColInterruptHandler 0000  
                       _TMR1_InterruptHandler 009C                         dc_motor_stop@gpio_ret 0024  
                                    ___xxtofl 220A                _I2C_SlaveWrColInterruptHandler 0080  
                        _gpio_pin_logic_write 26B8                                      __ptext10 3874  
                                    __ptext11 3A3A                                      __ptext20 293C  
                                    __ptext12 3992                                      __ptext21 331C  
                                    __ptext13 2BB4                                      __ptext30 39FC  
                                    __ptext22 3456                                      __ptext14 338C  
                                    __ptext31 38BC                                      __ptext23 39CA  
                                    __ptext15 26B8                                      __ptext32 3A3E  
                                    __ptext24 39D4                                      __ptext16 27FA  
                                    __ptext41 3A22                                      __ptext33 34B4  
                                    __ptext25 3A5E                                      __ptext17 202C  
                                    __ptext50 3A4A                                      __ptext42 39A2  
                                    __ptext34 23BE                                      __ptext26 3A1A  
                                    __ptext18 375C                                      __ptext51 2F18  
                                    __ptext43 39B0                                      __ptext35 220A  
                                    __ptext27 39DE                                      __ptext19 2550  
                                    __ptext60 32A4                                      __ptext52 37C4  
                                    __ptext44 38DA                                      __ptext36 2E10  
                                    __ptext28 39E8                                      __ptext61 2A7C  
                                    __ptext53 3A2A                                      __ptext45 38F4  
                                    __ptext37 14C8                                      __ptext29 39F2  
                                    __ptext70 3A10                                      __ptext62 30D8  
                                    __ptext54 3A32                                      __ptext46 390E  
                                    __ptext38 1C90                                      __ptext71 3A56  
                                    __ptext63 3014                                      __ptext55 3A4E  
                                    __ptext47 3928                                      __ptext39 1006  
                                    __ptext72 3A5A                                      __ptext64 3942  
                                    __ptext56 37F2                                      __ptext48 3A42  
                                    __ptext73 0000                                      __ptext65 3956  
                                    __ptext57 3A06                                      __ptext49 3A46  
                                    __ptext66 396A                                      __ptext58 384E  
                                    __ptext67 397E                                      __ptext59 36D4  
                                    __ptext68 3A52                                      __ptext69 3820  
                                 _keypad_btns 0100                         _I2C_SlaveIsTxBufEmpty 3942  
                                    _led_blue 00E3                                      _led_init 3646  
                       dc_motor_init@dc_motor 0027                  ?_I2C_SlaveSetWrColIntHandler 0019  
                                    isa$xinst 0000                                      int$flags 0067  
                              _print_num_7seg 36D4            __end_of_INTERRUPT_InterruptManager 1C90  
                  _INTERRUPT_InterruptManager 0008                         dc_motor_init@gpio_ret 0029  
                       ??_dc_motor_move_right 0023                                    _INTCONbits 0FF2  
                       ?_gpio_pin_logic_write 0019                               led_off@gpio_ret 0023  
                      ??_INTERRUPT_Initialize 0019                       gpio_pin_logic_write@pin 0019  
                     gpio_pin_logic_write@ret 0021              __end_of_gpio_pin_output_low_init 33F8  
                        _I2C_SlaveIsRxBufFull 3956                                      intlevel2 0000  
             _I2C_SlaveBusColInterruptHandler 0082                     _EUSART_TxInterruptHandler 0092  
                     ?_PIN_MANAGER_Initialize 0001                       _CCP_Capture_Mode_Config 293C  
                         _I2C_SlaveRdCallBack 37F2                   __end_of_seven_segment_write 331C  
                             _I2C_SlaveIsAddr 397E                               _I2C_SlaveIsRead 396A  
                      __end_of_print_num_7seg 371A                                 _i2cSlaveState 005D  
                    ?_CCP_Compare_Mode_Config 001C            I2C_SlaveSetWriteIntHandler@handler 0019  
         __end_of_I2C_SlaveSetWriteIntHandler 39D4                   _I2C_SlaveSetWriteIntHandler 39CA  
                         _CCP_PWM_Mode_Config 202C                          ?_I2C_SlaveRdCallBack 0001  
                  __end_of_seven_segment_init 375C                        ?_I2C_SlaveIsTxBufEmpty 0001  
               ??_I2C_SlaveSetWriteIntHandler 001B                                   _SSPCON1bits 0FC6  
                                 _SSPCON2bits 0FC5                    gpio_pin_direction_init@pin 0019  
                  gpio_pin_direction_init@ret 0021                                 ___fladd@signs 00FC  
                            led_init@gpio_ret 0028                      ??_I2C_SlaveSetIsrHandler 001B  
                       ?_I2C_SlaveIsRxBufFull 0001                         _CCP2_InterruptHandler 00BA  
              __end_of_PIN_MANAGER_Initialize 3898                          ?_CCP_PWM_Mode_Config 0138  
                                ___fladd@aexp 00FD                                  ___fladd@bexp 00FE  
      __end_of_I2C_SlaveDefRdInterruptHandler 3A10                _I2C_SlaveDefRdInterruptHandler 3A06  
      __end_of_I2C_SlaveDefWrInterruptHandler 3A32                _I2C_SlaveDefWrInterruptHandler 3A2A  
                       _TMR2_InterruptHandler 0098                         _MSSP_InterruptHandler 008A  
                       __end_of_dc_motor_init 36D4                         __end_of_dc_motor_stop 35AE  
